
STM32L412K8.elf:     file format elf32-littlearm

Sections:
Idx Name          Size      VMA       LMA       File off  Algn
  0 .isr_vector   0000018c  08000000  08000000  00010000  2**0
                  CONTENTS, ALLOC, LOAD, READONLY, DATA
  1 .text         00002f8c  0800018c  0800018c  0001018c  2**2
                  CONTENTS, ALLOC, LOAD, READONLY, CODE
  2 .rodata       00000074  08003118  08003118  00013118  2**2
                  CONTENTS, ALLOC, LOAD, READONLY, DATA
  3 .ARM.extab    00000000  0800318c  0800318c  00020010  2**0
                  CONTENTS
  4 .ARM          00000008  0800318c  0800318c  0001318c  2**2
                  CONTENTS, ALLOC, LOAD, READONLY, DATA
  5 .preinit_array 00000000  08003194  08003194  00020010  2**0
                  CONTENTS, ALLOC, LOAD, DATA
  6 .init_array   00000004  08003194  08003194  00013194  2**2
                  CONTENTS, ALLOC, LOAD, DATA
  7 .fini_array   00000004  08003198  08003198  00013198  2**2
                  CONTENTS, ALLOC, LOAD, DATA
  8 .data         00000010  20000000  0800319c  00020000  2**2
                  CONTENTS, ALLOC, LOAD, DATA
  9 .bss          0000117c  20000010  080031ac  00020010  2**2
                  ALLOC
 10 ._user_heap_stack 00000604  2000118c  080031ac  0002118c  2**0
                  ALLOC
 11 .ARM.attributes 00000030  00000000  00000000  00020010  2**0
                  CONTENTS, READONLY
 12 .comment      0000007b  00000000  00000000  00020040  2**0
                  CONTENTS, READONLY
 13 .debug_frame  000000ac  00000000  00000000  000200bc  2**2
                  CONTENTS, READONLY, DEBUGGING

Disassembly of section .text:

0800018c <__do_global_dtors_aux>:
 800018c:	b510      	push	{r4, lr}
 800018e:	4c05      	ldr	r4, [pc, #20]	; (80001a4 <__do_global_dtors_aux+0x18>)
 8000190:	7823      	ldrb	r3, [r4, #0]
 8000192:	b933      	cbnz	r3, 80001a2 <__do_global_dtors_aux+0x16>
 8000194:	4b04      	ldr	r3, [pc, #16]	; (80001a8 <__do_global_dtors_aux+0x1c>)
 8000196:	b113      	cbz	r3, 800019e <__do_global_dtors_aux+0x12>
 8000198:	4804      	ldr	r0, [pc, #16]	; (80001ac <__do_global_dtors_aux+0x20>)
 800019a:	f3af 8000 	nop.w
 800019e:	2301      	movs	r3, #1
 80001a0:	7023      	strb	r3, [r4, #0]
 80001a2:	bd10      	pop	{r4, pc}
 80001a4:	20000010 	.word	0x20000010
 80001a8:	00000000 	.word	0x00000000
 80001ac:	08003100 	.word	0x08003100

080001b0 <frame_dummy>:
 80001b0:	b508      	push	{r3, lr}
 80001b2:	4b03      	ldr	r3, [pc, #12]	; (80001c0 <frame_dummy+0x10>)
 80001b4:	b11b      	cbz	r3, 80001be <frame_dummy+0xe>
 80001b6:	4903      	ldr	r1, [pc, #12]	; (80001c4 <frame_dummy+0x14>)
 80001b8:	4803      	ldr	r0, [pc, #12]	; (80001c8 <frame_dummy+0x18>)
 80001ba:	f3af 8000 	nop.w
 80001be:	bd08      	pop	{r3, pc}
 80001c0:	00000000 	.word	0x00000000
 80001c4:	20000014 	.word	0x20000014
 80001c8:	08003100 	.word	0x08003100

080001cc <__aeabi_uldivmod>:
 80001cc:	b953      	cbnz	r3, 80001e4 <__aeabi_uldivmod+0x18>
 80001ce:	b94a      	cbnz	r2, 80001e4 <__aeabi_uldivmod+0x18>
 80001d0:	2900      	cmp	r1, #0
 80001d2:	bf08      	it	eq
 80001d4:	2800      	cmpeq	r0, #0
 80001d6:	bf1c      	itt	ne
 80001d8:	f04f 31ff 	movne.w	r1, #4294967295	; 0xffffffff
 80001dc:	f04f 30ff 	movne.w	r0, #4294967295	; 0xffffffff
 80001e0:	f000 b972 	b.w	80004c8 <__aeabi_idiv0>
 80001e4:	f1ad 0c08 	sub.w	ip, sp, #8
 80001e8:	e96d ce04 	strd	ip, lr, [sp, #-16]!
 80001ec:	f000 f806 	bl	80001fc <__udivmoddi4>
 80001f0:	f8dd e004 	ldr.w	lr, [sp, #4]
 80001f4:	e9dd 2302 	ldrd	r2, r3, [sp, #8]
 80001f8:	b004      	add	sp, #16
 80001fa:	4770      	bx	lr

080001fc <__udivmoddi4>:
 80001fc:	e92d 47f0 	stmdb	sp!, {r4, r5, r6, r7, r8, r9, sl, lr}
 8000200:	9e08      	ldr	r6, [sp, #32]
 8000202:	4604      	mov	r4, r0
 8000204:	4688      	mov	r8, r1
 8000206:	2b00      	cmp	r3, #0
 8000208:	d14b      	bne.n	80002a2 <__udivmoddi4+0xa6>
 800020a:	428a      	cmp	r2, r1
 800020c:	4615      	mov	r5, r2
 800020e:	d967      	bls.n	80002e0 <__udivmoddi4+0xe4>
 8000210:	fab2 f282 	clz	r2, r2
 8000214:	b14a      	cbz	r2, 800022a <__udivmoddi4+0x2e>
 8000216:	f1c2 0720 	rsb	r7, r2, #32
 800021a:	fa01 f302 	lsl.w	r3, r1, r2
 800021e:	fa20 f707 	lsr.w	r7, r0, r7
 8000222:	4095      	lsls	r5, r2
 8000224:	ea47 0803 	orr.w	r8, r7, r3
 8000228:	4094      	lsls	r4, r2
 800022a:	ea4f 4e15 	mov.w	lr, r5, lsr #16
 800022e:	0c23      	lsrs	r3, r4, #16
 8000230:	fbb8 f7fe 	udiv	r7, r8, lr
 8000234:	fa1f fc85 	uxth.w	ip, r5
 8000238:	fb0e 8817 	mls	r8, lr, r7, r8
 800023c:	ea43 4308 	orr.w	r3, r3, r8, lsl #16
 8000240:	fb07 f10c 	mul.w	r1, r7, ip
 8000244:	4299      	cmp	r1, r3
 8000246:	d909      	bls.n	800025c <__udivmoddi4+0x60>
 8000248:	18eb      	adds	r3, r5, r3
 800024a:	f107 30ff 	add.w	r0, r7, #4294967295	; 0xffffffff
 800024e:	f080 811b 	bcs.w	8000488 <__udivmoddi4+0x28c>
 8000252:	4299      	cmp	r1, r3
 8000254:	f240 8118 	bls.w	8000488 <__udivmoddi4+0x28c>
 8000258:	3f02      	subs	r7, #2
 800025a:	442b      	add	r3, r5
 800025c:	1a5b      	subs	r3, r3, r1
 800025e:	b2a4      	uxth	r4, r4
 8000260:	fbb3 f0fe 	udiv	r0, r3, lr
 8000264:	fb0e 3310 	mls	r3, lr, r0, r3
 8000268:	ea44 4403 	orr.w	r4, r4, r3, lsl #16
 800026c:	fb00 fc0c 	mul.w	ip, r0, ip
 8000270:	45a4      	cmp	ip, r4
 8000272:	d909      	bls.n	8000288 <__udivmoddi4+0x8c>
 8000274:	192c      	adds	r4, r5, r4
 8000276:	f100 33ff 	add.w	r3, r0, #4294967295	; 0xffffffff
 800027a:	f080 8107 	bcs.w	800048c <__udivmoddi4+0x290>
 800027e:	45a4      	cmp	ip, r4
 8000280:	f240 8104 	bls.w	800048c <__udivmoddi4+0x290>
 8000284:	3802      	subs	r0, #2
 8000286:	442c      	add	r4, r5
 8000288:	ea40 4007 	orr.w	r0, r0, r7, lsl #16
 800028c:	eba4 040c 	sub.w	r4, r4, ip
 8000290:	2700      	movs	r7, #0
 8000292:	b11e      	cbz	r6, 800029c <__udivmoddi4+0xa0>
 8000294:	40d4      	lsrs	r4, r2
 8000296:	2300      	movs	r3, #0
 8000298:	e9c6 4300 	strd	r4, r3, [r6]
 800029c:	4639      	mov	r1, r7
 800029e:	e8bd 87f0 	ldmia.w	sp!, {r4, r5, r6, r7, r8, r9, sl, pc}
 80002a2:	428b      	cmp	r3, r1
 80002a4:	d909      	bls.n	80002ba <__udivmoddi4+0xbe>
 80002a6:	2e00      	cmp	r6, #0
 80002a8:	f000 80eb 	beq.w	8000482 <__udivmoddi4+0x286>
 80002ac:	2700      	movs	r7, #0
 80002ae:	e9c6 0100 	strd	r0, r1, [r6]
 80002b2:	4638      	mov	r0, r7
 80002b4:	4639      	mov	r1, r7
 80002b6:	e8bd 87f0 	ldmia.w	sp!, {r4, r5, r6, r7, r8, r9, sl, pc}
 80002ba:	fab3 f783 	clz	r7, r3
 80002be:	2f00      	cmp	r7, #0
 80002c0:	d147      	bne.n	8000352 <__udivmoddi4+0x156>
 80002c2:	428b      	cmp	r3, r1
 80002c4:	d302      	bcc.n	80002cc <__udivmoddi4+0xd0>
 80002c6:	4282      	cmp	r2, r0
 80002c8:	f200 80fa 	bhi.w	80004c0 <__udivmoddi4+0x2c4>
 80002cc:	1a84      	subs	r4, r0, r2
 80002ce:	eb61 0303 	sbc.w	r3, r1, r3
 80002d2:	2001      	movs	r0, #1
 80002d4:	4698      	mov	r8, r3
 80002d6:	2e00      	cmp	r6, #0
 80002d8:	d0e0      	beq.n	800029c <__udivmoddi4+0xa0>
 80002da:	e9c6 4800 	strd	r4, r8, [r6]
 80002de:	e7dd      	b.n	800029c <__udivmoddi4+0xa0>
 80002e0:	b902      	cbnz	r2, 80002e4 <__udivmoddi4+0xe8>
 80002e2:	deff      	udf	#255	; 0xff
 80002e4:	fab2 f282 	clz	r2, r2
 80002e8:	2a00      	cmp	r2, #0
 80002ea:	f040 808f 	bne.w	800040c <__udivmoddi4+0x210>
 80002ee:	1b49      	subs	r1, r1, r5
 80002f0:	ea4f 4e15 	mov.w	lr, r5, lsr #16
 80002f4:	fa1f f885 	uxth.w	r8, r5
 80002f8:	2701      	movs	r7, #1
 80002fa:	fbb1 fcfe 	udiv	ip, r1, lr
 80002fe:	0c23      	lsrs	r3, r4, #16
 8000300:	fb0e 111c 	mls	r1, lr, ip, r1
 8000304:	ea43 4301 	orr.w	r3, r3, r1, lsl #16
 8000308:	fb08 f10c 	mul.w	r1, r8, ip
 800030c:	4299      	cmp	r1, r3
 800030e:	d907      	bls.n	8000320 <__udivmoddi4+0x124>
 8000310:	18eb      	adds	r3, r5, r3
 8000312:	f10c 30ff 	add.w	r0, ip, #4294967295	; 0xffffffff
 8000316:	d202      	bcs.n	800031e <__udivmoddi4+0x122>
 8000318:	4299      	cmp	r1, r3
 800031a:	f200 80cd 	bhi.w	80004b8 <__udivmoddi4+0x2bc>
 800031e:	4684      	mov	ip, r0
 8000320:	1a59      	subs	r1, r3, r1
 8000322:	b2a3      	uxth	r3, r4
 8000324:	fbb1 f0fe 	udiv	r0, r1, lr
 8000328:	fb0e 1410 	mls	r4, lr, r0, r1
 800032c:	ea43 4404 	orr.w	r4, r3, r4, lsl #16
 8000330:	fb08 f800 	mul.w	r8, r8, r0
 8000334:	45a0      	cmp	r8, r4
 8000336:	d907      	bls.n	8000348 <__udivmoddi4+0x14c>
 8000338:	192c      	adds	r4, r5, r4
 800033a:	f100 33ff 	add.w	r3, r0, #4294967295	; 0xffffffff
 800033e:	d202      	bcs.n	8000346 <__udivmoddi4+0x14a>
 8000340:	45a0      	cmp	r8, r4
 8000342:	f200 80b6 	bhi.w	80004b2 <__udivmoddi4+0x2b6>
 8000346:	4618      	mov	r0, r3
 8000348:	eba4 0408 	sub.w	r4, r4, r8
 800034c:	ea40 400c 	orr.w	r0, r0, ip, lsl #16
 8000350:	e79f      	b.n	8000292 <__udivmoddi4+0x96>
 8000352:	f1c7 0c20 	rsb	ip, r7, #32
 8000356:	40bb      	lsls	r3, r7
 8000358:	fa22 fe0c 	lsr.w	lr, r2, ip
 800035c:	ea4e 0e03 	orr.w	lr, lr, r3
 8000360:	fa01 f407 	lsl.w	r4, r1, r7
 8000364:	fa20 f50c 	lsr.w	r5, r0, ip
 8000368:	fa21 f30c 	lsr.w	r3, r1, ip
 800036c:	ea4f 481e 	mov.w	r8, lr, lsr #16
 8000370:	4325      	orrs	r5, r4
 8000372:	fbb3 f9f8 	udiv	r9, r3, r8
 8000376:	0c2c      	lsrs	r4, r5, #16
 8000378:	fb08 3319 	mls	r3, r8, r9, r3
 800037c:	fa1f fa8e 	uxth.w	sl, lr
 8000380:	ea44 4303 	orr.w	r3, r4, r3, lsl #16
 8000384:	fb09 f40a 	mul.w	r4, r9, sl
 8000388:	429c      	cmp	r4, r3
 800038a:	fa02 f207 	lsl.w	r2, r2, r7
 800038e:	fa00 f107 	lsl.w	r1, r0, r7
 8000392:	d90b      	bls.n	80003ac <__udivmoddi4+0x1b0>
 8000394:	eb1e 0303 	adds.w	r3, lr, r3
 8000398:	f109 30ff 	add.w	r0, r9, #4294967295	; 0xffffffff
 800039c:	f080 8087 	bcs.w	80004ae <__udivmoddi4+0x2b2>
 80003a0:	429c      	cmp	r4, r3
 80003a2:	f240 8084 	bls.w	80004ae <__udivmoddi4+0x2b2>
 80003a6:	f1a9 0902 	sub.w	r9, r9, #2
 80003aa:	4473      	add	r3, lr
 80003ac:	1b1b      	subs	r3, r3, r4
 80003ae:	b2ad      	uxth	r5, r5
 80003b0:	fbb3 f0f8 	udiv	r0, r3, r8
 80003b4:	fb08 3310 	mls	r3, r8, r0, r3
 80003b8:	ea45 4403 	orr.w	r4, r5, r3, lsl #16
 80003bc:	fb00 fa0a 	mul.w	sl, r0, sl
 80003c0:	45a2      	cmp	sl, r4
 80003c2:	d908      	bls.n	80003d6 <__udivmoddi4+0x1da>
 80003c4:	eb1e 0404 	adds.w	r4, lr, r4
 80003c8:	f100 33ff 	add.w	r3, r0, #4294967295	; 0xffffffff
 80003cc:	d26b      	bcs.n	80004a6 <__udivmoddi4+0x2aa>
 80003ce:	45a2      	cmp	sl, r4
 80003d0:	d969      	bls.n	80004a6 <__udivmoddi4+0x2aa>
 80003d2:	3802      	subs	r0, #2
 80003d4:	4474      	add	r4, lr
 80003d6:	ea40 4009 	orr.w	r0, r0, r9, lsl #16
 80003da:	fba0 8902 	umull	r8, r9, r0, r2
 80003de:	eba4 040a 	sub.w	r4, r4, sl
 80003e2:	454c      	cmp	r4, r9
 80003e4:	46c2      	mov	sl, r8
 80003e6:	464b      	mov	r3, r9
 80003e8:	d354      	bcc.n	8000494 <__udivmoddi4+0x298>
 80003ea:	d051      	beq.n	8000490 <__udivmoddi4+0x294>
 80003ec:	2e00      	cmp	r6, #0
 80003ee:	d069      	beq.n	80004c4 <__udivmoddi4+0x2c8>
 80003f0:	ebb1 050a 	subs.w	r5, r1, sl
 80003f4:	eb64 0403 	sbc.w	r4, r4, r3
 80003f8:	fa04 fc0c 	lsl.w	ip, r4, ip
 80003fc:	40fd      	lsrs	r5, r7
 80003fe:	40fc      	lsrs	r4, r7
 8000400:	ea4c 0505 	orr.w	r5, ip, r5
 8000404:	e9c6 5400 	strd	r5, r4, [r6]
 8000408:	2700      	movs	r7, #0
 800040a:	e747      	b.n	800029c <__udivmoddi4+0xa0>
 800040c:	f1c2 0320 	rsb	r3, r2, #32
 8000410:	fa20 f703 	lsr.w	r7, r0, r3
 8000414:	4095      	lsls	r5, r2
 8000416:	fa01 f002 	lsl.w	r0, r1, r2
 800041a:	fa21 f303 	lsr.w	r3, r1, r3
 800041e:	ea4f 4e15 	mov.w	lr, r5, lsr #16
 8000422:	4338      	orrs	r0, r7
 8000424:	0c01      	lsrs	r1, r0, #16
 8000426:	fbb3 f7fe 	udiv	r7, r3, lr
 800042a:	fa1f f885 	uxth.w	r8, r5
 800042e:	fb0e 3317 	mls	r3, lr, r7, r3
 8000432:	ea41 4103 	orr.w	r1, r1, r3, lsl #16
 8000436:	fb07 f308 	mul.w	r3, r7, r8
 800043a:	428b      	cmp	r3, r1
 800043c:	fa04 f402 	lsl.w	r4, r4, r2
 8000440:	d907      	bls.n	8000452 <__udivmoddi4+0x256>
 8000442:	1869      	adds	r1, r5, r1
 8000444:	f107 3cff 	add.w	ip, r7, #4294967295	; 0xffffffff
 8000448:	d22f      	bcs.n	80004aa <__udivmoddi4+0x2ae>
 800044a:	428b      	cmp	r3, r1
 800044c:	d92d      	bls.n	80004aa <__udivmoddi4+0x2ae>
 800044e:	3f02      	subs	r7, #2
 8000450:	4429      	add	r1, r5
 8000452:	1acb      	subs	r3, r1, r3
 8000454:	b281      	uxth	r1, r0
 8000456:	fbb3 f0fe 	udiv	r0, r3, lr
 800045a:	fb0e 3310 	mls	r3, lr, r0, r3
 800045e:	ea41 4103 	orr.w	r1, r1, r3, lsl #16
 8000462:	fb00 f308 	mul.w	r3, r0, r8
 8000466:	428b      	cmp	r3, r1
 8000468:	d907      	bls.n	800047a <__udivmoddi4+0x27e>
 800046a:	1869      	adds	r1, r5, r1
 800046c:	f100 3cff 	add.w	ip, r0, #4294967295	; 0xffffffff
 8000470:	d217      	bcs.n	80004a2 <__udivmoddi4+0x2a6>
 8000472:	428b      	cmp	r3, r1
 8000474:	d915      	bls.n	80004a2 <__udivmoddi4+0x2a6>
 8000476:	3802      	subs	r0, #2
 8000478:	4429      	add	r1, r5
 800047a:	1ac9      	subs	r1, r1, r3
 800047c:	ea40 4707 	orr.w	r7, r0, r7, lsl #16
 8000480:	e73b      	b.n	80002fa <__udivmoddi4+0xfe>
 8000482:	4637      	mov	r7, r6
 8000484:	4630      	mov	r0, r6
 8000486:	e709      	b.n	800029c <__udivmoddi4+0xa0>
 8000488:	4607      	mov	r7, r0
 800048a:	e6e7      	b.n	800025c <__udivmoddi4+0x60>
 800048c:	4618      	mov	r0, r3
 800048e:	e6fb      	b.n	8000288 <__udivmoddi4+0x8c>
 8000490:	4541      	cmp	r1, r8
 8000492:	d2ab      	bcs.n	80003ec <__udivmoddi4+0x1f0>
 8000494:	ebb8 0a02 	subs.w	sl, r8, r2
 8000498:	eb69 020e 	sbc.w	r2, r9, lr
 800049c:	3801      	subs	r0, #1
 800049e:	4613      	mov	r3, r2
 80004a0:	e7a4      	b.n	80003ec <__udivmoddi4+0x1f0>
 80004a2:	4660      	mov	r0, ip
 80004a4:	e7e9      	b.n	800047a <__udivmoddi4+0x27e>
 80004a6:	4618      	mov	r0, r3
 80004a8:	e795      	b.n	80003d6 <__udivmoddi4+0x1da>
 80004aa:	4667      	mov	r7, ip
 80004ac:	e7d1      	b.n	8000452 <__udivmoddi4+0x256>
 80004ae:	4681      	mov	r9, r0
 80004b0:	e77c      	b.n	80003ac <__udivmoddi4+0x1b0>
 80004b2:	3802      	subs	r0, #2
 80004b4:	442c      	add	r4, r5
 80004b6:	e747      	b.n	8000348 <__udivmoddi4+0x14c>
 80004b8:	f1ac 0c02 	sub.w	ip, ip, #2
 80004bc:	442b      	add	r3, r5
 80004be:	e72f      	b.n	8000320 <__udivmoddi4+0x124>
 80004c0:	4638      	mov	r0, r7
 80004c2:	e708      	b.n	80002d6 <__udivmoddi4+0xda>
 80004c4:	4637      	mov	r7, r6
 80004c6:	e6e9      	b.n	800029c <__udivmoddi4+0xa0>

080004c8 <__aeabi_idiv0>:
 80004c8:	4770      	bx	lr
 80004ca:	bf00      	nop

080004cc <SystemClock_Config>:
 80004cc:	b530      	push	{r4, r5, lr}
 80004ce:	b0a5      	sub	sp, #148	; 0x94
 80004d0:	2244      	movs	r2, #68	; 0x44
 80004d2:	2100      	movs	r1, #0
 80004d4:	a813      	add	r0, sp, #76	; 0x4c
 80004d6:	f002 fe0b 	bl	80030f0 <memset>
 80004da:	2214      	movs	r2, #20
 80004dc:	2100      	movs	r1, #0
 80004de:	a801      	add	r0, sp, #4
 80004e0:	f002 fe06 	bl	80030f0 <memset>
 80004e4:	2234      	movs	r2, #52	; 0x34
 80004e6:	2100      	movs	r1, #0
 80004e8:	a806      	add	r0, sp, #24
 80004ea:	f002 fe01 	bl	80030f0 <memset>
 80004ee:	f44f 7000 	mov.w	r0, #512	; 0x200
 80004f2:	f001 fb41 	bl	8001b78 <HAL_PWREx_ControlVoltageScaling>
 80004f6:	2310      	movs	r3, #16
 80004f8:	2400      	movs	r4, #0
 80004fa:	9313      	str	r3, [sp, #76]	; 0x4c
 80004fc:	2501      	movs	r5, #1
 80004fe:	2370      	movs	r3, #112	; 0x70
 8000500:	a813      	add	r0, sp, #76	; 0x4c
 8000502:	931c      	str	r3, [sp, #112]	; 0x70
 8000504:	e9cd 541a 	strd	r5, r4, [sp, #104]	; 0x68
 8000508:	941e      	str	r4, [sp, #120]	; 0x78
 800050a:	f001 fbfb 	bl	8001d04 <HAL_RCC_OscConfig>
 800050e:	230f      	movs	r3, #15
 8000510:	e9cd 3401 	strd	r3, r4, [sp, #4]
 8000514:	4621      	mov	r1, r4
 8000516:	23b0      	movs	r3, #176	; 0xb0
 8000518:	a801      	add	r0, sp, #4
 800051a:	e9cd 3403 	strd	r3, r4, [sp, #12]
 800051e:	9405      	str	r4, [sp, #20]
 8000520:	f001 fec2 	bl	80022a8 <HAL_RCC_ClockConfig>
 8000524:	f244 0301 	movw	r3, #16385	; 0x4001
 8000528:	a806      	add	r0, sp, #24
 800052a:	e9cd 3506 	strd	r3, r5, [sp, #24]
 800052e:	f001 ff73 	bl	8002418 <HAL_RCCEx_PeriphCLKConfig>
 8000532:	b025      	add	sp, #148	; 0x94
 8000534:	bd30      	pop	{r4, r5, pc}
	...

08000538 <main>:
 8000538:	e92d 4ff0 	stmdb	sp!, {r4, r5, r6, r7, r8, r9, sl, fp, lr}
 800053c:	b08d      	sub	sp, #52	; 0x34
 800053e:	f000 fb65 	bl	8000c0c <HAL_Init>
 8000542:	f7ff ffc3 	bl	80004cc <SystemClock_Config>
 8000546:	2214      	movs	r2, #20
 8000548:	2100      	movs	r1, #0
 800054a:	a806      	add	r0, sp, #24
 800054c:	f002 fdd0 	bl	80030f0 <memset>
 8000550:	4bc0      	ldr	r3, [pc, #768]	; (8000854 <main+0x31c>)
 8000552:	48c1      	ldr	r0, [pc, #772]	; (8000858 <main+0x320>)
 8000554:	6cda      	ldr	r2, [r3, #76]	; 0x4c
 8000556:	4dc1      	ldr	r5, [pc, #772]	; (800085c <main+0x324>)
 8000558:	f042 0202 	orr.w	r2, r2, #2
 800055c:	64da      	str	r2, [r3, #76]	; 0x4c
 800055e:	6cda      	ldr	r2, [r3, #76]	; 0x4c
 8000560:	f002 0202 	and.w	r2, r2, #2
 8000564:	9201      	str	r2, [sp, #4]
 8000566:	9a01      	ldr	r2, [sp, #4]
 8000568:	6cda      	ldr	r2, [r3, #76]	; 0x4c
 800056a:	f042 0201 	orr.w	r2, r2, #1
 800056e:	64da      	str	r2, [r3, #76]	; 0x4c
 8000570:	6cdb      	ldr	r3, [r3, #76]	; 0x4c
 8000572:	f003 0301 	and.w	r3, r3, #1
 8000576:	9302      	str	r3, [sp, #8]
 8000578:	2200      	movs	r2, #0
 800057a:	2108      	movs	r1, #8
 800057c:	9b02      	ldr	r3, [sp, #8]
 800057e:	f001 faed 	bl	8001b5c <HAL_GPIO_WritePin>
 8000582:	4bb7      	ldr	r3, [pc, #732]	; (8000860 <main+0x328>)
 8000584:	2400      	movs	r4, #0
 8000586:	f44f 6200 	mov.w	r2, #2048	; 0x800
 800058a:	a906      	add	r1, sp, #24
 800058c:	f04f 4090 	mov.w	r0, #1207959552	; 0x48000000
 8000590:	e9cd 2306 	strd	r2, r3, [sp, #24]
 8000594:	9408      	str	r4, [sp, #32]
 8000596:	f001 f9ab 	bl	80018f0 <HAL_GPIO_Init>
 800059a:	f44f 4300 	mov.w	r3, #32768	; 0x8000
 800059e:	a906      	add	r1, sp, #24
 80005a0:	f04f 4090 	mov.w	r0, #1207959552	; 0x48000000
 80005a4:	2701      	movs	r7, #1
 80005a6:	e9cd 3406 	strd	r3, r4, [sp, #24]
 80005aa:	f04f 0808 	mov.w	r8, #8
 80005ae:	9408      	str	r4, [sp, #32]
 80005b0:	f001 f99e 	bl	80018f0 <HAL_GPIO_Init>
 80005b4:	a906      	add	r1, sp, #24
 80005b6:	48a8      	ldr	r0, [pc, #672]	; (8000858 <main+0x320>)
 80005b8:	e9cd 8706 	strd	r8, r7, [sp, #24]
 80005bc:	e9cd 4408 	strd	r4, r4, [sp, #32]
 80005c0:	f001 f996 	bl	80018f0 <HAL_GPIO_Init>
 80005c4:	2218      	movs	r2, #24
 80005c6:	eb0d 0002 	add.w	r0, sp, r2
 80005ca:	4621      	mov	r1, r4
 80005cc:	e9cd 4403 	strd	r4, r4, [sp, #12]
 80005d0:	9405      	str	r4, [sp, #20]
 80005d2:	f002 fd8d 	bl	80030f0 <memset>
 80005d6:	4ba3      	ldr	r3, [pc, #652]	; (8000864 <main+0x32c>)
 80005d8:	762f      	strb	r7, [r5, #24]
 80005da:	e9c5 3400 	strd	r3, r4, [r5]
 80005de:	2304      	movs	r3, #4
 80005e0:	616b      	str	r3, [r5, #20]
 80005e2:	f44f 61b0 	mov.w	r1, #1408	; 0x580
 80005e6:	f44f 6380 	mov.w	r3, #1024	; 0x400
 80005ea:	4628      	mov	r0, r5
 80005ec:	e9c5 130a 	strd	r1, r3, [r5, #40]	; 0x28
 80005f0:	61ef      	str	r7, [r5, #28]
 80005f2:	e9c5 4402 	strd	r4, r4, [r5, #8]
 80005f6:	612c      	str	r4, [r5, #16]
 80005f8:	766c      	strb	r4, [r5, #25]
 80005fa:	f885 4020 	strb.w	r4, [r5, #32]
 80005fe:	f885 4030 	strb.w	r4, [r5, #48]	; 0x30
 8000602:	636c      	str	r4, [r5, #52]	; 0x34
 8000604:	f885 4038 	strb.w	r4, [r5, #56]	; 0x38
 8000608:	f000 fb50 	bl	8000cac <HAL_ADC_Init>
 800060c:	a903      	add	r1, sp, #12
 800060e:	4628      	mov	r0, r5
 8000610:	9403      	str	r4, [sp, #12]
 8000612:	f001 f895 	bl	8001740 <HAL_ADCEx_MultiModeConfigChannel>
 8000616:	4894      	ldr	r0, [pc, #592]	; (8000868 <main+0x330>)
 8000618:	9408      	str	r4, [sp, #32]
 800061a:	2306      	movs	r3, #6
 800061c:	e9cd 0306 	strd	r0, r3, [sp, #24]
 8000620:	267f      	movs	r6, #127	; 0x7f
 8000622:	a906      	add	r1, sp, #24
 8000624:	4628      	mov	r0, r5
 8000626:	e9cd 6409 	strd	r6, r4, [sp, #36]	; 0x24
 800062a:	940b      	str	r4, [sp, #44]	; 0x2c
 800062c:	f000 fd3c 	bl	80010a8 <HAL_ADC_ConfigChannel>
 8000630:	4631      	mov	r1, r6
 8000632:	4628      	mov	r0, r5
 8000634:	f001 f832 	bl	800169c <HAL_ADCEx_Calibration_Start>
 8000638:	4d8c      	ldr	r5, [pc, #560]	; (800086c <main+0x334>)
 800063a:	488d      	ldr	r0, [pc, #564]	; (8000870 <main+0x338>)
 800063c:	4e8d      	ldr	r6, [pc, #564]	; (8000874 <main+0x33c>)
 800063e:	6104      	str	r4, [r0, #16]
 8000640:	f44f 33e1 	mov.w	r3, #115200	; 0x1c200
 8000644:	e9c0 5300 	strd	r5, r3, [r0]
 8000648:	230c      	movs	r3, #12
 800064a:	2520      	movs	r5, #32
 800064c:	e9c0 3405 	strd	r3, r4, [r0, #20]
 8000650:	f44f 5300 	mov.w	r3, #8192	; 0x2000
 8000654:	63c3      	str	r3, [r0, #60]	; 0x3c
 8000656:	6245      	str	r5, [r0, #36]	; 0x24
 8000658:	e9c0 4402 	strd	r4, r4, [r0, #8]
 800065c:	e9c0 4407 	strd	r4, r4, [r0, #28]
 8000660:	f002 fcf4 	bl	800304c <HAL_UART_Init>
 8000664:	2210      	movs	r2, #16
 8000666:	4621      	mov	r1, r4
 8000668:	a806      	add	r0, sp, #24
 800066a:	f002 fd41 	bl	80030f0 <memset>
 800066e:	4b82      	ldr	r3, [pc, #520]	; (8000878 <main+0x340>)
 8000670:	9405      	str	r4, [sp, #20]
 8000672:	e9c6 3400 	strd	r3, r4, [r6]
 8000676:	2364      	movs	r3, #100	; 0x64
 8000678:	e9c6 3403 	strd	r3, r4, [r6, #12]
 800067c:	4630      	mov	r0, r6
 800067e:	2380      	movs	r3, #128	; 0x80
 8000680:	61b3      	str	r3, [r6, #24]
 8000682:	e9cd 4403 	strd	r4, r4, [sp, #12]
 8000686:	60b4      	str	r4, [r6, #8]
 8000688:	6174      	str	r4, [r6, #20]
 800068a:	f002 f8eb 	bl	8002864 <HAL_TIM_Base_Init>
 800068e:	f44f 5380 	mov.w	r3, #4096	; 0x1000
 8000692:	a906      	add	r1, sp, #24
 8000694:	4630      	mov	r0, r6
 8000696:	9306      	str	r3, [sp, #24]
 8000698:	f002 f94c 	bl	8002934 <HAL_TIM_ConfigClockSource>
 800069c:	4641      	mov	r1, r8
 800069e:	4630      	mov	r0, r6
 80006a0:	f002 f910 	bl	80028c4 <HAL_TIM_OnePulse_Init>
 80006a4:	a903      	add	r1, sp, #12
 80006a6:	4630      	mov	r0, r6
 80006a8:	9503      	str	r5, [sp, #12]
 80006aa:	9405      	str	r4, [sp, #20]
 80006ac:	f002 f9d6 	bl	8002a5c <HAL_TIMEx_MasterConfigSynchronization>
 80006b0:	4b72      	ldr	r3, [pc, #456]	; (800087c <main+0x344>)
 80006b2:	4d73      	ldr	r5, [pc, #460]	; (8000880 <main+0x348>)
 80006b4:	881a      	ldrh	r2, [r3, #0]
 80006b6:	789b      	ldrb	r3, [r3, #2]
 80006b8:	f8ad 200c 	strh.w	r2, [sp, #12]
 80006bc:	f88d 300e 	strb.w	r3, [sp, #14]
 80006c0:	f000 fac0 	bl	8000c44 <HAL_GetTick>
 80006c4:	1b03      	subs	r3, r0, r4
 80006c6:	bf18      	it	ne
 80006c8:	2301      	movne	r3, #1
 80006ca:	702b      	strb	r3, [r5, #0]
 80006cc:	4b6d      	ldr	r3, [pc, #436]	; (8000884 <main+0x34c>)
 80006ce:	463a      	mov	r2, r7
 80006d0:	4641      	mov	r1, r8
 80006d2:	4683      	mov	fp, r0
 80006d4:	4860      	ldr	r0, [pc, #384]	; (8000858 <main+0x320>)
 80006d6:	601c      	str	r4, [r3, #0]
 80006d8:	f001 fa40 	bl	8001b5c <HAL_GPIO_WritePin>
 80006dc:	6833      	ldr	r3, [r6, #0]
 80006de:	f8df 81bc 	ldr.w	r8, [pc, #444]	; 800089c <main+0x364>
 80006e2:	f06f 0201 	mvn.w	r2, #1
 80006e6:	611a      	str	r2, [r3, #16]
 80006e8:	4630      	mov	r0, r6
 80006ea:	f001 ff89 	bl	8002600 <HAL_TIM_Base_Start_IT>
 80006ee:	465f      	mov	r7, fp
 80006f0:	4b65      	ldr	r3, [pc, #404]	; (8000888 <main+0x350>)
 80006f2:	781b      	ldrb	r3, [r3, #0]
 80006f4:	b17b      	cbz	r3, 8000716 <main+0x1de>
 80006f6:	f000 faa5 	bl	8000c44 <HAL_GetTick>
 80006fa:	eba0 000b 	sub.w	r0, r0, fp
 80006fe:	f5b0 6ffa 	cmp.w	r0, #2000	; 0x7d0
 8000702:	d908      	bls.n	8000716 <main+0x1de>
 8000704:	4a60      	ldr	r2, [pc, #384]	; (8000888 <main+0x350>)
 8000706:	4855      	ldr	r0, [pc, #340]	; (800085c <main+0x324>)
 8000708:	2300      	movs	r3, #0
 800070a:	7013      	strb	r3, [r2, #0]
 800070c:	f000 fee4 	bl	80014d8 <HAL_ADC_Start_IT>
 8000710:	f000 fa98 	bl	8000c44 <HAL_GetTick>
 8000714:	4607      	mov	r7, r0
 8000716:	f44f 4100 	mov.w	r1, #32768	; 0x8000
 800071a:	f04f 4090 	mov.w	r0, #1207959552	; 0x48000000
 800071e:	f001 fa17 	bl	8001b50 <HAL_GPIO_ReadPin>
 8000722:	2801      	cmp	r0, #1
 8000724:	f040 80bc 	bne.w	80008a0 <main+0x368>
 8000728:	4c58      	ldr	r4, [pc, #352]	; (800088c <main+0x354>)
 800072a:	7823      	ldrb	r3, [r4, #0]
 800072c:	b123      	cbz	r3, 8000738 <main+0x200>
 800072e:	4850      	ldr	r0, [pc, #320]	; (8000870 <main+0x338>)
 8000730:	f002 fc8c 	bl	800304c <HAL_UART_Init>
 8000734:	2300      	movs	r3, #0
 8000736:	7023      	strb	r3, [r4, #0]
 8000738:	230a      	movs	r3, #10
 800073a:	2201      	movs	r2, #1
 800073c:	a906      	add	r1, sp, #24
 800073e:	484c      	ldr	r0, [pc, #304]	; (8000870 <main+0x338>)
 8000740:	4e53      	ldr	r6, [pc, #332]	; (8000890 <main+0x358>)
 8000742:	f002 fbe1 	bl	8002f08 <HAL_UART_Receive>
 8000746:	b980      	cbnz	r0, 800076a <main+0x232>
 8000748:	f89d 3018 	ldrb.w	r3, [sp, #24]
 800074c:	2b43      	cmp	r3, #67	; 0x43
 800074e:	d10c      	bne.n	800076a <main+0x232>
 8000750:	4604      	mov	r4, r0
 8000752:	f640 0302 	movw	r3, #2050	; 0x802
 8000756:	f826 4010 	strh.w	r4, [r6, r0, lsl #1]
 800075a:	3001      	adds	r0, #1
 800075c:	4298      	cmp	r0, r3
 800075e:	d1fa      	bne.n	8000756 <main+0x21e>
 8000760:	f000 fa70 	bl	8000c44 <HAL_GetTick>
 8000764:	4b4b      	ldr	r3, [pc, #300]	; (8000894 <main+0x35c>)
 8000766:	4607      	mov	r7, r0
 8000768:	601c      	str	r4, [r3, #0]
 800076a:	f44f 737a 	mov.w	r3, #1000	; 0x3e8
 800076e:	2203      	movs	r2, #3
 8000770:	a903      	add	r1, sp, #12
 8000772:	483f      	ldr	r0, [pc, #252]	; (8000870 <main+0x338>)
 8000774:	f002 fb70 	bl	8002e58 <HAL_UART_Transmit>
 8000778:	f000 fa64 	bl	8000c44 <HAL_GetTick>
 800077c:	f44f 747a 	mov.w	r4, #1000	; 0x3e8
 8000780:	1bc0      	subs	r0, r0, r7
 8000782:	fbb0 f0f4 	udiv	r0, r0, r4
 8000786:	8030      	strh	r0, [r6, #0]
 8000788:	f000 fa5c 	bl	8000c44 <HAL_GetTick>
 800078c:	4b41      	ldr	r3, [pc, #260]	; (8000894 <main+0x35c>)
 800078e:	681b      	ldr	r3, [r3, #0]
 8000790:	80b3      	strh	r3, [r6, #4]
 8000792:	1bc0      	subs	r0, r0, r7
 8000794:	fbb0 f0f4 	udiv	r0, r0, r4
 8000798:	0c00      	lsrs	r0, r0, #16
 800079a:	8070      	strh	r0, [r6, #2]
 800079c:	0c1b      	lsrs	r3, r3, #16
 800079e:	2400      	movs	r4, #0
 80007a0:	2014      	movs	r0, #20
 80007a2:	80f3      	strh	r3, [r6, #6]
 80007a4:	f8a8 4000 	strh.w	r4, [r8]
 80007a8:	f000 fa52 	bl	8000c50 <HAL_Delay>
 80007ac:	46a2      	mov	sl, r4
 80007ae:	f836 3014 	ldrh.w	r3, [r6, r4, lsl #1]
 80007b2:	f88d 3002 	strb.w	r3, [sp, #2]
 80007b6:	f10d 0930 	add.w	r9, sp, #48	; 0x30
 80007ba:	0a1a      	lsrs	r2, r3, #8
 80007bc:	f809 2d2d 	strb.w	r2, [r9, #-45]!
 80007c0:	fa52 f383 	uxtab	r3, r2, r3
 80007c4:	f8b8 2000 	ldrh.w	r2, [r8]
 80007c8:	4829      	ldr	r0, [pc, #164]	; (8000870 <main+0x338>)
 80007ca:	4413      	add	r3, r2
 80007cc:	f8a8 3000 	strh.w	r3, [r8]
 80007d0:	2201      	movs	r2, #1
 80007d2:	f44f 737a 	mov.w	r3, #1000	; 0x3e8
 80007d6:	4649      	mov	r1, r9
 80007d8:	f002 fb3e 	bl	8002e58 <HAL_UART_Transmit>
 80007dc:	f44f 737a 	mov.w	r3, #1000	; 0x3e8
 80007e0:	2201      	movs	r2, #1
 80007e2:	f10d 0102 	add.w	r1, sp, #2
 80007e6:	4822      	ldr	r0, [pc, #136]	; (8000870 <main+0x338>)
 80007e8:	f002 fb36 	bl	8002e58 <HAL_UART_Transmit>
 80007ec:	f1ba 0f08 	cmp.w	sl, #8
 80007f0:	dc29      	bgt.n	8000846 <main+0x30e>
 80007f2:	f10a 0a01 	add.w	sl, sl, #1
 80007f6:	3401      	adds	r4, #1
 80007f8:	f5b4 6f82 	cmp.w	r4, #1040	; 0x410
 80007fc:	d1d7      	bne.n	80007ae <main+0x276>
 80007fe:	2014      	movs	r0, #20
 8000800:	f000 fa26 	bl	8000c50 <HAL_Delay>
 8000804:	f8b8 3000 	ldrh.w	r3, [r8]
 8000808:	f88d 3002 	strb.w	r3, [sp, #2]
 800080c:	0a1b      	lsrs	r3, r3, #8
 800080e:	f88d 3003 	strb.w	r3, [sp, #3]
 8000812:	2201      	movs	r2, #1
 8000814:	f44f 737a 	mov.w	r3, #1000	; 0x3e8
 8000818:	4649      	mov	r1, r9
 800081a:	4815      	ldr	r0, [pc, #84]	; (8000870 <main+0x338>)
 800081c:	f002 fb1c 	bl	8002e58 <HAL_UART_Transmit>
 8000820:	f44f 737a 	mov.w	r3, #1000	; 0x3e8
 8000824:	2201      	movs	r2, #1
 8000826:	f10d 0102 	add.w	r1, sp, #2
 800082a:	4811      	ldr	r0, [pc, #68]	; (8000870 <main+0x338>)
 800082c:	f002 fb14 	bl	8002e58 <HAL_UART_Transmit>
 8000830:	f000 fa08 	bl	8000c44 <HAL_GetTick>
 8000834:	4b18      	ldr	r3, [pc, #96]	; (8000898 <main+0x360>)
 8000836:	6018      	str	r0, [r3, #0]
 8000838:	2301      	movs	r3, #1
 800083a:	702b      	strb	r3, [r5, #0]
 800083c:	f44f 70fa 	mov.w	r0, #500	; 0x1f4
 8000840:	f000 fa06 	bl	8000c50 <HAL_Delay>
 8000844:	e754      	b.n	80006f0 <main+0x1b8>
 8000846:	2014      	movs	r0, #20
 8000848:	f000 fa02 	bl	8000c50 <HAL_Delay>
 800084c:	f04f 0a00 	mov.w	sl, #0
 8000850:	e7d1      	b.n	80007f6 <main+0x2be>
 8000852:	bf00      	nop
 8000854:	40021000 	.word	0x40021000
 8000858:	48000400 	.word	0x48000400
 800085c:	200010a0 	.word	0x200010a0
 8000860:	10120000 	.word	0x10120000
 8000864:	50040000 	.word	0x50040000
 8000868:	43210000 	.word	0x43210000
 800086c:	40013800 	.word	0x40013800
 8000870:	20001104 	.word	0x20001104
 8000874:	2000103c 	.word	0x2000103c
 8000878:	40014000 	.word	0x40014000
 800087c:	08003118 	.word	0x08003118
 8000880:	20000002 	.word	0x20000002
 8000884:	20000034 	.word	0x20000034
 8000888:	20000000 	.word	0x20000000
 800088c:	20000001 	.word	0x20000001
 8000890:	20000038 	.word	0x20000038
 8000894:	20000030 	.word	0x20000030
 8000898:	2000109c 	.word	0x2000109c
 800089c:	20001184 	.word	0x20001184
 80008a0:	782b      	ldrb	r3, [r5, #0]
 80008a2:	2b00      	cmp	r3, #0
 80008a4:	d0ca      	beq.n	800083c <main+0x304>
 80008a6:	f000 f9cd 	bl	8000c44 <HAL_GetTick>
 80008aa:	4b14      	ldr	r3, [pc, #80]	; (80008fc <main+0x3c4>)
 80008ac:	681b      	ldr	r3, [r3, #0]
 80008ae:	1ac0      	subs	r0, r0, r3
 80008b0:	f5b0 7f7a 	cmp.w	r0, #1000	; 0x3e8
 80008b4:	d9c2      	bls.n	800083c <main+0x304>
 80008b6:	2300      	movs	r3, #0
 80008b8:	2209      	movs	r2, #9
 80008ba:	4911      	ldr	r1, [pc, #68]	; (8000900 <main+0x3c8>)
 80008bc:	702b      	strb	r3, [r5, #0]
 80008be:	4811      	ldr	r0, [pc, #68]	; (8000904 <main+0x3cc>)
 80008c0:	f44f 737a 	mov.w	r3, #1000	; 0x3e8
 80008c4:	f002 fac8 	bl	8002e58 <HAL_UART_Transmit>
 80008c8:	20c8      	movs	r0, #200	; 0xc8
 80008ca:	f000 f9c1 	bl	8000c50 <HAL_Delay>
 80008ce:	f44f 737a 	mov.w	r3, #1000	; 0x3e8
 80008d2:	220a      	movs	r2, #10
 80008d4:	490c      	ldr	r1, [pc, #48]	; (8000908 <main+0x3d0>)
 80008d6:	480b      	ldr	r0, [pc, #44]	; (8000904 <main+0x3cc>)
 80008d8:	f002 fabe 	bl	8002e58 <HAL_UART_Transmit>
 80008dc:	2201      	movs	r2, #1
 80008de:	2108      	movs	r1, #8
 80008e0:	480a      	ldr	r0, [pc, #40]	; (800090c <main+0x3d4>)
 80008e2:	f001 f93b 	bl	8001b5c <HAL_GPIO_WritePin>
 80008e6:	480a      	ldr	r0, [pc, #40]	; (8000910 <main+0x3d8>)
 80008e8:	f001 fe8a 	bl	8002600 <HAL_TIM_Base_Start_IT>
 80008ec:	4805      	ldr	r0, [pc, #20]	; (8000904 <main+0x3cc>)
 80008ee:	f002 f8ec 	bl	8002aca <HAL_UART_DeInit>
 80008f2:	4b08      	ldr	r3, [pc, #32]	; (8000914 <main+0x3dc>)
 80008f4:	2201      	movs	r2, #1
 80008f6:	701a      	strb	r2, [r3, #0]
 80008f8:	e7a0      	b.n	800083c <main+0x304>
 80008fa:	bf00      	nop
 80008fc:	2000109c 	.word	0x2000109c
 8000900:	0800311b 	.word	0x0800311b
 8000904:	20001104 	.word	0x20001104
 8000908:	08003125 	.word	0x08003125
 800090c:	48000400 	.word	0x48000400
 8000910:	2000103c 	.word	0x2000103c
 8000914:	20000001 	.word	0x20000001

08000918 <HAL_MspInit>:
 8000918:	4b0a      	ldr	r3, [pc, #40]	; (8000944 <HAL_MspInit+0x2c>)
 800091a:	6e1a      	ldr	r2, [r3, #96]	; 0x60
 800091c:	f042 0201 	orr.w	r2, r2, #1
 8000920:	661a      	str	r2, [r3, #96]	; 0x60
 8000922:	6e1a      	ldr	r2, [r3, #96]	; 0x60
 8000924:	b082      	sub	sp, #8
 8000926:	f002 0201 	and.w	r2, r2, #1
 800092a:	9200      	str	r2, [sp, #0]
 800092c:	9a00      	ldr	r2, [sp, #0]
 800092e:	6d9a      	ldr	r2, [r3, #88]	; 0x58
 8000930:	f042 5280 	orr.w	r2, r2, #268435456	; 0x10000000
 8000934:	659a      	str	r2, [r3, #88]	; 0x58
 8000936:	6d9b      	ldr	r3, [r3, #88]	; 0x58
 8000938:	f003 5380 	and.w	r3, r3, #268435456	; 0x10000000
 800093c:	9301      	str	r3, [sp, #4]
 800093e:	9b01      	ldr	r3, [sp, #4]
 8000940:	b002      	add	sp, #8
 8000942:	4770      	bx	lr
 8000944:	40021000 	.word	0x40021000

08000948 <HAL_ADC_MspInit>:
 8000948:	b510      	push	{r4, lr}
 800094a:	4604      	mov	r4, r0
 800094c:	b088      	sub	sp, #32
 800094e:	2214      	movs	r2, #20
 8000950:	2100      	movs	r1, #0
 8000952:	a803      	add	r0, sp, #12
 8000954:	f002 fbcc 	bl	80030f0 <memset>
 8000958:	6822      	ldr	r2, [r4, #0]
 800095a:	4b15      	ldr	r3, [pc, #84]	; (80009b0 <HAL_ADC_MspInit+0x68>)
 800095c:	429a      	cmp	r2, r3
 800095e:	d125      	bne.n	80009ac <HAL_ADC_MspInit+0x64>
 8000960:	f103 4370 	add.w	r3, r3, #4026531840	; 0xf0000000
 8000964:	f5a3 33f8 	sub.w	r3, r3, #126976	; 0x1f000
 8000968:	a903      	add	r1, sp, #12
 800096a:	6cda      	ldr	r2, [r3, #76]	; 0x4c
 800096c:	4811      	ldr	r0, [pc, #68]	; (80009b4 <HAL_ADC_MspInit+0x6c>)
 800096e:	f442 5200 	orr.w	r2, r2, #8192	; 0x2000
 8000972:	64da      	str	r2, [r3, #76]	; 0x4c
 8000974:	6cda      	ldr	r2, [r3, #76]	; 0x4c
 8000976:	f402 5200 	and.w	r2, r2, #8192	; 0x2000
 800097a:	9201      	str	r2, [sp, #4]
 800097c:	9a01      	ldr	r2, [sp, #4]
 800097e:	6cda      	ldr	r2, [r3, #76]	; 0x4c
 8000980:	f042 0202 	orr.w	r2, r2, #2
 8000984:	64da      	str	r2, [r3, #76]	; 0x4c
 8000986:	6cdb      	ldr	r3, [r3, #76]	; 0x4c
 8000988:	f003 0302 	and.w	r3, r3, #2
 800098c:	9302      	str	r3, [sp, #8]
 800098e:	2202      	movs	r2, #2
 8000990:	9b02      	ldr	r3, [sp, #8]
 8000992:	230b      	movs	r3, #11
 8000994:	e9cd 2303 	strd	r2, r3, [sp, #12]
 8000998:	f000 ffaa 	bl	80018f0 <HAL_GPIO_Init>
 800099c:	2200      	movs	r2, #0
 800099e:	2012      	movs	r0, #18
 80009a0:	4611      	mov	r1, r2
 80009a2:	f000 ff4d 	bl	8001840 <HAL_NVIC_SetPriority>
 80009a6:	2012      	movs	r0, #18
 80009a8:	f000 ff7e 	bl	80018a8 <HAL_NVIC_EnableIRQ>
 80009ac:	b008      	add	sp, #32
 80009ae:	bd10      	pop	{r4, pc}
 80009b0:	50040000 	.word	0x50040000
 80009b4:	48000400 	.word	0x48000400

080009b8 <HAL_TIM_Base_MspInit>:
 80009b8:	b507      	push	{r0, r1, r2, lr}
 80009ba:	4b0e      	ldr	r3, [pc, #56]	; (80009f4 <HAL_TIM_Base_MspInit+0x3c>)
 80009bc:	6802      	ldr	r2, [r0, #0]
 80009be:	429a      	cmp	r2, r3
 80009c0:	d115      	bne.n	80009ee <HAL_TIM_Base_MspInit+0x36>
 80009c2:	f503 4350 	add.w	r3, r3, #53248	; 0xd000
 80009c6:	2018      	movs	r0, #24
 80009c8:	6e1a      	ldr	r2, [r3, #96]	; 0x60
 80009ca:	f442 3280 	orr.w	r2, r2, #65536	; 0x10000
 80009ce:	661a      	str	r2, [r3, #96]	; 0x60
 80009d0:	6e1b      	ldr	r3, [r3, #96]	; 0x60
 80009d2:	2200      	movs	r2, #0
 80009d4:	f403 3380 	and.w	r3, r3, #65536	; 0x10000
 80009d8:	9301      	str	r3, [sp, #4]
 80009da:	4611      	mov	r1, r2
 80009dc:	9b01      	ldr	r3, [sp, #4]
 80009de:	f000 ff2f 	bl	8001840 <HAL_NVIC_SetPriority>
 80009e2:	2018      	movs	r0, #24
 80009e4:	b003      	add	sp, #12
 80009e6:	f85d eb04 	ldr.w	lr, [sp], #4
 80009ea:	f000 bf5d 	b.w	80018a8 <HAL_NVIC_EnableIRQ>
 80009ee:	b003      	add	sp, #12
 80009f0:	f85d fb04 	ldr.w	pc, [sp], #4
 80009f4:	40014000 	.word	0x40014000

080009f8 <HAL_UART_MspInit>:
 80009f8:	b510      	push	{r4, lr}
 80009fa:	4604      	mov	r4, r0
 80009fc:	b088      	sub	sp, #32
 80009fe:	2214      	movs	r2, #20
 8000a00:	2100      	movs	r1, #0
 8000a02:	a803      	add	r0, sp, #12
 8000a04:	f002 fb74 	bl	80030f0 <memset>
 8000a08:	6822      	ldr	r2, [r4, #0]
 8000a0a:	4b13      	ldr	r3, [pc, #76]	; (8000a58 <HAL_UART_MspInit+0x60>)
 8000a0c:	429a      	cmp	r2, r3
 8000a0e:	d121      	bne.n	8000a54 <HAL_UART_MspInit+0x5c>
 8000a10:	f503 4358 	add.w	r3, r3, #55296	; 0xd800
 8000a14:	2103      	movs	r1, #3
 8000a16:	6e1a      	ldr	r2, [r3, #96]	; 0x60
 8000a18:	f442 4280 	orr.w	r2, r2, #16384	; 0x4000
 8000a1c:	661a      	str	r2, [r3, #96]	; 0x60
 8000a1e:	6e1a      	ldr	r2, [r3, #96]	; 0x60
 8000a20:	f402 4280 	and.w	r2, r2, #16384	; 0x4000
 8000a24:	9201      	str	r2, [sp, #4]
 8000a26:	9a01      	ldr	r2, [sp, #4]
 8000a28:	6cda      	ldr	r2, [r3, #76]	; 0x4c
 8000a2a:	f042 0201 	orr.w	r2, r2, #1
 8000a2e:	64da      	str	r2, [r3, #76]	; 0x4c
 8000a30:	6cdb      	ldr	r3, [r3, #76]	; 0x4c
 8000a32:	f003 0301 	and.w	r3, r3, #1
 8000a36:	9302      	str	r3, [sp, #8]
 8000a38:	9b02      	ldr	r3, [sp, #8]
 8000a3a:	f44f 62c0 	mov.w	r2, #1536	; 0x600
 8000a3e:	2302      	movs	r3, #2
 8000a40:	e9cd 2303 	strd	r2, r3, [sp, #12]
 8000a44:	2307      	movs	r3, #7
 8000a46:	e9cd 1306 	strd	r1, r3, [sp, #24]
 8000a4a:	f04f 4090 	mov.w	r0, #1207959552	; 0x48000000
 8000a4e:	a903      	add	r1, sp, #12
 8000a50:	f000 ff4e 	bl	80018f0 <HAL_GPIO_Init>
 8000a54:	b008      	add	sp, #32
 8000a56:	bd10      	pop	{r4, pc}
 8000a58:	40013800 	.word	0x40013800

08000a5c <HAL_UART_MspDeInit>:
 8000a5c:	6802      	ldr	r2, [r0, #0]
 8000a5e:	4b07      	ldr	r3, [pc, #28]	; (8000a7c <HAL_UART_MspDeInit+0x20>)
 8000a60:	429a      	cmp	r2, r3
 8000a62:	d10a      	bne.n	8000a7a <HAL_UART_MspDeInit+0x1e>
 8000a64:	4a06      	ldr	r2, [pc, #24]	; (8000a80 <HAL_UART_MspDeInit+0x24>)
 8000a66:	6e13      	ldr	r3, [r2, #96]	; 0x60
 8000a68:	f423 4380 	bic.w	r3, r3, #16384	; 0x4000
 8000a6c:	6613      	str	r3, [r2, #96]	; 0x60
 8000a6e:	f44f 61c0 	mov.w	r1, #1536	; 0x600
 8000a72:	f04f 4090 	mov.w	r0, #1207959552	; 0x48000000
 8000a76:	f000 bffb 	b.w	8001a70 <HAL_GPIO_DeInit>
 8000a7a:	4770      	bx	lr
 8000a7c:	40013800 	.word	0x40013800
 8000a80:	40021000 	.word	0x40021000

08000a84 <NMI_Handler>:
 8000a84:	4770      	bx	lr

08000a86 <HardFault_Handler>:
 8000a86:	e7fe      	b.n	8000a86 <HardFault_Handler>

08000a88 <MemManage_Handler>:
 8000a88:	e7fe      	b.n	8000a88 <MemManage_Handler>

08000a8a <BusFault_Handler>:
 8000a8a:	e7fe      	b.n	8000a8a <BusFault_Handler>

08000a8c <UsageFault_Handler>:
 8000a8c:	e7fe      	b.n	8000a8c <UsageFault_Handler>

08000a8e <SVC_Handler>:
 8000a8e:	4770      	bx	lr

08000a90 <DebugMon_Handler>:
 8000a90:	4770      	bx	lr

08000a92 <PendSV_Handler>:
 8000a92:	4770      	bx	lr

08000a94 <SysTick_Handler>:
 8000a94:	f000 b8ca 	b.w	8000c2c <HAL_IncTick>

08000a98 <ADC1_2_IRQHandler>:
 8000a98:	4813      	ldr	r0, [pc, #76]	; (8000ae8 <ADC1_2_IRQHandler+0x50>)
 8000a9a:	b508      	push	{r3, lr}
 8000a9c:	6803      	ldr	r3, [r0, #0]
 8000a9e:	681b      	ldr	r3, [r3, #0]
 8000aa0:	075b      	lsls	r3, r3, #29
 8000aa2:	d505      	bpl.n	8000ab0 <ADC1_2_IRQHandler+0x18>
 8000aa4:	f000 f9d8 	bl	8000e58 <HAL_ADC_GetValue>
 8000aa8:	b280      	uxth	r0, r0
 8000aaa:	4b10      	ldr	r3, [pc, #64]	; (8000aec <ADC1_2_IRQHandler+0x54>)
 8000aac:	b928      	cbnz	r0, 8000aba <ADC1_2_IRQHandler+0x22>
 8000aae:	8018      	strh	r0, [r3, #0]
 8000ab0:	480d      	ldr	r0, [pc, #52]	; (8000ae8 <ADC1_2_IRQHandler+0x50>)
 8000ab2:	e8bd 4008 	ldmia.w	sp!, {r3, lr}
 8000ab6:	f000 b9d5 	b.w	8000e64 <HAL_ADC_IRQHandler>
 8000aba:	f3c0 0089 	ubfx	r0, r0, #2, #10
 8000abe:	3004      	adds	r0, #4
 8000ac0:	4a0b      	ldr	r2, [pc, #44]	; (8000af0 <ADC1_2_IRQHandler+0x58>)
 8000ac2:	8018      	strh	r0, [r3, #0]
 8000ac4:	f832 3010 	ldrh.w	r3, [r2, r0, lsl #1]
 8000ac8:	f64f 71ff 	movw	r1, #65535	; 0xffff
 8000acc:	428b      	cmp	r3, r1
 8000ace:	bf1c      	itt	ne
 8000ad0:	3301      	addne	r3, #1
 8000ad2:	f822 3010 	strhne.w	r3, [r2, r0, lsl #1]
 8000ad6:	4a07      	ldr	r2, [pc, #28]	; (8000af4 <ADC1_2_IRQHandler+0x5c>)
 8000ad8:	6813      	ldr	r3, [r2, #0]
 8000ada:	3301      	adds	r3, #1
 8000adc:	6013      	str	r3, [r2, #0]
 8000ade:	4a06      	ldr	r2, [pc, #24]	; (8000af8 <ADC1_2_IRQHandler+0x60>)
 8000ae0:	6813      	ldr	r3, [r2, #0]
 8000ae2:	3301      	adds	r3, #1
 8000ae4:	6013      	str	r3, [r2, #0]
 8000ae6:	e7e3      	b.n	8000ab0 <ADC1_2_IRQHandler+0x18>
 8000ae8:	200010a0 	.word	0x200010a0
 8000aec:	2000002c 	.word	0x2000002c
 8000af0:	20000038 	.word	0x20000038
 8000af4:	20000034 	.word	0x20000034
 8000af8:	20000030 	.word	0x20000030

08000afc <TIM1_BRK_TIM15_IRQHandler>:
 8000afc:	b510      	push	{r4, lr}
 8000afe:	4c07      	ldr	r4, [pc, #28]	; (8000b1c <TIM1_BRK_TIM15_IRQHandler+0x20>)
 8000b00:	4807      	ldr	r0, [pc, #28]	; (8000b20 <TIM1_BRK_TIM15_IRQHandler+0x24>)
 8000b02:	2200      	movs	r2, #0
 8000b04:	2108      	movs	r1, #8
 8000b06:	f001 f829 	bl	8001b5c <HAL_GPIO_WritePin>
 8000b0a:	4620      	mov	r0, r4
 8000b0c:	f001 fdc0 	bl	8002690 <HAL_TIM_IRQHandler>
 8000b10:	4620      	mov	r0, r4
 8000b12:	e8bd 4010 	ldmia.w	sp!, {r4, lr}
 8000b16:	f001 bd9d 	b.w	8002654 <HAL_TIM_Base_Stop_IT>
 8000b1a:	bf00      	nop
 8000b1c:	2000103c 	.word	0x2000103c
 8000b20:	48000400 	.word	0x48000400

08000b24 <SystemInit>:
 8000b24:	490f      	ldr	r1, [pc, #60]	; (8000b64 <SystemInit+0x40>)
 8000b26:	f8d1 3088 	ldr.w	r3, [r1, #136]	; 0x88
 8000b2a:	f443 0370 	orr.w	r3, r3, #15728640	; 0xf00000
 8000b2e:	f8c1 3088 	str.w	r3, [r1, #136]	; 0x88
 8000b32:	4b0d      	ldr	r3, [pc, #52]	; (8000b68 <SystemInit+0x44>)
 8000b34:	681a      	ldr	r2, [r3, #0]
 8000b36:	2000      	movs	r0, #0
 8000b38:	f042 0201 	orr.w	r2, r2, #1
 8000b3c:	601a      	str	r2, [r3, #0]
 8000b3e:	6098      	str	r0, [r3, #8]
 8000b40:	681a      	ldr	r2, [r3, #0]
 8000b42:	f022 52a8 	bic.w	r2, r2, #352321536	; 0x15000000
 8000b46:	f422 2210 	bic.w	r2, r2, #589824	; 0x90000
 8000b4a:	601a      	str	r2, [r3, #0]
 8000b4c:	f44f 5280 	mov.w	r2, #4096	; 0x1000
 8000b50:	60da      	str	r2, [r3, #12]
 8000b52:	681a      	ldr	r2, [r3, #0]
 8000b54:	f422 2280 	bic.w	r2, r2, #262144	; 0x40000
 8000b58:	601a      	str	r2, [r3, #0]
 8000b5a:	6198      	str	r0, [r3, #24]
 8000b5c:	f04f 6300 	mov.w	r3, #134217728	; 0x8000000
 8000b60:	608b      	str	r3, [r1, #8]
 8000b62:	4770      	bx	lr
 8000b64:	e000ed00 	.word	0xe000ed00
 8000b68:	40021000 	.word	0x40021000

08000b6c <Reset_Handler>:
 8000b6c:	f8df d034 	ldr.w	sp, [pc, #52]	; 8000ba4 <LoopForever+0x2>
 8000b70:	f7ff ffd8 	bl	8000b24 <SystemInit>
 8000b74:	2100      	movs	r1, #0
 8000b76:	e003      	b.n	8000b80 <LoopCopyDataInit>

08000b78 <CopyDataInit>:
 8000b78:	4b0b      	ldr	r3, [pc, #44]	; (8000ba8 <LoopForever+0x6>)
 8000b7a:	585b      	ldr	r3, [r3, r1]
 8000b7c:	5043      	str	r3, [r0, r1]
 8000b7e:	3104      	adds	r1, #4

08000b80 <LoopCopyDataInit>:
 8000b80:	480a      	ldr	r0, [pc, #40]	; (8000bac <LoopForever+0xa>)
 8000b82:	4b0b      	ldr	r3, [pc, #44]	; (8000bb0 <LoopForever+0xe>)
 8000b84:	1842      	adds	r2, r0, r1
 8000b86:	429a      	cmp	r2, r3
 8000b88:	d3f6      	bcc.n	8000b78 <CopyDataInit>
 8000b8a:	4a0a      	ldr	r2, [pc, #40]	; (8000bb4 <LoopForever+0x12>)
 8000b8c:	e002      	b.n	8000b94 <LoopFillZerobss>

08000b8e <FillZerobss>:
 8000b8e:	2300      	movs	r3, #0
 8000b90:	f842 3b04 	str.w	r3, [r2], #4

08000b94 <LoopFillZerobss>:
 8000b94:	4b08      	ldr	r3, [pc, #32]	; (8000bb8 <LoopForever+0x16>)
 8000b96:	429a      	cmp	r2, r3
 8000b98:	d3f9      	bcc.n	8000b8e <FillZerobss>
 8000b9a:	f002 fa85 	bl	80030a8 <__libc_init_array>
 8000b9e:	f7ff fccb 	bl	8000538 <main>

08000ba2 <LoopForever>:
 8000ba2:	e7fe      	b.n	8000ba2 <LoopForever>
 8000ba4:	2000a000 	.word	0x2000a000
 8000ba8:	0800319c 	.word	0x0800319c
 8000bac:	20000000 	.word	0x20000000
 8000bb0:	20000010 	.word	0x20000010
 8000bb4:	20000010 	.word	0x20000010
 8000bb8:	2000118c 	.word	0x2000118c

08000bbc <COMP_IRQHandler>:
 8000bbc:	e7fe      	b.n	8000bbc <COMP_IRQHandler>
	...

08000bc0 <HAL_InitTick>:
 8000bc0:	b538      	push	{r3, r4, r5, lr}
 8000bc2:	4b0f      	ldr	r3, [pc, #60]	; (8000c00 <HAL_InitTick+0x40>)
 8000bc4:	4605      	mov	r5, r0
 8000bc6:	7818      	ldrb	r0, [r3, #0]
 8000bc8:	b908      	cbnz	r0, 8000bce <HAL_InitTick+0xe>
 8000bca:	2001      	movs	r0, #1
 8000bcc:	bd38      	pop	{r3, r4, r5, pc}
 8000bce:	4a0d      	ldr	r2, [pc, #52]	; (8000c04 <HAL_InitTick+0x44>)
 8000bd0:	f44f 737a 	mov.w	r3, #1000	; 0x3e8
 8000bd4:	fbb3 f3f0 	udiv	r3, r3, r0
 8000bd8:	6810      	ldr	r0, [r2, #0]
 8000bda:	fbb0 f0f3 	udiv	r0, r0, r3
 8000bde:	f000 fe71 	bl	80018c4 <HAL_SYSTICK_Config>
 8000be2:	4604      	mov	r4, r0
 8000be4:	2800      	cmp	r0, #0
 8000be6:	d1f0      	bne.n	8000bca <HAL_InitTick+0xa>
 8000be8:	2d0f      	cmp	r5, #15
 8000bea:	d8ee      	bhi.n	8000bca <HAL_InitTick+0xa>
 8000bec:	4602      	mov	r2, r0
 8000bee:	4629      	mov	r1, r5
 8000bf0:	f04f 30ff 	mov.w	r0, #4294967295	; 0xffffffff
 8000bf4:	f000 fe24 	bl	8001840 <HAL_NVIC_SetPriority>
 8000bf8:	4b03      	ldr	r3, [pc, #12]	; (8000c08 <HAL_InitTick+0x48>)
 8000bfa:	4620      	mov	r0, r4
 8000bfc:	601d      	str	r5, [r3, #0]
 8000bfe:	e7e5      	b.n	8000bcc <HAL_InitTick+0xc>
 8000c00:	20000008 	.word	0x20000008
 8000c04:	20000004 	.word	0x20000004
 8000c08:	2000000c 	.word	0x2000000c

08000c0c <HAL_Init>:
 8000c0c:	b510      	push	{r4, lr}
 8000c0e:	2003      	movs	r0, #3
 8000c10:	f000 fe04 	bl	800181c <HAL_NVIC_SetPriorityGrouping>
 8000c14:	2000      	movs	r0, #0
 8000c16:	f7ff ffd3 	bl	8000bc0 <HAL_InitTick>
 8000c1a:	4604      	mov	r4, r0
 8000c1c:	b918      	cbnz	r0, 8000c26 <HAL_Init+0x1a>
 8000c1e:	f7ff fe7b 	bl	8000918 <HAL_MspInit>
 8000c22:	4620      	mov	r0, r4
 8000c24:	bd10      	pop	{r4, pc}
 8000c26:	2401      	movs	r4, #1
 8000c28:	e7fb      	b.n	8000c22 <HAL_Init+0x16>
	...

08000c2c <HAL_IncTick>:
 8000c2c:	4a03      	ldr	r2, [pc, #12]	; (8000c3c <HAL_IncTick+0x10>)
 8000c2e:	4b04      	ldr	r3, [pc, #16]	; (8000c40 <HAL_IncTick+0x14>)
 8000c30:	6811      	ldr	r1, [r2, #0]
 8000c32:	781b      	ldrb	r3, [r3, #0]
 8000c34:	440b      	add	r3, r1
 8000c36:	6013      	str	r3, [r2, #0]
 8000c38:	4770      	bx	lr
 8000c3a:	bf00      	nop
 8000c3c:	20001188 	.word	0x20001188
 8000c40:	20000008 	.word	0x20000008

08000c44 <HAL_GetTick>:
 8000c44:	4b01      	ldr	r3, [pc, #4]	; (8000c4c <HAL_GetTick+0x8>)
 8000c46:	6818      	ldr	r0, [r3, #0]
 8000c48:	4770      	bx	lr
 8000c4a:	bf00      	nop
 8000c4c:	20001188 	.word	0x20001188

08000c50 <HAL_Delay>:
 8000c50:	b538      	push	{r3, r4, r5, lr}
 8000c52:	4604      	mov	r4, r0
 8000c54:	f7ff fff6 	bl	8000c44 <HAL_GetTick>
 8000c58:	1c63      	adds	r3, r4, #1
 8000c5a:	bf1c      	itt	ne
 8000c5c:	4b05      	ldrne	r3, [pc, #20]	; (8000c74 <HAL_Delay+0x24>)
 8000c5e:	781b      	ldrbne	r3, [r3, #0]
 8000c60:	4605      	mov	r5, r0
 8000c62:	bf18      	it	ne
 8000c64:	18e4      	addne	r4, r4, r3
 8000c66:	f7ff ffed 	bl	8000c44 <HAL_GetTick>
 8000c6a:	1b40      	subs	r0, r0, r5
 8000c6c:	42a0      	cmp	r0, r4
 8000c6e:	d3fa      	bcc.n	8000c66 <HAL_Delay+0x16>
 8000c70:	bd38      	pop	{r3, r4, r5, pc}
 8000c72:	bf00      	nop
 8000c74:	20000008 	.word	0x20000008

08000c78 <LL_ADC_SetChannelSamplingTime>:
 8000c78:	b530      	push	{r4, r5, lr}
 8000c7a:	0dcc      	lsrs	r4, r1, #23
 8000c7c:	f004 0404 	and.w	r4, r4, #4
 8000c80:	3014      	adds	r0, #20
 8000c82:	f3c1 5104 	ubfx	r1, r1, #20, #5
 8000c86:	5823      	ldr	r3, [r4, r0]
 8000c88:	2507      	movs	r5, #7
 8000c8a:	408d      	lsls	r5, r1
 8000c8c:	ea23 0305 	bic.w	r3, r3, r5
 8000c90:	fa02 f101 	lsl.w	r1, r2, r1
 8000c94:	4319      	orrs	r1, r3
 8000c96:	5021      	str	r1, [r4, r0]
 8000c98:	bd30      	pop	{r4, r5, pc}

08000c9a <LL_ADC_IsEnabled>:
 8000c9a:	6880      	ldr	r0, [r0, #8]
 8000c9c:	f000 0001 	and.w	r0, r0, #1
 8000ca0:	4770      	bx	lr

08000ca2 <LL_ADC_REG_IsConversionOngoing>:
 8000ca2:	6880      	ldr	r0, [r0, #8]
 8000ca4:	f3c0 0080 	ubfx	r0, r0, #2, #1
 8000ca8:	4770      	bx	lr
	...

08000cac <HAL_ADC_Init>:
 8000cac:	b537      	push	{r0, r1, r2, r4, r5, lr}
 8000cae:	2300      	movs	r3, #0
 8000cb0:	9301      	str	r3, [sp, #4]
 8000cb2:	4604      	mov	r4, r0
 8000cb4:	2800      	cmp	r0, #0
 8000cb6:	f000 809d 	beq.w	8000df4 <HAL_ADC_Init+0x148>
 8000cba:	6d45      	ldr	r5, [r0, #84]	; 0x54
 8000cbc:	b925      	cbnz	r5, 8000cc8 <HAL_ADC_Init+0x1c>
 8000cbe:	f7ff fe43 	bl	8000948 <HAL_ADC_MspInit>
 8000cc2:	65a5      	str	r5, [r4, #88]	; 0x58
 8000cc4:	f884 5050 	strb.w	r5, [r4, #80]	; 0x50
 8000cc8:	6820      	ldr	r0, [r4, #0]
 8000cca:	6883      	ldr	r3, [r0, #8]
 8000ccc:	009b      	lsls	r3, r3, #2
 8000cce:	bf41      	itttt	mi
 8000cd0:	6883      	ldrmi	r3, [r0, #8]
 8000cd2:	f023 4320 	bicmi.w	r3, r3, #2684354560	; 0xa0000000
 8000cd6:	f023 033f 	bicmi.w	r3, r3, #63	; 0x3f
 8000cda:	6083      	strmi	r3, [r0, #8]
 8000cdc:	6883      	ldr	r3, [r0, #8]
 8000cde:	00dd      	lsls	r5, r3, #3
 8000ce0:	d504      	bpl.n	8000cec <HAL_ADC_Init+0x40>
 8000ce2:	6883      	ldr	r3, [r0, #8]
 8000ce4:	00d9      	lsls	r1, r3, #3
 8000ce6:	d515      	bpl.n	8000d14 <HAL_ADC_Init+0x68>
 8000ce8:	2100      	movs	r1, #0
 8000cea:	e01c      	b.n	8000d26 <HAL_ADC_Init+0x7a>
 8000cec:	6883      	ldr	r3, [r0, #8]
 8000cee:	4a54      	ldr	r2, [pc, #336]	; (8000e40 <HAL_ADC_Init+0x194>)
 8000cf0:	f023 4310 	bic.w	r3, r3, #2415919104	; 0x90000000
 8000cf4:	f023 033f 	bic.w	r3, r3, #63	; 0x3f
 8000cf8:	f043 5380 	orr.w	r3, r3, #268435456	; 0x10000000
 8000cfc:	6083      	str	r3, [r0, #8]
 8000cfe:	4b51      	ldr	r3, [pc, #324]	; (8000e44 <HAL_ADC_Init+0x198>)
 8000d00:	681b      	ldr	r3, [r3, #0]
 8000d02:	fbb3 f3f2 	udiv	r3, r3, r2
 8000d06:	9301      	str	r3, [sp, #4]
 8000d08:	9b01      	ldr	r3, [sp, #4]
 8000d0a:	2b00      	cmp	r3, #0
 8000d0c:	d0e9      	beq.n	8000ce2 <HAL_ADC_Init+0x36>
 8000d0e:	9b01      	ldr	r3, [sp, #4]
 8000d10:	3b01      	subs	r3, #1
 8000d12:	e7f8      	b.n	8000d06 <HAL_ADC_Init+0x5a>
 8000d14:	6d63      	ldr	r3, [r4, #84]	; 0x54
 8000d16:	f043 0310 	orr.w	r3, r3, #16
 8000d1a:	6563      	str	r3, [r4, #84]	; 0x54
 8000d1c:	6da3      	ldr	r3, [r4, #88]	; 0x58
 8000d1e:	f043 0301 	orr.w	r3, r3, #1
 8000d22:	65a3      	str	r3, [r4, #88]	; 0x58
 8000d24:	2101      	movs	r1, #1
 8000d26:	f7ff ffbc 	bl	8000ca2 <LL_ADC_REG_IsConversionOngoing>
 8000d2a:	6d63      	ldr	r3, [r4, #84]	; 0x54
 8000d2c:	f013 0f10 	tst.w	r3, #16
 8000d30:	6d63      	ldr	r3, [r4, #84]	; 0x54
 8000d32:	d15c      	bne.n	8000dee <HAL_ADC_Init+0x142>
 8000d34:	2800      	cmp	r0, #0
 8000d36:	d15a      	bne.n	8000dee <HAL_ADC_Init+0x142>
 8000d38:	f423 7381 	bic.w	r3, r3, #258	; 0x102
 8000d3c:	f043 0302 	orr.w	r3, r3, #2
 8000d40:	6563      	str	r3, [r4, #84]	; 0x54
 8000d42:	6820      	ldr	r0, [r4, #0]
 8000d44:	f7ff ffa9 	bl	8000c9a <LL_ADC_IsEnabled>
 8000d48:	b978      	cbnz	r0, 8000d6a <HAL_ADC_Init+0xbe>
 8000d4a:	483f      	ldr	r0, [pc, #252]	; (8000e48 <HAL_ADC_Init+0x19c>)
 8000d4c:	f7ff ffa5 	bl	8000c9a <LL_ADC_IsEnabled>
 8000d50:	4603      	mov	r3, r0
 8000d52:	483e      	ldr	r0, [pc, #248]	; (8000e4c <HAL_ADC_Init+0x1a0>)
 8000d54:	f7ff ffa1 	bl	8000c9a <LL_ADC_IsEnabled>
 8000d58:	4303      	orrs	r3, r0
 8000d5a:	d106      	bne.n	8000d6a <HAL_ADC_Init+0xbe>
 8000d5c:	4a3c      	ldr	r2, [pc, #240]	; (8000e50 <HAL_ADC_Init+0x1a4>)
 8000d5e:	6860      	ldr	r0, [r4, #4]
 8000d60:	6893      	ldr	r3, [r2, #8]
 8000d62:	f423 137c 	bic.w	r3, r3, #4128768	; 0x3f0000
 8000d66:	4303      	orrs	r3, r0
 8000d68:	6093      	str	r3, [r2, #8]
 8000d6a:	68e0      	ldr	r0, [r4, #12]
 8000d6c:	6b63      	ldr	r3, [r4, #52]	; 0x34
 8000d6e:	f894 2020 	ldrb.w	r2, [r4, #32]
 8000d72:	4303      	orrs	r3, r0
 8000d74:	68a0      	ldr	r0, [r4, #8]
 8000d76:	4303      	orrs	r3, r0
 8000d78:	7e60      	ldrb	r0, [r4, #25]
 8000d7a:	2a01      	cmp	r2, #1
 8000d7c:	ea43 3340 	orr.w	r3, r3, r0, lsl #13
 8000d80:	ea43 4302 	orr.w	r3, r3, r2, lsl #16
 8000d84:	bf02      	ittt	eq
 8000d86:	6a62      	ldreq	r2, [r4, #36]	; 0x24
 8000d88:	f102 32ff 	addeq.w	r2, r2, #4294967295	; 0xffffffff
 8000d8c:	ea43 4342 	orreq.w	r3, r3, r2, lsl #17
 8000d90:	6aa2      	ldr	r2, [r4, #40]	; 0x28
 8000d92:	b122      	cbz	r2, 8000d9e <HAL_ADC_Init+0xf2>
 8000d94:	6ae0      	ldr	r0, [r4, #44]	; 0x2c
 8000d96:	f402 7270 	and.w	r2, r2, #960	; 0x3c0
 8000d9a:	4302      	orrs	r2, r0
 8000d9c:	4313      	orrs	r3, r2
 8000d9e:	6820      	ldr	r0, [r4, #0]
 8000da0:	4a2c      	ldr	r2, [pc, #176]	; (8000e54 <HAL_ADC_Init+0x1a8>)
 8000da2:	68c5      	ldr	r5, [r0, #12]
 8000da4:	402a      	ands	r2, r5
 8000da6:	4313      	orrs	r3, r2
 8000da8:	60c3      	str	r3, [r0, #12]
 8000daa:	f7ff ff7a 	bl	8000ca2 <LL_ADC_REG_IsConversionOngoing>
 8000dae:	6823      	ldr	r3, [r4, #0]
 8000db0:	689a      	ldr	r2, [r3, #8]
 8000db2:	0712      	lsls	r2, r2, #28
 8000db4:	d520      	bpl.n	8000df8 <HAL_ADC_Init+0x14c>
 8000db6:	6922      	ldr	r2, [r4, #16]
 8000db8:	2a01      	cmp	r2, #1
 8000dba:	bf05      	ittet	eq
 8000dbc:	6b18      	ldreq	r0, [r3, #48]	; 0x30
 8000dbe:	69e2      	ldreq	r2, [r4, #28]
 8000dc0:	6b1a      	ldrne	r2, [r3, #48]	; 0x30
 8000dc2:	f102 32ff 	addeq.w	r2, r2, #4294967295	; 0xffffffff
 8000dc6:	bf06      	itte	eq
 8000dc8:	f020 000f 	biceq.w	r0, r0, #15
 8000dcc:	4302      	orreq	r2, r0
 8000dce:	f022 020f 	bicne.w	r2, r2, #15
 8000dd2:	631a      	str	r2, [r3, #48]	; 0x30
 8000dd4:	6d63      	ldr	r3, [r4, #84]	; 0x54
 8000dd6:	f023 0303 	bic.w	r3, r3, #3
 8000dda:	f043 0301 	orr.w	r3, r3, #1
 8000dde:	6563      	str	r3, [r4, #84]	; 0x54
 8000de0:	4608      	mov	r0, r1
 8000de2:	b003      	add	sp, #12
 8000de4:	bd30      	pop	{r4, r5, pc}
 8000de6:	691a      	ldr	r2, [r3, #16]
 8000de8:	f022 0201 	bic.w	r2, r2, #1
 8000dec:	e026      	b.n	8000e3c <HAL_ADC_Init+0x190>
 8000dee:	f043 0310 	orr.w	r3, r3, #16
 8000df2:	6563      	str	r3, [r4, #84]	; 0x54
 8000df4:	2101      	movs	r1, #1
 8000df6:	e7f3      	b.n	8000de0 <HAL_ADC_Init+0x134>
 8000df8:	2800      	cmp	r0, #0
 8000dfa:	d1dc      	bne.n	8000db6 <HAL_ADC_Init+0x10a>
 8000dfc:	68d8      	ldr	r0, [r3, #12]
 8000dfe:	f894 2030 	ldrb.w	r2, [r4, #48]	; 0x30
 8000e02:	7e25      	ldrb	r5, [r4, #24]
 8000e04:	0052      	lsls	r2, r2, #1
 8000e06:	f420 4080 	bic.w	r0, r0, #16384	; 0x4000
 8000e0a:	ea42 3285 	orr.w	r2, r2, r5, lsl #14
 8000e0e:	f020 0002 	bic.w	r0, r0, #2
 8000e12:	4302      	orrs	r2, r0
 8000e14:	60da      	str	r2, [r3, #12]
 8000e16:	f894 2038 	ldrb.w	r2, [r4, #56]	; 0x38
 8000e1a:	2a01      	cmp	r2, #1
 8000e1c:	d1e3      	bne.n	8000de6 <HAL_ADC_Init+0x13a>
 8000e1e:	e9d4 250f 	ldrd	r2, r5, [r4, #60]	; 0x3c
 8000e22:	432a      	orrs	r2, r5
 8000e24:	6c65      	ldr	r5, [r4, #68]	; 0x44
 8000e26:	6918      	ldr	r0, [r3, #16]
 8000e28:	f042 0201 	orr.w	r2, r2, #1
 8000e2c:	432a      	orrs	r2, r5
 8000e2e:	6ca5      	ldr	r5, [r4, #72]	; 0x48
 8000e30:	f420 60ff 	bic.w	r0, r0, #2040	; 0x7f8
 8000e34:	432a      	orrs	r2, r5
 8000e36:	f020 0004 	bic.w	r0, r0, #4
 8000e3a:	4302      	orrs	r2, r0
 8000e3c:	611a      	str	r2, [r3, #16]
 8000e3e:	e7ba      	b.n	8000db6 <HAL_ADC_Init+0x10a>
 8000e40:	00030d40 	.word	0x00030d40
 8000e44:	20000004 	.word	0x20000004
 8000e48:	50040000 	.word	0x50040000
 8000e4c:	50040100 	.word	0x50040100
 8000e50:	50040300 	.word	0x50040300
 8000e54:	fff0c007 	.word	0xfff0c007

08000e58 <HAL_ADC_GetValue>:
 8000e58:	6803      	ldr	r3, [r0, #0]
 8000e5a:	6c18      	ldr	r0, [r3, #64]	; 0x40
 8000e5c:	4770      	bx	lr

08000e5e <HAL_ADC_ConvCpltCallback>:
 8000e5e:	4770      	bx	lr

08000e60 <HAL_ADC_LevelOutOfWindowCallback>:
 8000e60:	4770      	bx	lr

08000e62 <HAL_ADC_ErrorCallback>:
 8000e62:	4770      	bx	lr

08000e64 <HAL_ADC_IRQHandler>:
 8000e64:	6803      	ldr	r3, [r0, #0]
 8000e66:	e92d 41f0 	stmdb	sp!, {r4, r5, r6, r7, r8, lr}
 8000e6a:	681d      	ldr	r5, [r3, #0]
 8000e6c:	685e      	ldr	r6, [r3, #4]
 8000e6e:	4b8b      	ldr	r3, [pc, #556]	; (800109c <HAL_ADC_IRQHandler+0x238>)
 8000e70:	689f      	ldr	r7, [r3, #8]
 8000e72:	f015 0f02 	tst.w	r5, #2
 8000e76:	4604      	mov	r4, r0
 8000e78:	f007 071f 	and.w	r7, r7, #31
 8000e7c:	4698      	mov	r8, r3
 8000e7e:	d00e      	beq.n	8000e9e <HAL_ADC_IRQHandler+0x3a>
 8000e80:	07b0      	lsls	r0, r6, #30
 8000e82:	d50c      	bpl.n	8000e9e <HAL_ADC_IRQHandler+0x3a>
 8000e84:	6d63      	ldr	r3, [r4, #84]	; 0x54
 8000e86:	06d9      	lsls	r1, r3, #27
 8000e88:	bf5e      	ittt	pl
 8000e8a:	6d63      	ldrpl	r3, [r4, #84]	; 0x54
 8000e8c:	f443 6300 	orrpl.w	r3, r3, #2048	; 0x800
 8000e90:	6563      	strpl	r3, [r4, #84]	; 0x54
 8000e92:	4620      	mov	r0, r4
 8000e94:	f000 fc52 	bl	800173c <HAL_ADCEx_EndOfSamplingCallback>
 8000e98:	6823      	ldr	r3, [r4, #0]
 8000e9a:	2202      	movs	r2, #2
 8000e9c:	601a      	str	r2, [r3, #0]
 8000e9e:	076a      	lsls	r2, r5, #29
 8000ea0:	d501      	bpl.n	8000ea6 <HAL_ADC_IRQHandler+0x42>
 8000ea2:	0773      	lsls	r3, r6, #29
 8000ea4:	d403      	bmi.n	8000eae <HAL_ADC_IRQHandler+0x4a>
 8000ea6:	0728      	lsls	r0, r5, #28
 8000ea8:	d532      	bpl.n	8000f10 <HAL_ADC_IRQHandler+0xac>
 8000eaa:	0731      	lsls	r1, r6, #28
 8000eac:	d530      	bpl.n	8000f10 <HAL_ADC_IRQHandler+0xac>
 8000eae:	6d63      	ldr	r3, [r4, #84]	; 0x54
 8000eb0:	6820      	ldr	r0, [r4, #0]
 8000eb2:	06da      	lsls	r2, r3, #27
 8000eb4:	bf5e      	ittt	pl
 8000eb6:	6d63      	ldrpl	r3, [r4, #84]	; 0x54
 8000eb8:	f443 7300 	orrpl.w	r3, r3, #512	; 0x200
 8000ebc:	6563      	strpl	r3, [r4, #84]	; 0x54
 8000ebe:	68c3      	ldr	r3, [r0, #12]
 8000ec0:	f413 6f40 	tst.w	r3, #3072	; 0xc00
 8000ec4:	d11e      	bne.n	8000f04 <HAL_ADC_IRQHandler+0xa0>
 8000ec6:	4b76      	ldr	r3, [pc, #472]	; (80010a0 <HAL_ADC_IRQHandler+0x23c>)
 8000ec8:	4298      	cmp	r0, r3
 8000eca:	f000 80da 	beq.w	8001082 <HAL_ADC_IRQHandler+0x21e>
 8000ece:	68c3      	ldr	r3, [r0, #12]
 8000ed0:	049b      	lsls	r3, r3, #18
 8000ed2:	d417      	bmi.n	8000f04 <HAL_ADC_IRQHandler+0xa0>
 8000ed4:	6803      	ldr	r3, [r0, #0]
 8000ed6:	0719      	lsls	r1, r3, #28
 8000ed8:	d514      	bpl.n	8000f04 <HAL_ADC_IRQHandler+0xa0>
 8000eda:	f7ff fee2 	bl	8000ca2 <LL_ADC_REG_IsConversionOngoing>
 8000ede:	2800      	cmp	r0, #0
 8000ee0:	f040 80b0 	bne.w	8001044 <HAL_ADC_IRQHandler+0x1e0>
 8000ee4:	6822      	ldr	r2, [r4, #0]
 8000ee6:	6853      	ldr	r3, [r2, #4]
 8000ee8:	f023 030c 	bic.w	r3, r3, #12
 8000eec:	6053      	str	r3, [r2, #4]
 8000eee:	6d63      	ldr	r3, [r4, #84]	; 0x54
 8000ef0:	f423 7380 	bic.w	r3, r3, #256	; 0x100
 8000ef4:	6563      	str	r3, [r4, #84]	; 0x54
 8000ef6:	6d63      	ldr	r3, [r4, #84]	; 0x54
 8000ef8:	04da      	lsls	r2, r3, #19
 8000efa:	d403      	bmi.n	8000f04 <HAL_ADC_IRQHandler+0xa0>
 8000efc:	6d63      	ldr	r3, [r4, #84]	; 0x54
 8000efe:	f043 0301 	orr.w	r3, r3, #1
 8000f02:	6563      	str	r3, [r4, #84]	; 0x54
 8000f04:	4620      	mov	r0, r4
 8000f06:	f7ff ffaa 	bl	8000e5e <HAL_ADC_ConvCpltCallback>
 8000f0a:	6823      	ldr	r3, [r4, #0]
 8000f0c:	220c      	movs	r2, #12
 8000f0e:	601a      	str	r2, [r3, #0]
 8000f10:	06ab      	lsls	r3, r5, #26
 8000f12:	d501      	bpl.n	8000f18 <HAL_ADC_IRQHandler+0xb4>
 8000f14:	06b0      	lsls	r0, r6, #26
 8000f16:	d403      	bmi.n	8000f20 <HAL_ADC_IRQHandler+0xbc>
 8000f18:	0669      	lsls	r1, r5, #25
 8000f1a:	d537      	bpl.n	8000f8c <HAL_ADC_IRQHandler+0x128>
 8000f1c:	0672      	lsls	r2, r6, #25
 8000f1e:	d535      	bpl.n	8000f8c <HAL_ADC_IRQHandler+0x128>
 8000f20:	6d63      	ldr	r3, [r4, #84]	; 0x54
 8000f22:	4a5f      	ldr	r2, [pc, #380]	; (80010a0 <HAL_ADC_IRQHandler+0x23c>)
 8000f24:	06db      	lsls	r3, r3, #27
 8000f26:	bf5e      	ittt	pl
 8000f28:	6d63      	ldrpl	r3, [r4, #84]	; 0x54
 8000f2a:	f443 5300 	orrpl.w	r3, r3, #8192	; 0x2000
 8000f2e:	6563      	strpl	r3, [r4, #84]	; 0x54
 8000f30:	6823      	ldr	r3, [r4, #0]
 8000f32:	6cd8      	ldr	r0, [r3, #76]	; 0x4c
 8000f34:	68d9      	ldr	r1, [r3, #12]
 8000f36:	4293      	cmp	r3, r2
 8000f38:	f000 00c0 	and.w	r0, r0, #192	; 0xc0
 8000f3c:	f401 6140 	and.w	r1, r1, #3072	; 0xc00
 8000f40:	d104      	bne.n	8000f4c <HAL_ADC_IRQHandler+0xe8>
 8000f42:	b11f      	cbz	r7, 8000f4c <HAL_ADC_IRQHandler+0xe8>
 8000f44:	1fba      	subs	r2, r7, #6
 8000f46:	2a01      	cmp	r2, #1
 8000f48:	f200 8085 	bhi.w	8001056 <HAL_ADC_IRQHandler+0x1f2>
 8000f4c:	68da      	ldr	r2, [r3, #12]
 8000f4e:	b120      	cbz	r0, 8000f5a <HAL_ADC_IRQHandler+0xf6>
 8000f50:	0190      	lsls	r0, r2, #6
 8000f52:	d415      	bmi.n	8000f80 <HAL_ADC_IRQHandler+0x11c>
 8000f54:	b9a1      	cbnz	r1, 8000f80 <HAL_ADC_IRQHandler+0x11c>
 8000f56:	0491      	lsls	r1, r2, #18
 8000f58:	d412      	bmi.n	8000f80 <HAL_ADC_IRQHandler+0x11c>
 8000f5a:	6819      	ldr	r1, [r3, #0]
 8000f5c:	0648      	lsls	r0, r1, #25
 8000f5e:	d50f      	bpl.n	8000f80 <HAL_ADC_IRQHandler+0x11c>
 8000f60:	0291      	lsls	r1, r2, #10
 8000f62:	d40d      	bmi.n	8000f80 <HAL_ADC_IRQHandler+0x11c>
 8000f64:	689a      	ldr	r2, [r3, #8]
 8000f66:	0712      	lsls	r2, r2, #28
 8000f68:	d478      	bmi.n	800105c <HAL_ADC_IRQHandler+0x1f8>
 8000f6a:	685a      	ldr	r2, [r3, #4]
 8000f6c:	f022 0260 	bic.w	r2, r2, #96	; 0x60
 8000f70:	605a      	str	r2, [r3, #4]
 8000f72:	6d63      	ldr	r3, [r4, #84]	; 0x54
 8000f74:	f423 5380 	bic.w	r3, r3, #4096	; 0x1000
 8000f78:	6563      	str	r3, [r4, #84]	; 0x54
 8000f7a:	6d63      	ldr	r3, [r4, #84]	; 0x54
 8000f7c:	05d8      	lsls	r0, r3, #23
 8000f7e:	d576      	bpl.n	800106e <HAL_ADC_IRQHandler+0x20a>
 8000f80:	4620      	mov	r0, r4
 8000f82:	f000 fbd7 	bl	8001734 <HAL_ADCEx_InjectedConvCpltCallback>
 8000f86:	6823      	ldr	r3, [r4, #0]
 8000f88:	2260      	movs	r2, #96	; 0x60
 8000f8a:	601a      	str	r2, [r3, #0]
 8000f8c:	0629      	lsls	r1, r5, #24
 8000f8e:	d50b      	bpl.n	8000fa8 <HAL_ADC_IRQHandler+0x144>
 8000f90:	0632      	lsls	r2, r6, #24
 8000f92:	d509      	bpl.n	8000fa8 <HAL_ADC_IRQHandler+0x144>
 8000f94:	6d63      	ldr	r3, [r4, #84]	; 0x54
 8000f96:	f443 3380 	orr.w	r3, r3, #65536	; 0x10000
 8000f9a:	6563      	str	r3, [r4, #84]	; 0x54
 8000f9c:	4620      	mov	r0, r4
 8000f9e:	f7ff ff5f 	bl	8000e60 <HAL_ADC_LevelOutOfWindowCallback>
 8000fa2:	6823      	ldr	r3, [r4, #0]
 8000fa4:	2280      	movs	r2, #128	; 0x80
 8000fa6:	601a      	str	r2, [r3, #0]
 8000fa8:	05eb      	lsls	r3, r5, #23
 8000faa:	d50c      	bpl.n	8000fc6 <HAL_ADC_IRQHandler+0x162>
 8000fac:	05f0      	lsls	r0, r6, #23
 8000fae:	d50a      	bpl.n	8000fc6 <HAL_ADC_IRQHandler+0x162>
 8000fb0:	6d63      	ldr	r3, [r4, #84]	; 0x54
 8000fb2:	f443 3300 	orr.w	r3, r3, #131072	; 0x20000
 8000fb6:	6563      	str	r3, [r4, #84]	; 0x54
 8000fb8:	4620      	mov	r0, r4
 8000fba:	f000 fbbd 	bl	8001738 <HAL_ADCEx_LevelOutOfWindow2Callback>
 8000fbe:	6823      	ldr	r3, [r4, #0]
 8000fc0:	f44f 7280 	mov.w	r2, #256	; 0x100
 8000fc4:	601a      	str	r2, [r3, #0]
 8000fc6:	05a9      	lsls	r1, r5, #22
 8000fc8:	d50c      	bpl.n	8000fe4 <HAL_ADC_IRQHandler+0x180>
 8000fca:	05b2      	lsls	r2, r6, #22
 8000fcc:	d50a      	bpl.n	8000fe4 <HAL_ADC_IRQHandler+0x180>
 8000fce:	6d63      	ldr	r3, [r4, #84]	; 0x54
 8000fd0:	f443 2380 	orr.w	r3, r3, #262144	; 0x40000
 8000fd4:	6563      	str	r3, [r4, #84]	; 0x54
 8000fd6:	4620      	mov	r0, r4
 8000fd8:	f000 fbaf 	bl	800173a <HAL_ADCEx_LevelOutOfWindow3Callback>
 8000fdc:	6823      	ldr	r3, [r4, #0]
 8000fde:	f44f 7200 	mov.w	r2, #512	; 0x200
 8000fe2:	601a      	str	r2, [r3, #0]
 8000fe4:	06eb      	lsls	r3, r5, #27
 8000fe6:	d518      	bpl.n	800101a <HAL_ADC_IRQHandler+0x1b6>
 8000fe8:	06f0      	lsls	r0, r6, #27
 8000fea:	d516      	bpl.n	800101a <HAL_ADC_IRQHandler+0x1b6>
 8000fec:	6b63      	ldr	r3, [r4, #52]	; 0x34
 8000fee:	b133      	cbz	r3, 8000ffe <HAL_ADC_IRQHandler+0x19a>
 8000ff0:	2f00      	cmp	r7, #0
 8000ff2:	d041      	beq.n	8001078 <HAL_ADC_IRQHandler+0x214>
 8000ff4:	f8d8 3008 	ldr.w	r3, [r8, #8]
 8000ff8:	f413 4f60 	tst.w	r3, #57344	; 0xe000
 8000ffc:	d00a      	beq.n	8001014 <HAL_ADC_IRQHandler+0x1b0>
 8000ffe:	6d63      	ldr	r3, [r4, #84]	; 0x54
 8001000:	f443 6380 	orr.w	r3, r3, #1024	; 0x400
 8001004:	6563      	str	r3, [r4, #84]	; 0x54
 8001006:	6da3      	ldr	r3, [r4, #88]	; 0x58
 8001008:	f043 0302 	orr.w	r3, r3, #2
 800100c:	65a3      	str	r3, [r4, #88]	; 0x58
 800100e:	4620      	mov	r0, r4
 8001010:	f7ff ff27 	bl	8000e62 <HAL_ADC_ErrorCallback>
 8001014:	6823      	ldr	r3, [r4, #0]
 8001016:	2210      	movs	r2, #16
 8001018:	601a      	str	r2, [r3, #0]
 800101a:	0569      	lsls	r1, r5, #21
 800101c:	d53c      	bpl.n	8001098 <HAL_ADC_IRQHandler+0x234>
 800101e:	0572      	lsls	r2, r6, #21
 8001020:	d53a      	bpl.n	8001098 <HAL_ADC_IRQHandler+0x234>
 8001022:	6d63      	ldr	r3, [r4, #84]	; 0x54
 8001024:	f443 4380 	orr.w	r3, r3, #16384	; 0x4000
 8001028:	6563      	str	r3, [r4, #84]	; 0x54
 800102a:	6da3      	ldr	r3, [r4, #88]	; 0x58
 800102c:	f043 0308 	orr.w	r3, r3, #8
 8001030:	65a3      	str	r3, [r4, #88]	; 0x58
 8001032:	6823      	ldr	r3, [r4, #0]
 8001034:	f44f 6280 	mov.w	r2, #1024	; 0x400
 8001038:	4620      	mov	r0, r4
 800103a:	601a      	str	r2, [r3, #0]
 800103c:	e8bd 41f0 	ldmia.w	sp!, {r4, r5, r6, r7, r8, lr}
 8001040:	f000 bb79 	b.w	8001736 <HAL_ADCEx_InjectedQueueOverflowCallback>
 8001044:	6d63      	ldr	r3, [r4, #84]	; 0x54
 8001046:	f043 0310 	orr.w	r3, r3, #16
 800104a:	6563      	str	r3, [r4, #84]	; 0x54
 800104c:	6da3      	ldr	r3, [r4, #88]	; 0x58
 800104e:	f043 0301 	orr.w	r3, r3, #1
 8001052:	65a3      	str	r3, [r4, #88]	; 0x58
 8001054:	e756      	b.n	8000f04 <HAL_ADC_IRQHandler+0xa0>
 8001056:	4a13      	ldr	r2, [pc, #76]	; (80010a4 <HAL_ADC_IRQHandler+0x240>)
 8001058:	68d2      	ldr	r2, [r2, #12]
 800105a:	e778      	b.n	8000f4e <HAL_ADC_IRQHandler+0xea>
 800105c:	6d63      	ldr	r3, [r4, #84]	; 0x54
 800105e:	f043 0310 	orr.w	r3, r3, #16
 8001062:	6563      	str	r3, [r4, #84]	; 0x54
 8001064:	6da3      	ldr	r3, [r4, #88]	; 0x58
 8001066:	f043 0301 	orr.w	r3, r3, #1
 800106a:	65a3      	str	r3, [r4, #88]	; 0x58
 800106c:	e788      	b.n	8000f80 <HAL_ADC_IRQHandler+0x11c>
 800106e:	6d63      	ldr	r3, [r4, #84]	; 0x54
 8001070:	f043 0301 	orr.w	r3, r3, #1
 8001074:	6563      	str	r3, [r4, #84]	; 0x54
 8001076:	e783      	b.n	8000f80 <HAL_ADC_IRQHandler+0x11c>
 8001078:	6823      	ldr	r3, [r4, #0]
 800107a:	68db      	ldr	r3, [r3, #12]
 800107c:	f013 0f01 	tst.w	r3, #1
 8001080:	e7bc      	b.n	8000ffc <HAL_ADC_IRQHandler+0x198>
 8001082:	2f09      	cmp	r7, #9
 8001084:	d805      	bhi.n	8001092 <HAL_ADC_IRQHandler+0x22e>
 8001086:	f240 2321 	movw	r3, #545	; 0x221
 800108a:	40fb      	lsrs	r3, r7
 800108c:	07db      	lsls	r3, r3, #31
 800108e:	f53f af1e 	bmi.w	8000ece <HAL_ADC_IRQHandler+0x6a>
 8001092:	4b04      	ldr	r3, [pc, #16]	; (80010a4 <HAL_ADC_IRQHandler+0x240>)
 8001094:	68db      	ldr	r3, [r3, #12]
 8001096:	e71b      	b.n	8000ed0 <HAL_ADC_IRQHandler+0x6c>
 8001098:	e8bd 81f0 	ldmia.w	sp!, {r4, r5, r6, r7, r8, pc}
 800109c:	50040300 	.word	0x50040300
 80010a0:	50040100 	.word	0x50040100
 80010a4:	50040000 	.word	0x50040000

080010a8 <HAL_ADC_ConfigChannel>:
 80010a8:	b5f7      	push	{r0, r1, r2, r4, r5, r6, r7, lr}
 80010aa:	2300      	movs	r3, #0
 80010ac:	9301      	str	r3, [sp, #4]
 80010ae:	f890 3050 	ldrb.w	r3, [r0, #80]	; 0x50
 80010b2:	2b01      	cmp	r3, #1
 80010b4:	4605      	mov	r5, r0
 80010b6:	460c      	mov	r4, r1
 80010b8:	f000 817e 	beq.w	80013b8 <HAL_ADC_ConfigChannel+0x310>
 80010bc:	2301      	movs	r3, #1
 80010be:	f880 3050 	strb.w	r3, [r0, #80]	; 0x50
 80010c2:	6800      	ldr	r0, [r0, #0]
 80010c4:	f7ff fded 	bl	8000ca2 <LL_ADC_REG_IsConversionOngoing>
 80010c8:	2800      	cmp	r0, #0
 80010ca:	f040 816f 	bne.w	80013ac <HAL_ADC_ConfigChannel+0x304>
 80010ce:	684b      	ldr	r3, [r1, #4]
 80010d0:	2b05      	cmp	r3, #5
 80010d2:	d808      	bhi.n	80010e6 <HAL_ADC_ConfigChannel+0x3e>
 80010d4:	3b02      	subs	r3, #2
 80010d6:	2b03      	cmp	r3, #3
 80010d8:	d867      	bhi.n	80011aa <HAL_ADC_ConfigChannel+0x102>
 80010da:	e8df f003 	tbb	[pc, r3]
 80010de:	5f02      	.short	0x5f02
 80010e0:	6361      	.short	0x6361
 80010e2:	230c      	movs	r3, #12
 80010e4:	6063      	str	r3, [r4, #4]
 80010e6:	6862      	ldr	r2, [r4, #4]
 80010e8:	6828      	ldr	r0, [r5, #0]
 80010ea:	6823      	ldr	r3, [r4, #0]
 80010ec:	0991      	lsrs	r1, r2, #6
 80010ee:	f001 010c 	and.w	r1, r1, #12
 80010f2:	f100 0730 	add.w	r7, r0, #48	; 0x30
 80010f6:	f002 021f 	and.w	r2, r2, #31
 80010fa:	59ce      	ldr	r6, [r1, r7]
 80010fc:	f04f 0c1f 	mov.w	ip, #31
 8001100:	f3c3 6384 	ubfx	r3, r3, #26, #5
 8001104:	4093      	lsls	r3, r2
 8001106:	fa0c f202 	lsl.w	r2, ip, r2
 800110a:	ea26 0202 	bic.w	r2, r6, r2
 800110e:	4313      	orrs	r3, r2
 8001110:	51cb      	str	r3, [r1, r7]
 8001112:	f7ff fdc6 	bl	8000ca2 <LL_ADC_REG_IsConversionOngoing>
 8001116:	4603      	mov	r3, r0
 8001118:	6828      	ldr	r0, [r5, #0]
 800111a:	6882      	ldr	r2, [r0, #8]
 800111c:	0711      	lsls	r1, r2, #28
 800111e:	f140 814d 	bpl.w	80013bc <HAL_ADC_ConfigChannel+0x314>
 8001122:	6828      	ldr	r0, [r5, #0]
 8001124:	f7ff fdb9 	bl	8000c9a <LL_ADC_IsEnabled>
 8001128:	2800      	cmp	r0, #0
 800112a:	f040 80cc 	bne.w	80012c6 <HAL_ADC_ConfigChannel+0x21e>
 800112e:	68e6      	ldr	r6, [r4, #12]
 8001130:	6828      	ldr	r0, [r5, #0]
 8001132:	6823      	ldr	r3, [r4, #0]
 8001134:	4aba      	ldr	r2, [pc, #744]	; (8001420 <HAL_ADC_ConfigChannel+0x378>)
 8001136:	f8d0 10b0 	ldr.w	r1, [r0, #176]	; 0xb0
 800113a:	f006 0c18 	and.w	ip, r6, #24
 800113e:	f3c3 0712 	ubfx	r7, r3, #0, #19
 8001142:	fa22 f20c 	lsr.w	r2, r2, ip
 8001146:	401a      	ands	r2, r3
 8001148:	ea21 0107 	bic.w	r1, r1, r7
 800114c:	430a      	orrs	r2, r1
 800114e:	f8c0 20b0 	str.w	r2, [r0, #176]	; 0xb0
 8001152:	4ab4      	ldr	r2, [pc, #720]	; (8001424 <HAL_ADC_ConfigChannel+0x37c>)
 8001154:	4296      	cmp	r6, r2
 8001156:	f040 80b6 	bne.w	80012c6 <HAL_ADC_ConfigChannel+0x21e>
 800115a:	2f00      	cmp	r7, #0
 800115c:	f040 808c 	bne.w	8001278 <HAL_ADC_ConfigChannel+0x1d0>
 8001160:	0e9a      	lsrs	r2, r3, #26
 8001162:	3201      	adds	r2, #1
 8001164:	f002 061f 	and.w	r6, r2, #31
 8001168:	0692      	lsls	r2, r2, #26
 800116a:	f002 41f8 	and.w	r1, r2, #2080374784	; 0x7c000000
 800116e:	2e09      	cmp	r6, #9
 8001170:	f04f 0201 	mov.w	r2, #1
 8001174:	fa02 f206 	lsl.w	r2, r2, r6
 8001178:	f240 8098 	bls.w	80012ac <HAL_ADC_ConfigChannel+0x204>
 800117c:	430a      	orrs	r2, r1
 800117e:	2f00      	cmp	r7, #0
 8001180:	f040 80c2 	bne.w	8001308 <HAL_ADC_ConfigChannel+0x260>
 8001184:	0e9b      	lsrs	r3, r3, #26
 8001186:	3301      	adds	r3, #1
 8001188:	f003 031f 	and.w	r3, r3, #31
 800118c:	eb03 0143 	add.w	r1, r3, r3, lsl #1
 8001190:	391e      	subs	r1, #30
 8001192:	0509      	lsls	r1, r1, #20
 8001194:	f041 7100 	orr.w	r1, r1, #33554432	; 0x2000000
 8001198:	4311      	orrs	r1, r2
 800119a:	e091      	b.n	80012c0 <HAL_ADC_ConfigChannel+0x218>
 800119c:	2312      	movs	r3, #18
 800119e:	e7a1      	b.n	80010e4 <HAL_ADC_ConfigChannel+0x3c>
 80011a0:	2318      	movs	r3, #24
 80011a2:	e79f      	b.n	80010e4 <HAL_ADC_ConfigChannel+0x3c>
 80011a4:	f44f 7380 	mov.w	r3, #256	; 0x100
 80011a8:	e79c      	b.n	80010e4 <HAL_ADC_ConfigChannel+0x3c>
 80011aa:	2306      	movs	r3, #6
 80011ac:	e79a      	b.n	80010e4 <HAL_ADC_ConfigChannel+0x3c>
 80011ae:	f7ff fd63 	bl	8000c78 <LL_ADC_SetChannelSamplingTime>
 80011b2:	682a      	ldr	r2, [r5, #0]
 80011b4:	6953      	ldr	r3, [r2, #20]
 80011b6:	f023 4300 	bic.w	r3, r3, #2147483648	; 0x80000000
 80011ba:	e10f      	b.n	80013dc <HAL_ADC_ConfigChannel+0x334>
 80011bc:	6e01      	ldr	r1, [r0, #96]	; 0x60
 80011be:	6e01      	ldr	r1, [r0, #96]	; 0x60
 80011c0:	f3c2 0612 	ubfx	r6, r2, #0, #19
 80011c4:	f3c1 6184 	ubfx	r1, r1, #26, #5
 80011c8:	2e00      	cmp	r6, #0
 80011ca:	d13a      	bne.n	8001242 <HAL_ADC_ConfigChannel+0x19a>
 80011cc:	f3c2 6284 	ubfx	r2, r2, #26, #5
 80011d0:	4291      	cmp	r1, r2
 80011d2:	bf02      	ittt	eq
 80011d4:	6e02      	ldreq	r2, [r0, #96]	; 0x60
 80011d6:	f022 4200 	biceq.w	r2, r2, #2147483648	; 0x80000000
 80011da:	6602      	streq	r2, [r0, #96]	; 0x60
 80011dc:	685a      	ldr	r2, [r3, #4]
 80011de:	6822      	ldr	r2, [r4, #0]
 80011e0:	6859      	ldr	r1, [r3, #4]
 80011e2:	f3c2 0612 	ubfx	r6, r2, #0, #19
 80011e6:	f3c1 6184 	ubfx	r1, r1, #26, #5
 80011ea:	f103 000c 	add.w	r0, r3, #12
 80011ee:	bb6e      	cbnz	r6, 800124c <HAL_ADC_ConfigChannel+0x1a4>
 80011f0:	f3c2 6684 	ubfx	r6, r2, #26, #5
 80011f4:	42b1      	cmp	r1, r6
 80011f6:	f040 810d 	bne.w	8001414 <HAL_ADC_ConfigChannel+0x36c>
 80011fa:	685a      	ldr	r2, [r3, #4]
 80011fc:	f022 4200 	bic.w	r2, r2, #2147483648	; 0x80000000
 8001200:	605a      	str	r2, [r3, #4]
 8001202:	689a      	ldr	r2, [r3, #8]
 8001204:	6822      	ldr	r2, [r4, #0]
 8001206:	6899      	ldr	r1, [r3, #8]
 8001208:	f3c2 0612 	ubfx	r6, r2, #0, #19
 800120c:	f3c1 6184 	ubfx	r1, r1, #26, #5
 8001210:	bb36      	cbnz	r6, 8001260 <HAL_ADC_ConfigChannel+0x1b8>
 8001212:	f3c2 6284 	ubfx	r2, r2, #26, #5
 8001216:	428a      	cmp	r2, r1
 8001218:	f040 8118 	bne.w	800144c <HAL_ADC_ConfigChannel+0x3a4>
 800121c:	689a      	ldr	r2, [r3, #8]
 800121e:	f022 4200 	bic.w	r2, r2, #2147483648	; 0x80000000
 8001222:	609a      	str	r2, [r3, #8]
 8001224:	68da      	ldr	r2, [r3, #12]
 8001226:	68da      	ldr	r2, [r3, #12]
 8001228:	6823      	ldr	r3, [r4, #0]
 800122a:	f3c3 0112 	ubfx	r1, r3, #0, #19
 800122e:	f3c2 6284 	ubfx	r2, r2, #26, #5
 8001232:	2900      	cmp	r1, #0
 8001234:	f000 810f 	beq.w	8001456 <HAL_ADC_ConfigChannel+0x3ae>
 8001238:	fa93 f3a3 	rbit	r3, r3
 800123c:	fab3 f383 	clz	r3, r3
 8001240:	e10b      	b.n	800145a <HAL_ADC_ConfigChannel+0x3b2>
 8001242:	fa92 f2a2 	rbit	r2, r2
 8001246:	fab2 f282 	clz	r2, r2
 800124a:	e7c1      	b.n	80011d0 <HAL_ADC_ConfigChannel+0x128>
 800124c:	fa92 f6a2 	rbit	r6, r2
 8001250:	fab6 f686 	clz	r6, r6
 8001254:	42b1      	cmp	r1, r6
 8001256:	d0d0      	beq.n	80011fa <HAL_ADC_ConfigChannel+0x152>
 8001258:	6899      	ldr	r1, [r3, #8]
 800125a:	6899      	ldr	r1, [r3, #8]
 800125c:	f3c1 6184 	ubfx	r1, r1, #26, #5
 8001260:	fa92 f2a2 	rbit	r2, r2
 8001264:	fab2 f282 	clz	r2, r2
 8001268:	428a      	cmp	r2, r1
 800126a:	d0d7      	beq.n	800121c <HAL_ADC_ConfigChannel+0x174>
 800126c:	68da      	ldr	r2, [r3, #12]
 800126e:	68da      	ldr	r2, [r3, #12]
 8001270:	6823      	ldr	r3, [r4, #0]
 8001272:	f3c2 6284 	ubfx	r2, r2, #26, #5
 8001276:	e7df      	b.n	8001238 <HAL_ADC_ConfigChannel+0x190>
 8001278:	fa93 f2a3 	rbit	r2, r3
 800127c:	fab2 f282 	clz	r2, r2
 8001280:	3201      	adds	r2, #1
 8001282:	f002 021f 	and.w	r2, r2, #31
 8001286:	2a09      	cmp	r2, #9
 8001288:	d82c      	bhi.n	80012e4 <HAL_ADC_ConfigChannel+0x23c>
 800128a:	fa93 f1a3 	rbit	r1, r3
 800128e:	fab1 f181 	clz	r1, r1
 8001292:	3101      	adds	r1, #1
 8001294:	0689      	lsls	r1, r1, #26
 8001296:	f001 41f8 	and.w	r1, r1, #2080374784	; 0x7c000000
 800129a:	fa93 f2a3 	rbit	r2, r3
 800129e:	fab2 f282 	clz	r2, r2
 80012a2:	3201      	adds	r2, #1
 80012a4:	f002 061f 	and.w	r6, r2, #31
 80012a8:	2201      	movs	r2, #1
 80012aa:	40b2      	lsls	r2, r6
 80012ac:	4311      	orrs	r1, r2
 80012ae:	b9a7      	cbnz	r7, 80012da <HAL_ADC_ConfigChannel+0x232>
 80012b0:	0e9b      	lsrs	r3, r3, #26
 80012b2:	3301      	adds	r3, #1
 80012b4:	f003 031f 	and.w	r3, r3, #31
 80012b8:	eb03 0343 	add.w	r3, r3, r3, lsl #1
 80012bc:	051b      	lsls	r3, r3, #20
 80012be:	4319      	orrs	r1, r3
 80012c0:	68a2      	ldr	r2, [r4, #8]
 80012c2:	f7ff fcd9 	bl	8000c78 <LL_ADC_SetChannelSamplingTime>
 80012c6:	6821      	ldr	r1, [r4, #0]
 80012c8:	4b57      	ldr	r3, [pc, #348]	; (8001428 <HAL_ADC_ConfigChannel+0x380>)
 80012ca:	4219      	tst	r1, r3
 80012cc:	d128      	bne.n	8001320 <HAL_ADC_ConfigChannel+0x278>
 80012ce:	2000      	movs	r0, #0
 80012d0:	2300      	movs	r3, #0
 80012d2:	f885 3050 	strb.w	r3, [r5, #80]	; 0x50
 80012d6:	b003      	add	sp, #12
 80012d8:	bdf0      	pop	{r4, r5, r6, r7, pc}
 80012da:	fa93 f3a3 	rbit	r3, r3
 80012de:	fab3 f383 	clz	r3, r3
 80012e2:	e7e6      	b.n	80012b2 <HAL_ADC_ConfigChannel+0x20a>
 80012e4:	fa93 f1a3 	rbit	r1, r3
 80012e8:	fab1 f181 	clz	r1, r1
 80012ec:	3101      	adds	r1, #1
 80012ee:	0689      	lsls	r1, r1, #26
 80012f0:	f001 41f8 	and.w	r1, r1, #2080374784	; 0x7c000000
 80012f4:	fa93 f2a3 	rbit	r2, r3
 80012f8:	fab2 f282 	clz	r2, r2
 80012fc:	3201      	adds	r2, #1
 80012fe:	f002 061f 	and.w	r6, r2, #31
 8001302:	2201      	movs	r2, #1
 8001304:	40b2      	lsls	r2, r6
 8001306:	e739      	b.n	800117c <HAL_ADC_ConfigChannel+0xd4>
 8001308:	fa93 f3a3 	rbit	r3, r3
 800130c:	fab3 f383 	clz	r3, r3
 8001310:	3301      	adds	r3, #1
 8001312:	f003 031f 	and.w	r3, r3, #31
 8001316:	eb03 0343 	add.w	r3, r3, r3, lsl #1
 800131a:	f1a3 011e 	sub.w	r1, r3, #30
 800131e:	e738      	b.n	8001192 <HAL_ADC_ConfigChannel+0xea>
 8001320:	4b42      	ldr	r3, [pc, #264]	; (800142c <HAL_ADC_ConfigChannel+0x384>)
 8001322:	4a43      	ldr	r2, [pc, #268]	; (8001430 <HAL_ADC_ConfigChannel+0x388>)
 8001324:	6898      	ldr	r0, [r3, #8]
 8001326:	4291      	cmp	r1, r2
 8001328:	f000 74e0 	and.w	r4, r0, #29360128	; 0x1c00000
 800132c:	d11a      	bne.n	8001364 <HAL_ADC_ConfigChannel+0x2bc>
 800132e:	0202      	lsls	r2, r0, #8
 8001330:	d4cd      	bmi.n	80012ce <HAL_ADC_ConfigChannel+0x226>
 8001332:	6829      	ldr	r1, [r5, #0]
 8001334:	4a3f      	ldr	r2, [pc, #252]	; (8001434 <HAL_ADC_ConfigChannel+0x38c>)
 8001336:	4291      	cmp	r1, r2
 8001338:	d1c9      	bne.n	80012ce <HAL_ADC_ConfigChannel+0x226>
 800133a:	689a      	ldr	r2, [r3, #8]
 800133c:	f022 72e0 	bic.w	r2, r2, #29360128	; 0x1c00000
 8001340:	4322      	orrs	r2, r4
 8001342:	f442 0200 	orr.w	r2, r2, #8388608	; 0x800000
 8001346:	609a      	str	r2, [r3, #8]
 8001348:	4b3b      	ldr	r3, [pc, #236]	; (8001438 <HAL_ADC_ConfigChannel+0x390>)
 800134a:	4a3c      	ldr	r2, [pc, #240]	; (800143c <HAL_ADC_ConfigChannel+0x394>)
 800134c:	681b      	ldr	r3, [r3, #0]
 800134e:	fbb3 f2f2 	udiv	r2, r3, r2
 8001352:	230c      	movs	r3, #12
 8001354:	4353      	muls	r3, r2
 8001356:	9301      	str	r3, [sp, #4]
 8001358:	9b01      	ldr	r3, [sp, #4]
 800135a:	2b00      	cmp	r3, #0
 800135c:	d0b7      	beq.n	80012ce <HAL_ADC_ConfigChannel+0x226>
 800135e:	9b01      	ldr	r3, [sp, #4]
 8001360:	3b01      	subs	r3, #1
 8001362:	e7f8      	b.n	8001356 <HAL_ADC_ConfigChannel+0x2ae>
 8001364:	4a36      	ldr	r2, [pc, #216]	; (8001440 <HAL_ADC_ConfigChannel+0x398>)
 8001366:	4291      	cmp	r1, r2
 8001368:	d10f      	bne.n	800138a <HAL_ADC_ConfigChannel+0x2e2>
 800136a:	f010 7080 	ands.w	r0, r0, #16777216	; 0x1000000
 800136e:	d1ae      	bne.n	80012ce <HAL_ADC_ConfigChannel+0x226>
 8001370:	6829      	ldr	r1, [r5, #0]
 8001372:	f1a2 42f7 	sub.w	r2, r2, #2071986176	; 0x7b800000
 8001376:	4291      	cmp	r1, r2
 8001378:	d1a9      	bne.n	80012ce <HAL_ADC_ConfigChannel+0x226>
 800137a:	689a      	ldr	r2, [r3, #8]
 800137c:	f022 72e0 	bic.w	r2, r2, #29360128	; 0x1c00000
 8001380:	4322      	orrs	r2, r4
 8001382:	f042 7280 	orr.w	r2, r2, #16777216	; 0x1000000
 8001386:	609a      	str	r2, [r3, #8]
 8001388:	e7a2      	b.n	80012d0 <HAL_ADC_ConfigChannel+0x228>
 800138a:	4a2e      	ldr	r2, [pc, #184]	; (8001444 <HAL_ADC_ConfigChannel+0x39c>)
 800138c:	4291      	cmp	r1, r2
 800138e:	d19e      	bne.n	80012ce <HAL_ADC_ConfigChannel+0x226>
 8001390:	f410 0080 	ands.w	r0, r0, #4194304	; 0x400000
 8001394:	d19b      	bne.n	80012ce <HAL_ADC_ConfigChannel+0x226>
 8001396:	6829      	ldr	r1, [r5, #0]
 8001398:	4a26      	ldr	r2, [pc, #152]	; (8001434 <HAL_ADC_ConfigChannel+0x38c>)
 800139a:	4291      	cmp	r1, r2
 800139c:	d197      	bne.n	80012ce <HAL_ADC_ConfigChannel+0x226>
 800139e:	689a      	ldr	r2, [r3, #8]
 80013a0:	f022 72e0 	bic.w	r2, r2, #29360128	; 0x1c00000
 80013a4:	4322      	orrs	r2, r4
 80013a6:	f442 0280 	orr.w	r2, r2, #4194304	; 0x400000
 80013aa:	e7ec      	b.n	8001386 <HAL_ADC_ConfigChannel+0x2de>
 80013ac:	6d6a      	ldr	r2, [r5, #84]	; 0x54
 80013ae:	f042 0220 	orr.w	r2, r2, #32
 80013b2:	656a      	str	r2, [r5, #84]	; 0x54
 80013b4:	4618      	mov	r0, r3
 80013b6:	e78b      	b.n	80012d0 <HAL_ADC_ConfigChannel+0x228>
 80013b8:	2002      	movs	r0, #2
 80013ba:	e78c      	b.n	80012d6 <HAL_ADC_ConfigChannel+0x22e>
 80013bc:	2b00      	cmp	r3, #0
 80013be:	f47f aeb0 	bne.w	8001122 <HAL_ADC_ConfigChannel+0x7a>
 80013c2:	68a2      	ldr	r2, [r4, #8]
 80013c4:	6821      	ldr	r1, [r4, #0]
 80013c6:	f1b2 4f00 	cmp.w	r2, #2147483648	; 0x80000000
 80013ca:	f47f aef0 	bne.w	80011ae <HAL_ADC_ConfigChannel+0x106>
 80013ce:	461a      	mov	r2, r3
 80013d0:	f7ff fc52 	bl	8000c78 <LL_ADC_SetChannelSamplingTime>
 80013d4:	682a      	ldr	r2, [r5, #0]
 80013d6:	6953      	ldr	r3, [r2, #20]
 80013d8:	f043 4300 	orr.w	r3, r3, #2147483648	; 0x80000000
 80013dc:	6153      	str	r3, [r2, #20]
 80013de:	6926      	ldr	r6, [r4, #16]
 80013e0:	6828      	ldr	r0, [r5, #0]
 80013e2:	6822      	ldr	r2, [r4, #0]
 80013e4:	68c1      	ldr	r1, [r0, #12]
 80013e6:	2e04      	cmp	r6, #4
 80013e8:	f100 0360 	add.w	r3, r0, #96	; 0x60
 80013ec:	f43f aee6 	beq.w	80011bc <HAL_ADC_ConfigChannel+0x114>
 80013f0:	f3c1 01c1 	ubfx	r1, r1, #3, #2
 80013f4:	0048      	lsls	r0, r1, #1
 80013f6:	6961      	ldr	r1, [r4, #20]
 80013f8:	f853 7026 	ldr.w	r7, [r3, r6, lsl #2]
 80013fc:	f002 42f8 	and.w	r2, r2, #2080374784	; 0x7c000000
 8001400:	f042 4200 	orr.w	r2, r2, #2147483648	; 0x80000000
 8001404:	4081      	lsls	r1, r0
 8001406:	4311      	orrs	r1, r2
 8001408:	4a0f      	ldr	r2, [pc, #60]	; (8001448 <HAL_ADC_ConfigChannel+0x3a0>)
 800140a:	403a      	ands	r2, r7
 800140c:	4311      	orrs	r1, r2
 800140e:	f843 1026 	str.w	r1, [r3, r6, lsl #2]
 8001412:	e686      	b.n	8001122 <HAL_ADC_ConfigChannel+0x7a>
 8001414:	6899      	ldr	r1, [r3, #8]
 8001416:	6899      	ldr	r1, [r3, #8]
 8001418:	f3c1 6184 	ubfx	r1, r1, #26, #5
 800141c:	e6f9      	b.n	8001212 <HAL_ADC_ConfigChannel+0x16a>
 800141e:	bf00      	nop
 8001420:	0007ffff 	.word	0x0007ffff
 8001424:	407f0000 	.word	0x407f0000
 8001428:	80080000 	.word	0x80080000
 800142c:	50040300 	.word	0x50040300
 8001430:	c7520000 	.word	0xc7520000
 8001434:	50040000 	.word	0x50040000
 8001438:	20000004 	.word	0x20000004
 800143c:	00030d40 	.word	0x00030d40
 8001440:	cb840000 	.word	0xcb840000
 8001444:	80000001 	.word	0x80000001
 8001448:	03fff000 	.word	0x03fff000
 800144c:	68da      	ldr	r2, [r3, #12]
 800144e:	68da      	ldr	r2, [r3, #12]
 8001450:	6823      	ldr	r3, [r4, #0]
 8001452:	f3c2 6284 	ubfx	r2, r2, #26, #5
 8001456:	f3c3 6384 	ubfx	r3, r3, #26, #5
 800145a:	4293      	cmp	r3, r2
 800145c:	bf02      	ittt	eq
 800145e:	6803      	ldreq	r3, [r0, #0]
 8001460:	f023 4300 	biceq.w	r3, r3, #2147483648	; 0x80000000
 8001464:	6003      	streq	r3, [r0, #0]
 8001466:	e65c      	b.n	8001122 <HAL_ADC_ConfigChannel+0x7a>

08001468 <ADC_Enable>:
 8001468:	b570      	push	{r4, r5, r6, lr}
 800146a:	4604      	mov	r4, r0
 800146c:	6800      	ldr	r0, [r0, #0]
 800146e:	f7ff fc14 	bl	8000c9a <LL_ADC_IsEnabled>
 8001472:	b108      	cbz	r0, 8001478 <ADC_Enable+0x10>
 8001474:	2000      	movs	r0, #0
 8001476:	bd70      	pop	{r4, r5, r6, pc}
 8001478:	6822      	ldr	r2, [r4, #0]
 800147a:	4b15      	ldr	r3, [pc, #84]	; (80014d0 <ADC_Enable+0x68>)
 800147c:	6891      	ldr	r1, [r2, #8]
 800147e:	4219      	tst	r1, r3
 8001480:	d009      	beq.n	8001496 <ADC_Enable+0x2e>
 8001482:	6d63      	ldr	r3, [r4, #84]	; 0x54
 8001484:	f043 0310 	orr.w	r3, r3, #16
 8001488:	6563      	str	r3, [r4, #84]	; 0x54
 800148a:	6da3      	ldr	r3, [r4, #88]	; 0x58
 800148c:	f043 0301 	orr.w	r3, r3, #1
 8001490:	65a3      	str	r3, [r4, #88]	; 0x58
 8001492:	2001      	movs	r0, #1
 8001494:	e7ef      	b.n	8001476 <ADC_Enable+0xe>
 8001496:	6893      	ldr	r3, [r2, #8]
 8001498:	4d0e      	ldr	r5, [pc, #56]	; (80014d4 <ADC_Enable+0x6c>)
 800149a:	402b      	ands	r3, r5
 800149c:	f043 0301 	orr.w	r3, r3, #1
 80014a0:	6093      	str	r3, [r2, #8]
 80014a2:	f7ff fbcf 	bl	8000c44 <HAL_GetTick>
 80014a6:	4606      	mov	r6, r0
 80014a8:	6820      	ldr	r0, [r4, #0]
 80014aa:	6803      	ldr	r3, [r0, #0]
 80014ac:	07db      	lsls	r3, r3, #31
 80014ae:	d4e1      	bmi.n	8001474 <ADC_Enable+0xc>
 80014b0:	f7ff fbf3 	bl	8000c9a <LL_ADC_IsEnabled>
 80014b4:	b928      	cbnz	r0, 80014c2 <ADC_Enable+0x5a>
 80014b6:	6822      	ldr	r2, [r4, #0]
 80014b8:	6893      	ldr	r3, [r2, #8]
 80014ba:	402b      	ands	r3, r5
 80014bc:	f043 0301 	orr.w	r3, r3, #1
 80014c0:	6093      	str	r3, [r2, #8]
 80014c2:	f7ff fbbf 	bl	8000c44 <HAL_GetTick>
 80014c6:	1b80      	subs	r0, r0, r6
 80014c8:	2802      	cmp	r0, #2
 80014ca:	d9ed      	bls.n	80014a8 <ADC_Enable+0x40>
 80014cc:	e7d9      	b.n	8001482 <ADC_Enable+0x1a>
 80014ce:	bf00      	nop
 80014d0:	8000003f 	.word	0x8000003f
 80014d4:	7fffffc0 	.word	0x7fffffc0

080014d8 <HAL_ADC_Start_IT>:
 80014d8:	4b4f      	ldr	r3, [pc, #316]	; (8001618 <HAL_ADC_Start_IT+0x140>)
 80014da:	b570      	push	{r4, r5, r6, lr}
 80014dc:	4604      	mov	r4, r0
 80014de:	6800      	ldr	r0, [r0, #0]
 80014e0:	689e      	ldr	r6, [r3, #8]
 80014e2:	f7ff fbde 	bl	8000ca2 <LL_ADC_REG_IsConversionOngoing>
 80014e6:	4605      	mov	r5, r0
 80014e8:	2800      	cmp	r0, #0
 80014ea:	f040 808f 	bne.w	800160c <HAL_ADC_Start_IT+0x134>
 80014ee:	f894 3050 	ldrb.w	r3, [r4, #80]	; 0x50
 80014f2:	2b01      	cmp	r3, #1
 80014f4:	f000 808a 	beq.w	800160c <HAL_ADC_Start_IT+0x134>
 80014f8:	2301      	movs	r3, #1
 80014fa:	f884 3050 	strb.w	r3, [r4, #80]	; 0x50
 80014fe:	4620      	mov	r0, r4
 8001500:	f7ff ffb2 	bl	8001468 <ADC_Enable>
 8001504:	2800      	cmp	r0, #0
 8001506:	d17e      	bne.n	8001606 <HAL_ADC_Start_IT+0x12e>
 8001508:	6d63      	ldr	r3, [r4, #84]	; 0x54
 800150a:	4944      	ldr	r1, [pc, #272]	; (800161c <HAL_ADC_Start_IT+0x144>)
 800150c:	f423 6370 	bic.w	r3, r3, #3840	; 0xf00
 8001510:	f023 0301 	bic.w	r3, r3, #1
 8001514:	f443 7380 	orr.w	r3, r3, #256	; 0x100
 8001518:	6563      	str	r3, [r4, #84]	; 0x54
 800151a:	6823      	ldr	r3, [r4, #0]
 800151c:	428b      	cmp	r3, r1
 800151e:	f006 021f 	and.w	r2, r6, #31
 8001522:	d075      	beq.n	8001610 <HAL_ADC_Start_IT+0x138>
 8001524:	4619      	mov	r1, r3
 8001526:	6d65      	ldr	r5, [r4, #84]	; 0x54
 8001528:	f425 1580 	bic.w	r5, r5, #1048576	; 0x100000
 800152c:	6565      	str	r5, [r4, #84]	; 0x54
 800152e:	6d65      	ldr	r5, [r4, #84]	; 0x54
 8001530:	f415 5580 	ands.w	r5, r5, #4096	; 0x1000
 8001534:	bf1c      	itt	ne
 8001536:	6da5      	ldrne	r5, [r4, #88]	; 0x58
 8001538:	f025 0506 	bicne.w	r5, r5, #6
 800153c:	65a5      	str	r5, [r4, #88]	; 0x58
 800153e:	251c      	movs	r5, #28
 8001540:	601d      	str	r5, [r3, #0]
 8001542:	2500      	movs	r5, #0
 8001544:	f884 5050 	strb.w	r5, [r4, #80]	; 0x50
 8001548:	685d      	ldr	r5, [r3, #4]
 800154a:	f025 051c 	bic.w	r5, r5, #28
 800154e:	605d      	str	r5, [r3, #4]
 8001550:	6965      	ldr	r5, [r4, #20]
 8001552:	685e      	ldr	r6, [r3, #4]
 8001554:	2d08      	cmp	r5, #8
 8001556:	bf0c      	ite	eq
 8001558:	f046 0608 	orreq.w	r6, r6, #8
 800155c:	f046 0604 	orrne.w	r6, r6, #4
 8001560:	605e      	str	r6, [r3, #4]
 8001562:	6b66      	ldr	r6, [r4, #52]	; 0x34
 8001564:	b91e      	cbnz	r6, 800156e <HAL_ADC_Start_IT+0x96>
 8001566:	685e      	ldr	r6, [r3, #4]
 8001568:	f046 0610 	orr.w	r6, r6, #16
 800156c:	605e      	str	r6, [r3, #4]
 800156e:	428b      	cmp	r3, r1
 8001570:	d007      	beq.n	8001582 <HAL_ADC_Start_IT+0xaa>
 8001572:	2a09      	cmp	r2, #9
 8001574:	d828      	bhi.n	80015c8 <HAL_ADC_Start_IT+0xf0>
 8001576:	f240 2621 	movw	r6, #545	; 0x221
 800157a:	fa26 f202 	lsr.w	r2, r6, r2
 800157e:	07d6      	lsls	r6, r2, #31
 8001580:	d522      	bpl.n	80015c8 <HAL_ADC_Start_IT+0xf0>
 8001582:	68da      	ldr	r2, [r3, #12]
 8001584:	0191      	lsls	r1, r2, #6
 8001586:	d516      	bpl.n	80015b6 <HAL_ADC_Start_IT+0xde>
 8001588:	6d62      	ldr	r2, [r4, #84]	; 0x54
 800158a:	f422 5240 	bic.w	r2, r2, #12288	; 0x3000
 800158e:	f442 5280 	orr.w	r2, r2, #4096	; 0x1000
 8001592:	6562      	str	r2, [r4, #84]	; 0x54
 8001594:	685a      	ldr	r2, [r3, #4]
 8001596:	2d08      	cmp	r5, #8
 8001598:	bf0b      	itete	eq
 800159a:	f022 0220 	biceq.w	r2, r2, #32
 800159e:	f022 0240 	bicne.w	r2, r2, #64	; 0x40
 80015a2:	605a      	streq	r2, [r3, #4]
 80015a4:	605a      	strne	r2, [r3, #4]
 80015a6:	bf0b      	itete	eq
 80015a8:	685a      	ldreq	r2, [r3, #4]
 80015aa:	685a      	ldrne	r2, [r3, #4]
 80015ac:	f042 0240 	orreq.w	r2, r2, #64	; 0x40
 80015b0:	f042 0220 	orrne.w	r2, r2, #32
 80015b4:	605a      	str	r2, [r3, #4]
 80015b6:	689a      	ldr	r2, [r3, #8]
 80015b8:	f022 4200 	bic.w	r2, r2, #2147483648	; 0x80000000
 80015bc:	f022 023f 	bic.w	r2, r2, #63	; 0x3f
 80015c0:	f042 0204 	orr.w	r2, r2, #4
 80015c4:	609a      	str	r2, [r3, #8]
 80015c6:	bd70      	pop	{r4, r5, r6, pc}
 80015c8:	6d62      	ldr	r2, [r4, #84]	; 0x54
 80015ca:	f442 1280 	orr.w	r2, r2, #1048576	; 0x100000
 80015ce:	6562      	str	r2, [r4, #84]	; 0x54
 80015d0:	68ca      	ldr	r2, [r1, #12]
 80015d2:	0192      	lsls	r2, r2, #6
 80015d4:	d5f7      	bpl.n	80015c6 <HAL_ADC_Start_IT+0xee>
 80015d6:	6d62      	ldr	r2, [r4, #84]	; 0x54
 80015d8:	f422 5240 	bic.w	r2, r2, #12288	; 0x3000
 80015dc:	f442 5280 	orr.w	r2, r2, #4096	; 0x1000
 80015e0:	6562      	str	r2, [r4, #84]	; 0x54
 80015e2:	685a      	ldr	r2, [r3, #4]
 80015e4:	2d08      	cmp	r5, #8
 80015e6:	bf0b      	itete	eq
 80015e8:	f022 0220 	biceq.w	r2, r2, #32
 80015ec:	f022 0240 	bicne.w	r2, r2, #64	; 0x40
 80015f0:	605a      	streq	r2, [r3, #4]
 80015f2:	605a      	strne	r2, [r3, #4]
 80015f4:	bf0b      	itete	eq
 80015f6:	685a      	ldreq	r2, [r3, #4]
 80015f8:	685a      	ldrne	r2, [r3, #4]
 80015fa:	f042 0240 	orreq.w	r2, r2, #64	; 0x40
 80015fe:	f042 0220 	orrne.w	r2, r2, #32
 8001602:	605a      	str	r2, [r3, #4]
 8001604:	e7df      	b.n	80015c6 <HAL_ADC_Start_IT+0xee>
 8001606:	f884 5050 	strb.w	r5, [r4, #80]	; 0x50
 800160a:	e7dc      	b.n	80015c6 <HAL_ADC_Start_IT+0xee>
 800160c:	2002      	movs	r0, #2
 800160e:	e7da      	b.n	80015c6 <HAL_ADC_Start_IT+0xee>
 8001610:	4903      	ldr	r1, [pc, #12]	; (8001620 <HAL_ADC_Start_IT+0x148>)
 8001612:	2a00      	cmp	r2, #0
 8001614:	d087      	beq.n	8001526 <HAL_ADC_Start_IT+0x4e>
 8001616:	e78a      	b.n	800152e <HAL_ADC_Start_IT+0x56>
 8001618:	50040300 	.word	0x50040300
 800161c:	50040100 	.word	0x50040100
 8001620:	50040000 	.word	0x50040000

08001624 <ADC_Disable>:
 8001624:	b538      	push	{r3, r4, r5, lr}
 8001626:	4604      	mov	r4, r0
 8001628:	6800      	ldr	r0, [r0, #0]
 800162a:	6883      	ldr	r3, [r0, #8]
 800162c:	f003 0302 	and.w	r3, r3, #2
 8001630:	f7ff fb33 	bl	8000c9a <LL_ADC_IsEnabled>
 8001634:	b908      	cbnz	r0, 800163a <ADC_Disable+0x16>
 8001636:	2000      	movs	r0, #0
 8001638:	bd38      	pop	{r3, r4, r5, pc}
 800163a:	2b00      	cmp	r3, #0
 800163c:	d1fb      	bne.n	8001636 <ADC_Disable+0x12>
 800163e:	6822      	ldr	r2, [r4, #0]
 8001640:	6893      	ldr	r3, [r2, #8]
 8001642:	f003 030d 	and.w	r3, r3, #13
 8001646:	2b01      	cmp	r3, #1
 8001648:	d115      	bne.n	8001676 <ADC_Disable+0x52>
 800164a:	6893      	ldr	r3, [r2, #8]
 800164c:	f023 4300 	bic.w	r3, r3, #2147483648	; 0x80000000
 8001650:	f023 033f 	bic.w	r3, r3, #63	; 0x3f
 8001654:	f043 0302 	orr.w	r3, r3, #2
 8001658:	6093      	str	r3, [r2, #8]
 800165a:	2303      	movs	r3, #3
 800165c:	6013      	str	r3, [r2, #0]
 800165e:	f7ff faf1 	bl	8000c44 <HAL_GetTick>
 8001662:	4605      	mov	r5, r0
 8001664:	6823      	ldr	r3, [r4, #0]
 8001666:	689b      	ldr	r3, [r3, #8]
 8001668:	07db      	lsls	r3, r3, #31
 800166a:	d5e4      	bpl.n	8001636 <ADC_Disable+0x12>
 800166c:	f7ff faea 	bl	8000c44 <HAL_GetTick>
 8001670:	1b40      	subs	r0, r0, r5
 8001672:	2802      	cmp	r0, #2
 8001674:	d9f6      	bls.n	8001664 <ADC_Disable+0x40>
 8001676:	6d63      	ldr	r3, [r4, #84]	; 0x54
 8001678:	f043 0310 	orr.w	r3, r3, #16
 800167c:	6563      	str	r3, [r4, #84]	; 0x54
 800167e:	6da3      	ldr	r3, [r4, #88]	; 0x58
 8001680:	f043 0301 	orr.w	r3, r3, #1
 8001684:	65a3      	str	r3, [r4, #88]	; 0x58
 8001686:	2001      	movs	r0, #1
 8001688:	e7d6      	b.n	8001638 <ADC_Disable+0x14>

0800168a <LL_ADC_IsEnabled>:
 800168a:	6880      	ldr	r0, [r0, #8]
 800168c:	f000 0001 	and.w	r0, r0, #1
 8001690:	4770      	bx	lr

08001692 <LL_ADC_REG_IsConversionOngoing>:
 8001692:	6880      	ldr	r0, [r0, #8]
 8001694:	f3c0 0080 	ubfx	r0, r0, #2, #1
 8001698:	4770      	bx	lr
	...

0800169c <HAL_ADCEx_Calibration_Start>:
 800169c:	b537      	push	{r0, r1, r2, r4, r5, lr}
 800169e:	2300      	movs	r3, #0
 80016a0:	9301      	str	r3, [sp, #4]
 80016a2:	f890 3050 	ldrb.w	r3, [r0, #80]	; 0x50
 80016a6:	2b01      	cmp	r3, #1
 80016a8:	4604      	mov	r4, r0
 80016aa:	460d      	mov	r5, r1
 80016ac:	d03d      	beq.n	800172a <HAL_ADCEx_Calibration_Start+0x8e>
 80016ae:	2301      	movs	r3, #1
 80016b0:	f880 3050 	strb.w	r3, [r0, #80]	; 0x50
 80016b4:	f7ff ffb6 	bl	8001624 <ADC_Disable>
 80016b8:	6d63      	ldr	r3, [r4, #84]	; 0x54
 80016ba:	2800      	cmp	r0, #0
 80016bc:	d132      	bne.n	8001724 <HAL_ADCEx_Calibration_Start+0x88>
 80016be:	f423 5388 	bic.w	r3, r3, #4352	; 0x1100
 80016c2:	f023 0302 	bic.w	r3, r3, #2
 80016c6:	6822      	ldr	r2, [r4, #0]
 80016c8:	f043 0302 	orr.w	r3, r3, #2
 80016cc:	6563      	str	r3, [r4, #84]	; 0x54
 80016ce:	6891      	ldr	r1, [r2, #8]
 80016d0:	f005 4580 	and.w	r5, r5, #1073741824	; 0x40000000
 80016d4:	f021 4140 	bic.w	r1, r1, #3221225472	; 0xc0000000
 80016d8:	f021 013f 	bic.w	r1, r1, #63	; 0x3f
 80016dc:	f045 4500 	orr.w	r5, r5, #2147483648	; 0x80000000
 80016e0:	430d      	orrs	r5, r1
 80016e2:	4913      	ldr	r1, [pc, #76]	; (8001730 <HAL_ADCEx_Calibration_Start+0x94>)
 80016e4:	6095      	str	r5, [r2, #8]
 80016e6:	6893      	ldr	r3, [r2, #8]
 80016e8:	2b00      	cmp	r3, #0
 80016ea:	da11      	bge.n	8001710 <HAL_ADCEx_Calibration_Start+0x74>
 80016ec:	9b01      	ldr	r3, [sp, #4]
 80016ee:	3301      	adds	r3, #1
 80016f0:	9301      	str	r3, [sp, #4]
 80016f2:	9b01      	ldr	r3, [sp, #4]
 80016f4:	428b      	cmp	r3, r1
 80016f6:	d9f6      	bls.n	80016e6 <HAL_ADCEx_Calibration_Start+0x4a>
 80016f8:	6d63      	ldr	r3, [r4, #84]	; 0x54
 80016fa:	f023 0312 	bic.w	r3, r3, #18
 80016fe:	f043 0310 	orr.w	r3, r3, #16
 8001702:	6563      	str	r3, [r4, #84]	; 0x54
 8001704:	2300      	movs	r3, #0
 8001706:	f884 3050 	strb.w	r3, [r4, #80]	; 0x50
 800170a:	2001      	movs	r0, #1
 800170c:	b003      	add	sp, #12
 800170e:	bd30      	pop	{r4, r5, pc}
 8001710:	6d63      	ldr	r3, [r4, #84]	; 0x54
 8001712:	f023 0303 	bic.w	r3, r3, #3
 8001716:	f043 0301 	orr.w	r3, r3, #1
 800171a:	6563      	str	r3, [r4, #84]	; 0x54
 800171c:	2300      	movs	r3, #0
 800171e:	f884 3050 	strb.w	r3, [r4, #80]	; 0x50
 8001722:	e7f3      	b.n	800170c <HAL_ADCEx_Calibration_Start+0x70>
 8001724:	f043 0310 	orr.w	r3, r3, #16
 8001728:	e7f7      	b.n	800171a <HAL_ADCEx_Calibration_Start+0x7e>
 800172a:	2002      	movs	r0, #2
 800172c:	e7ee      	b.n	800170c <HAL_ADCEx_Calibration_Start+0x70>
 800172e:	bf00      	nop
 8001730:	000487ff 	.word	0x000487ff

08001734 <HAL_ADCEx_InjectedConvCpltCallback>:
 8001734:	4770      	bx	lr

08001736 <HAL_ADCEx_InjectedQueueOverflowCallback>:
 8001736:	4770      	bx	lr

08001738 <HAL_ADCEx_LevelOutOfWindow2Callback>:
 8001738:	4770      	bx	lr

0800173a <HAL_ADCEx_LevelOutOfWindow3Callback>:
 800173a:	4770      	bx	lr

0800173c <HAL_ADCEx_EndOfSamplingCallback>:
 800173c:	4770      	bx	lr
	...

08001740 <HAL_ADCEx_MultiModeConfigChannel>:
 8001740:	b530      	push	{r4, r5, lr}
 8001742:	f890 3050 	ldrb.w	r3, [r0, #80]	; 0x50
 8001746:	2b01      	cmp	r3, #1
 8001748:	b09b      	sub	sp, #108	; 0x6c
 800174a:	4602      	mov	r2, r0
 800174c:	d05e      	beq.n	800180c <HAL_ADCEx_MultiModeConfigChannel+0xcc>
 800174e:	2301      	movs	r3, #1
 8001750:	f880 3050 	strb.w	r3, [r0, #80]	; 0x50
 8001754:	4b2e      	ldr	r3, [pc, #184]	; (8001810 <HAL_ADCEx_MultiModeConfigChannel+0xd0>)
 8001756:	6800      	ldr	r0, [r0, #0]
 8001758:	4298      	cmp	r0, r3
 800175a:	bf0c      	ite	eq
 800175c:	f503 7380 	addeq.w	r3, r3, #256	; 0x100
 8001760:	2300      	movne	r3, #0
 8001762:	9301      	str	r3, [sp, #4]
 8001764:	9801      	ldr	r0, [sp, #4]
 8001766:	b940      	cbnz	r0, 800177a <HAL_ADCEx_MultiModeConfigChannel+0x3a>
 8001768:	6d53      	ldr	r3, [r2, #84]	; 0x54
 800176a:	f882 0050 	strb.w	r0, [r2, #80]	; 0x50
 800176e:	f043 0320 	orr.w	r3, r3, #32
 8001772:	6553      	str	r3, [r2, #84]	; 0x54
 8001774:	2001      	movs	r0, #1
 8001776:	b01b      	add	sp, #108	; 0x6c
 8001778:	bd30      	pop	{r4, r5, pc}
 800177a:	f7ff ff8a 	bl	8001692 <LL_ADC_REG_IsConversionOngoing>
 800177e:	4603      	mov	r3, r0
 8001780:	6810      	ldr	r0, [r2, #0]
 8001782:	f7ff ff86 	bl	8001692 <LL_ADC_REG_IsConversionOngoing>
 8001786:	2800      	cmp	r0, #0
 8001788:	d13a      	bne.n	8001800 <HAL_ADCEx_MultiModeConfigChannel+0xc0>
 800178a:	2b00      	cmp	r3, #0
 800178c:	d138      	bne.n	8001800 <HAL_ADCEx_MultiModeConfigChannel+0xc0>
 800178e:	680b      	ldr	r3, [r1, #0]
 8001790:	4c20      	ldr	r4, [pc, #128]	; (8001814 <HAL_ADCEx_MultiModeConfigChannel+0xd4>)
 8001792:	b313      	cbz	r3, 80017da <HAL_ADCEx_MultiModeConfigChannel+0x9a>
 8001794:	68a3      	ldr	r3, [r4, #8]
 8001796:	6848      	ldr	r0, [r1, #4]
 8001798:	f423 4360 	bic.w	r3, r3, #57344	; 0xe000
 800179c:	4303      	orrs	r3, r0
 800179e:	f892 0030 	ldrb.w	r0, [r2, #48]	; 0x30
 80017a2:	ea43 3340 	orr.w	r3, r3, r0, lsl #13
 80017a6:	60a3      	str	r3, [r4, #8]
 80017a8:	4819      	ldr	r0, [pc, #100]	; (8001810 <HAL_ADCEx_MultiModeConfigChannel+0xd0>)
 80017aa:	f7ff ff6e 	bl	800168a <LL_ADC_IsEnabled>
 80017ae:	4603      	mov	r3, r0
 80017b0:	4819      	ldr	r0, [pc, #100]	; (8001818 <HAL_ADCEx_MultiModeConfigChannel+0xd8>)
 80017b2:	f7ff ff6a 	bl	800168a <LL_ADC_IsEnabled>
 80017b6:	4318      	orrs	r0, r3
 80017b8:	d004      	beq.n	80017c4 <HAL_ADCEx_MultiModeConfigChannel+0x84>
 80017ba:	2000      	movs	r0, #0
 80017bc:	2300      	movs	r3, #0
 80017be:	f882 3050 	strb.w	r3, [r2, #80]	; 0x50
 80017c2:	e7d8      	b.n	8001776 <HAL_ADCEx_MultiModeConfigChannel+0x36>
 80017c4:	680b      	ldr	r3, [r1, #0]
 80017c6:	68a5      	ldr	r5, [r4, #8]
 80017c8:	6889      	ldr	r1, [r1, #8]
 80017ca:	430b      	orrs	r3, r1
 80017cc:	f425 6171 	bic.w	r1, r5, #3856	; 0xf10
 80017d0:	f021 010f 	bic.w	r1, r1, #15
 80017d4:	430b      	orrs	r3, r1
 80017d6:	60a3      	str	r3, [r4, #8]
 80017d8:	e7f0      	b.n	80017bc <HAL_ADCEx_MultiModeConfigChannel+0x7c>
 80017da:	68a3      	ldr	r3, [r4, #8]
 80017dc:	480c      	ldr	r0, [pc, #48]	; (8001810 <HAL_ADCEx_MultiModeConfigChannel+0xd0>)
 80017de:	f423 4360 	bic.w	r3, r3, #57344	; 0xe000
 80017e2:	60a3      	str	r3, [r4, #8]
 80017e4:	f7ff ff51 	bl	800168a <LL_ADC_IsEnabled>
 80017e8:	4603      	mov	r3, r0
 80017ea:	480b      	ldr	r0, [pc, #44]	; (8001818 <HAL_ADCEx_MultiModeConfigChannel+0xd8>)
 80017ec:	f7ff ff4d 	bl	800168a <LL_ADC_IsEnabled>
 80017f0:	4318      	orrs	r0, r3
 80017f2:	d1e2      	bne.n	80017ba <HAL_ADCEx_MultiModeConfigChannel+0x7a>
 80017f4:	68a3      	ldr	r3, [r4, #8]
 80017f6:	f423 6371 	bic.w	r3, r3, #3856	; 0xf10
 80017fa:	f023 030f 	bic.w	r3, r3, #15
 80017fe:	e7ea      	b.n	80017d6 <HAL_ADCEx_MultiModeConfigChannel+0x96>
 8001800:	6d53      	ldr	r3, [r2, #84]	; 0x54
 8001802:	f043 0320 	orr.w	r3, r3, #32
 8001806:	6553      	str	r3, [r2, #84]	; 0x54
 8001808:	2001      	movs	r0, #1
 800180a:	e7d7      	b.n	80017bc <HAL_ADCEx_MultiModeConfigChannel+0x7c>
 800180c:	2002      	movs	r0, #2
 800180e:	e7b2      	b.n	8001776 <HAL_ADCEx_MultiModeConfigChannel+0x36>
 8001810:	50040000 	.word	0x50040000
 8001814:	50040300 	.word	0x50040300
 8001818:	50040100 	.word	0x50040100

0800181c <HAL_NVIC_SetPriorityGrouping>:
 800181c:	4a07      	ldr	r2, [pc, #28]	; (800183c <HAL_NVIC_SetPriorityGrouping+0x20>)
 800181e:	68d3      	ldr	r3, [r2, #12]
 8001820:	f423 63e0 	bic.w	r3, r3, #1792	; 0x700
 8001824:	041b      	lsls	r3, r3, #16
 8001826:	0c1b      	lsrs	r3, r3, #16
 8001828:	f043 63bf 	orr.w	r3, r3, #100139008	; 0x5f80000
 800182c:	0200      	lsls	r0, r0, #8
 800182e:	f443 3300 	orr.w	r3, r3, #131072	; 0x20000
 8001832:	f400 60e0 	and.w	r0, r0, #1792	; 0x700
 8001836:	4303      	orrs	r3, r0
 8001838:	60d3      	str	r3, [r2, #12]
 800183a:	4770      	bx	lr
 800183c:	e000ed00 	.word	0xe000ed00

08001840 <HAL_NVIC_SetPriority>:
 8001840:	4b17      	ldr	r3, [pc, #92]	; (80018a0 <HAL_NVIC_SetPriority+0x60>)
 8001842:	b570      	push	{r4, r5, r6, lr}
 8001844:	68dc      	ldr	r4, [r3, #12]
 8001846:	f3c4 2402 	ubfx	r4, r4, #8, #3
 800184a:	f1c4 0507 	rsb	r5, r4, #7
 800184e:	2d04      	cmp	r5, #4
 8001850:	f104 0304 	add.w	r3, r4, #4
 8001854:	bf28      	it	cs
 8001856:	2504      	movcs	r5, #4
 8001858:	f04f 36ff 	mov.w	r6, #4294967295	; 0xffffffff
 800185c:	2b06      	cmp	r3, #6
 800185e:	fa06 f305 	lsl.w	r3, r6, r5
 8001862:	bf8c      	ite	hi
 8001864:	3c03      	subhi	r4, #3
 8001866:	2400      	movls	r4, #0
 8001868:	ea21 0303 	bic.w	r3, r1, r3
 800186c:	40a3      	lsls	r3, r4
 800186e:	fa06 f404 	lsl.w	r4, r6, r4
 8001872:	ea22 0404 	bic.w	r4, r2, r4
 8001876:	2800      	cmp	r0, #0
 8001878:	ea43 0304 	orr.w	r3, r3, r4
 800187c:	bfa8      	it	ge
 800187e:	f100 4060 	addge.w	r0, r0, #3758096384	; 0xe0000000
 8001882:	ea4f 1303 	mov.w	r3, r3, lsl #4
 8001886:	bfbc      	itt	lt
 8001888:	f000 000f 	andlt.w	r0, r0, #15
 800188c:	4a05      	ldrlt	r2, [pc, #20]	; (80018a4 <HAL_NVIC_SetPriority+0x64>)
 800188e:	b2db      	uxtb	r3, r3
 8001890:	bfaa      	itet	ge
 8001892:	f500 4061 	addge.w	r0, r0, #57600	; 0xe100
 8001896:	5413      	strblt	r3, [r2, r0]
 8001898:	f880 3300 	strbge.w	r3, [r0, #768]	; 0x300
 800189c:	bd70      	pop	{r4, r5, r6, pc}
 800189e:	bf00      	nop
 80018a0:	e000ed00 	.word	0xe000ed00
 80018a4:	e000ed14 	.word	0xe000ed14

080018a8 <HAL_NVIC_EnableIRQ>:
 80018a8:	2800      	cmp	r0, #0
 80018aa:	db08      	blt.n	80018be <HAL_NVIC_EnableIRQ+0x16>
 80018ac:	2301      	movs	r3, #1
 80018ae:	0942      	lsrs	r2, r0, #5
 80018b0:	f000 001f 	and.w	r0, r0, #31
 80018b4:	fa03 f000 	lsl.w	r0, r3, r0
 80018b8:	4b01      	ldr	r3, [pc, #4]	; (80018c0 <HAL_NVIC_EnableIRQ+0x18>)
 80018ba:	f843 0022 	str.w	r0, [r3, r2, lsl #2]
 80018be:	4770      	bx	lr
 80018c0:	e000e100 	.word	0xe000e100

080018c4 <HAL_SYSTICK_Config>:
 80018c4:	3801      	subs	r0, #1
 80018c6:	f1b0 7f80 	cmp.w	r0, #16777216	; 0x1000000
 80018ca:	d20a      	bcs.n	80018e2 <HAL_SYSTICK_Config+0x1e>
 80018cc:	4b06      	ldr	r3, [pc, #24]	; (80018e8 <HAL_SYSTICK_Config+0x24>)
 80018ce:	4a07      	ldr	r2, [pc, #28]	; (80018ec <HAL_SYSTICK_Config+0x28>)
 80018d0:	6058      	str	r0, [r3, #4]
 80018d2:	21f0      	movs	r1, #240	; 0xf0
 80018d4:	f882 1023 	strb.w	r1, [r2, #35]	; 0x23
 80018d8:	2000      	movs	r0, #0
 80018da:	2207      	movs	r2, #7
 80018dc:	6098      	str	r0, [r3, #8]
 80018de:	601a      	str	r2, [r3, #0]
 80018e0:	4770      	bx	lr
 80018e2:	2001      	movs	r0, #1
 80018e4:	4770      	bx	lr
 80018e6:	bf00      	nop
 80018e8:	e000e010 	.word	0xe000e010
 80018ec:	e000ed00 	.word	0xe000ed00

080018f0 <HAL_GPIO_Init>:
 80018f0:	e92d 4ff0 	stmdb	sp!, {r4, r5, r6, r7, r8, r9, sl, fp, lr}
 80018f4:	b085      	sub	sp, #20
 80018f6:	680b      	ldr	r3, [r1, #0]
 80018f8:	f8df e170 	ldr.w	lr, [pc, #368]	; 8001a6c <HAL_GPIO_Init+0x17c>
 80018fc:	4a59      	ldr	r2, [pc, #356]	; (8001a64 <HAL_GPIO_Init+0x174>)
 80018fe:	9301      	str	r3, [sp, #4]
 8001900:	f04f 090f 	mov.w	r9, #15
 8001904:	2300      	movs	r3, #0
 8001906:	9c01      	ldr	r4, [sp, #4]
 8001908:	40dc      	lsrs	r4, r3
 800190a:	d102      	bne.n	8001912 <HAL_GPIO_Init+0x22>
 800190c:	b005      	add	sp, #20
 800190e:	e8bd 8ff0 	ldmia.w	sp!, {r4, r5, r6, r7, r8, r9, sl, fp, pc}
 8001912:	2401      	movs	r4, #1
 8001914:	fa04 f803 	lsl.w	r8, r4, r3
 8001918:	9c01      	ldr	r4, [sp, #4]
 800191a:	ea18 0504 	ands.w	r5, r8, r4
 800191e:	f000 8098 	beq.w	8001a52 <HAL_GPIO_Init+0x162>
 8001922:	684c      	ldr	r4, [r1, #4]
 8001924:	f024 0a10 	bic.w	sl, r4, #16
 8001928:	ea4f 0c43 	mov.w	ip, r3, lsl #1
 800192c:	2603      	movs	r6, #3
 800192e:	f10a 37ff 	add.w	r7, sl, #4294967295	; 0xffffffff
 8001932:	fa06 f60c 	lsl.w	r6, r6, ip
 8001936:	2f01      	cmp	r7, #1
 8001938:	ea6f 0606 	mvn.w	r6, r6
 800193c:	d811      	bhi.n	8001962 <HAL_GPIO_Init+0x72>
 800193e:	6887      	ldr	r7, [r0, #8]
 8001940:	ea07 0b06 	and.w	fp, r7, r6
 8001944:	68cf      	ldr	r7, [r1, #12]
 8001946:	fa07 f70c 	lsl.w	r7, r7, ip
 800194a:	ea47 070b 	orr.w	r7, r7, fp
 800194e:	6087      	str	r7, [r0, #8]
 8001950:	6847      	ldr	r7, [r0, #4]
 8001952:	ea27 0808 	bic.w	r8, r7, r8
 8001956:	f3c4 1700 	ubfx	r7, r4, #4, #1
 800195a:	409f      	lsls	r7, r3
 800195c:	ea47 0708 	orr.w	r7, r7, r8
 8001960:	6047      	str	r7, [r0, #4]
 8001962:	68c7      	ldr	r7, [r0, #12]
 8001964:	ea07 0806 	and.w	r8, r7, r6
 8001968:	688f      	ldr	r7, [r1, #8]
 800196a:	fa07 f70c 	lsl.w	r7, r7, ip
 800196e:	ea47 0708 	orr.w	r7, r7, r8
 8001972:	f1ba 0f02 	cmp.w	sl, #2
 8001976:	60c7      	str	r7, [r0, #12]
 8001978:	d114      	bne.n	80019a4 <HAL_GPIO_Init+0xb4>
 800197a:	ea4f 08d3 	mov.w	r8, r3, lsr #3
 800197e:	eb00 0888 	add.w	r8, r0, r8, lsl #2
 8001982:	f003 0a07 	and.w	sl, r3, #7
 8001986:	f8d8 7020 	ldr.w	r7, [r8, #32]
 800198a:	ea4f 0a8a 	mov.w	sl, sl, lsl #2
 800198e:	fa09 fb0a 	lsl.w	fp, r9, sl
 8001992:	ea27 0b0b 	bic.w	fp, r7, fp
 8001996:	690f      	ldr	r7, [r1, #16]
 8001998:	fa07 f70a 	lsl.w	r7, r7, sl
 800199c:	ea47 070b 	orr.w	r7, r7, fp
 80019a0:	f8c8 7020 	str.w	r7, [r8, #32]
 80019a4:	6807      	ldr	r7, [r0, #0]
 80019a6:	403e      	ands	r6, r7
 80019a8:	f004 0703 	and.w	r7, r4, #3
 80019ac:	fa07 fc0c 	lsl.w	ip, r7, ip
 80019b0:	ea4c 0606 	orr.w	r6, ip, r6
 80019b4:	6006      	str	r6, [r0, #0]
 80019b6:	00e6      	lsls	r6, r4, #3
 80019b8:	d54b      	bpl.n	8001a52 <HAL_GPIO_Init+0x162>
 80019ba:	f8de 6060 	ldr.w	r6, [lr, #96]	; 0x60
 80019be:	f046 0601 	orr.w	r6, r6, #1
 80019c2:	f8ce 6060 	str.w	r6, [lr, #96]	; 0x60
 80019c6:	f8de 6060 	ldr.w	r6, [lr, #96]	; 0x60
 80019ca:	f023 0703 	bic.w	r7, r3, #3
 80019ce:	f107 4780 	add.w	r7, r7, #1073741824	; 0x40000000
 80019d2:	f006 0601 	and.w	r6, r6, #1
 80019d6:	f507 3780 	add.w	r7, r7, #65536	; 0x10000
 80019da:	9603      	str	r6, [sp, #12]
 80019dc:	f003 0c03 	and.w	ip, r3, #3
 80019e0:	9e03      	ldr	r6, [sp, #12]
 80019e2:	68be      	ldr	r6, [r7, #8]
 80019e4:	ea4f 0c8c 	mov.w	ip, ip, lsl #2
 80019e8:	fa09 f80c 	lsl.w	r8, r9, ip
 80019ec:	f1b0 4f90 	cmp.w	r0, #1207959552	; 0x48000000
 80019f0:	ea26 0808 	bic.w	r8, r6, r8
 80019f4:	d02f      	beq.n	8001a56 <HAL_GPIO_Init+0x166>
 80019f6:	4e1c      	ldr	r6, [pc, #112]	; (8001a68 <HAL_GPIO_Init+0x178>)
 80019f8:	42b0      	cmp	r0, r6
 80019fa:	d02e      	beq.n	8001a5a <HAL_GPIO_Init+0x16a>
 80019fc:	f506 6680 	add.w	r6, r6, #1024	; 0x400
 8001a00:	42b0      	cmp	r0, r6
 8001a02:	d02c      	beq.n	8001a5e <HAL_GPIO_Init+0x16e>
 8001a04:	f506 6680 	add.w	r6, r6, #1024	; 0x400
 8001a08:	42b0      	cmp	r0, r6
 8001a0a:	bf14      	ite	ne
 8001a0c:	2607      	movne	r6, #7
 8001a0e:	2603      	moveq	r6, #3
 8001a10:	fa06 f60c 	lsl.w	r6, r6, ip
 8001a14:	ea46 0608 	orr.w	r6, r6, r8
 8001a18:	60be      	str	r6, [r7, #8]
 8001a1a:	6816      	ldr	r6, [r2, #0]
 8001a1c:	43ef      	mvns	r7, r5
 8001a1e:	f414 3f80 	tst.w	r4, #65536	; 0x10000
 8001a22:	bf0c      	ite	eq
 8001a24:	403e      	andeq	r6, r7
 8001a26:	432e      	orrne	r6, r5
 8001a28:	6016      	str	r6, [r2, #0]
 8001a2a:	6856      	ldr	r6, [r2, #4]
 8001a2c:	f414 3f00 	tst.w	r4, #131072	; 0x20000
 8001a30:	bf0c      	ite	eq
 8001a32:	403e      	andeq	r6, r7
 8001a34:	432e      	orrne	r6, r5
 8001a36:	6056      	str	r6, [r2, #4]
 8001a38:	6896      	ldr	r6, [r2, #8]
 8001a3a:	f414 1f80 	tst.w	r4, #1048576	; 0x100000
 8001a3e:	bf0c      	ite	eq
 8001a40:	403e      	andeq	r6, r7
 8001a42:	432e      	orrne	r6, r5
 8001a44:	6096      	str	r6, [r2, #8]
 8001a46:	68d6      	ldr	r6, [r2, #12]
 8001a48:	02a4      	lsls	r4, r4, #10
 8001a4a:	bf54      	ite	pl
 8001a4c:	403e      	andpl	r6, r7
 8001a4e:	432e      	orrmi	r6, r5
 8001a50:	60d6      	str	r6, [r2, #12]
 8001a52:	3301      	adds	r3, #1
 8001a54:	e757      	b.n	8001906 <HAL_GPIO_Init+0x16>
 8001a56:	2600      	movs	r6, #0
 8001a58:	e7da      	b.n	8001a10 <HAL_GPIO_Init+0x120>
 8001a5a:	2601      	movs	r6, #1
 8001a5c:	e7d8      	b.n	8001a10 <HAL_GPIO_Init+0x120>
 8001a5e:	2602      	movs	r6, #2
 8001a60:	e7d6      	b.n	8001a10 <HAL_GPIO_Init+0x120>
 8001a62:	bf00      	nop
 8001a64:	40010400 	.word	0x40010400
 8001a68:	48000400 	.word	0x48000400
 8001a6c:	40021000 	.word	0x40021000

08001a70 <HAL_GPIO_DeInit>:
 8001a70:	4a35      	ldr	r2, [pc, #212]	; (8001b48 <HAL_GPIO_DeInit+0xd8>)
 8001a72:	e92d 4ff0 	stmdb	sp!, {r4, r5, r6, r7, r8, r9, sl, fp, lr}
 8001a76:	2300      	movs	r3, #0
 8001a78:	f04f 0a01 	mov.w	sl, #1
 8001a7c:	f04f 080f 	mov.w	r8, #15
 8001a80:	f04f 0b03 	mov.w	fp, #3
 8001a84:	fa31 f403 	lsrs.w	r4, r1, r3
 8001a88:	d101      	bne.n	8001a8e <HAL_GPIO_DeInit+0x1e>
 8001a8a:	e8bd 8ff0 	ldmia.w	sp!, {r4, r5, r6, r7, r8, r9, sl, fp, pc}
 8001a8e:	fa0a fc03 	lsl.w	ip, sl, r3
 8001a92:	ea1c 0401 	ands.w	r4, ip, r1
 8001a96:	d04e      	beq.n	8001b36 <HAL_GPIO_DeInit+0xc6>
 8001a98:	f023 0503 	bic.w	r5, r3, #3
 8001a9c:	f105 4580 	add.w	r5, r5, #1073741824	; 0x40000000
 8001aa0:	f505 3580 	add.w	r5, r5, #65536	; 0x10000
 8001aa4:	f003 0703 	and.w	r7, r3, #3
 8001aa8:	68ae      	ldr	r6, [r5, #8]
 8001aaa:	00bf      	lsls	r7, r7, #2
 8001aac:	fa08 f907 	lsl.w	r9, r8, r7
 8001ab0:	f1b0 4f90 	cmp.w	r0, #1207959552	; 0x48000000
 8001ab4:	ea09 0e06 	and.w	lr, r9, r6
 8001ab8:	d03f      	beq.n	8001b3a <HAL_GPIO_DeInit+0xca>
 8001aba:	4e24      	ldr	r6, [pc, #144]	; (8001b4c <HAL_GPIO_DeInit+0xdc>)
 8001abc:	42b0      	cmp	r0, r6
 8001abe:	d03e      	beq.n	8001b3e <HAL_GPIO_DeInit+0xce>
 8001ac0:	f506 6680 	add.w	r6, r6, #1024	; 0x400
 8001ac4:	42b0      	cmp	r0, r6
 8001ac6:	d03c      	beq.n	8001b42 <HAL_GPIO_DeInit+0xd2>
 8001ac8:	f506 6680 	add.w	r6, r6, #1024	; 0x400
 8001acc:	42b0      	cmp	r0, r6
 8001ace:	bf0c      	ite	eq
 8001ad0:	2603      	moveq	r6, #3
 8001ad2:	2607      	movne	r6, #7
 8001ad4:	40be      	lsls	r6, r7
 8001ad6:	4576      	cmp	r6, lr
 8001ad8:	d110      	bne.n	8001afc <HAL_GPIO_DeInit+0x8c>
 8001ada:	6816      	ldr	r6, [r2, #0]
 8001adc:	43e4      	mvns	r4, r4
 8001ade:	4026      	ands	r6, r4
 8001ae0:	6016      	str	r6, [r2, #0]
 8001ae2:	6856      	ldr	r6, [r2, #4]
 8001ae4:	4026      	ands	r6, r4
 8001ae6:	6056      	str	r6, [r2, #4]
 8001ae8:	6896      	ldr	r6, [r2, #8]
 8001aea:	4026      	ands	r6, r4
 8001aec:	6096      	str	r6, [r2, #8]
 8001aee:	68d6      	ldr	r6, [r2, #12]
 8001af0:	4034      	ands	r4, r6
 8001af2:	60d4      	str	r4, [r2, #12]
 8001af4:	68ac      	ldr	r4, [r5, #8]
 8001af6:	ea24 0409 	bic.w	r4, r4, r9
 8001afa:	60ac      	str	r4, [r5, #8]
 8001afc:	6805      	ldr	r5, [r0, #0]
 8001afe:	005c      	lsls	r4, r3, #1
 8001b00:	fa0b f404 	lsl.w	r4, fp, r4
 8001b04:	08de      	lsrs	r6, r3, #3
 8001b06:	4325      	orrs	r5, r4
 8001b08:	eb00 0686 	add.w	r6, r0, r6, lsl #2
 8001b0c:	6005      	str	r5, [r0, #0]
 8001b0e:	f003 0507 	and.w	r5, r3, #7
 8001b12:	6a37      	ldr	r7, [r6, #32]
 8001b14:	00ad      	lsls	r5, r5, #2
 8001b16:	fa08 f505 	lsl.w	r5, r8, r5
 8001b1a:	ea27 0505 	bic.w	r5, r7, r5
 8001b1e:	6235      	str	r5, [r6, #32]
 8001b20:	6885      	ldr	r5, [r0, #8]
 8001b22:	43e4      	mvns	r4, r4
 8001b24:	4025      	ands	r5, r4
 8001b26:	6085      	str	r5, [r0, #8]
 8001b28:	6845      	ldr	r5, [r0, #4]
 8001b2a:	ea25 050c 	bic.w	r5, r5, ip
 8001b2e:	6045      	str	r5, [r0, #4]
 8001b30:	68c5      	ldr	r5, [r0, #12]
 8001b32:	402c      	ands	r4, r5
 8001b34:	60c4      	str	r4, [r0, #12]
 8001b36:	3301      	adds	r3, #1
 8001b38:	e7a4      	b.n	8001a84 <HAL_GPIO_DeInit+0x14>
 8001b3a:	2600      	movs	r6, #0
 8001b3c:	e7ca      	b.n	8001ad4 <HAL_GPIO_DeInit+0x64>
 8001b3e:	2601      	movs	r6, #1
 8001b40:	e7c8      	b.n	8001ad4 <HAL_GPIO_DeInit+0x64>
 8001b42:	2602      	movs	r6, #2
 8001b44:	e7c6      	b.n	8001ad4 <HAL_GPIO_DeInit+0x64>
 8001b46:	bf00      	nop
 8001b48:	40010400 	.word	0x40010400
 8001b4c:	48000400 	.word	0x48000400

08001b50 <HAL_GPIO_ReadPin>:
 8001b50:	6903      	ldr	r3, [r0, #16]
 8001b52:	4219      	tst	r1, r3
 8001b54:	bf14      	ite	ne
 8001b56:	2001      	movne	r0, #1
 8001b58:	2000      	moveq	r0, #0
 8001b5a:	4770      	bx	lr

08001b5c <HAL_GPIO_WritePin>:
 8001b5c:	b10a      	cbz	r2, 8001b62 <HAL_GPIO_WritePin+0x6>
 8001b5e:	6181      	str	r1, [r0, #24]
 8001b60:	4770      	bx	lr
 8001b62:	6281      	str	r1, [r0, #40]	; 0x28
 8001b64:	4770      	bx	lr
	...

08001b68 <HAL_PWREx_GetVoltageRange>:
 8001b68:	4b02      	ldr	r3, [pc, #8]	; (8001b74 <HAL_PWREx_GetVoltageRange+0xc>)
 8001b6a:	6818      	ldr	r0, [r3, #0]
 8001b6c:	f400 60c0 	and.w	r0, r0, #1536	; 0x600
 8001b70:	4770      	bx	lr
 8001b72:	bf00      	nop
 8001b74:	40007000 	.word	0x40007000

08001b78 <HAL_PWREx_ControlVoltageScaling>:
 8001b78:	4b17      	ldr	r3, [pc, #92]	; (8001bd8 <HAL_PWREx_ControlVoltageScaling+0x60>)
 8001b7a:	681a      	ldr	r2, [r3, #0]
 8001b7c:	f5b0 7f00 	cmp.w	r0, #512	; 0x200
 8001b80:	f402 62c0 	and.w	r2, r2, #1536	; 0x600
 8001b84:	d11c      	bne.n	8001bc0 <HAL_PWREx_ControlVoltageScaling+0x48>
 8001b86:	f5b2 7f00 	cmp.w	r2, #512	; 0x200
 8001b8a:	d015      	beq.n	8001bb8 <HAL_PWREx_ControlVoltageScaling+0x40>
 8001b8c:	681a      	ldr	r2, [r3, #0]
 8001b8e:	f422 62c0 	bic.w	r2, r2, #1536	; 0x600
 8001b92:	f442 7200 	orr.w	r2, r2, #512	; 0x200
 8001b96:	601a      	str	r2, [r3, #0]
 8001b98:	4a10      	ldr	r2, [pc, #64]	; (8001bdc <HAL_PWREx_ControlVoltageScaling+0x64>)
 8001b9a:	6811      	ldr	r1, [r2, #0]
 8001b9c:	2232      	movs	r2, #50	; 0x32
 8001b9e:	434a      	muls	r2, r1
 8001ba0:	490f      	ldr	r1, [pc, #60]	; (8001be0 <HAL_PWREx_ControlVoltageScaling+0x68>)
 8001ba2:	fbb2 f2f1 	udiv	r2, r2, r1
 8001ba6:	4619      	mov	r1, r3
 8001ba8:	3201      	adds	r2, #1
 8001baa:	6958      	ldr	r0, [r3, #20]
 8001bac:	0540      	lsls	r0, r0, #21
 8001bae:	d500      	bpl.n	8001bb2 <HAL_PWREx_ControlVoltageScaling+0x3a>
 8001bb0:	b922      	cbnz	r2, 8001bbc <HAL_PWREx_ControlVoltageScaling+0x44>
 8001bb2:	694b      	ldr	r3, [r1, #20]
 8001bb4:	055b      	lsls	r3, r3, #21
 8001bb6:	d40d      	bmi.n	8001bd4 <HAL_PWREx_ControlVoltageScaling+0x5c>
 8001bb8:	2000      	movs	r0, #0
 8001bba:	4770      	bx	lr
 8001bbc:	3a01      	subs	r2, #1
 8001bbe:	e7f4      	b.n	8001baa <HAL_PWREx_ControlVoltageScaling+0x32>
 8001bc0:	f5b2 6f80 	cmp.w	r2, #1024	; 0x400
 8001bc4:	bf1f      	itttt	ne
 8001bc6:	681a      	ldrne	r2, [r3, #0]
 8001bc8:	f422 62c0 	bicne.w	r2, r2, #1536	; 0x600
 8001bcc:	f442 6280 	orrne.w	r2, r2, #1024	; 0x400
 8001bd0:	601a      	strne	r2, [r3, #0]
 8001bd2:	e7f1      	b.n	8001bb8 <HAL_PWREx_ControlVoltageScaling+0x40>
 8001bd4:	2003      	movs	r0, #3
 8001bd6:	4770      	bx	lr
 8001bd8:	40007000 	.word	0x40007000
 8001bdc:	20000004 	.word	0x20000004
 8001be0:	000f4240 	.word	0x000f4240

08001be4 <RCC_SetFlashLatencyFromMSIRange>:
 8001be4:	b537      	push	{r0, r1, r2, r4, r5, lr}
 8001be6:	4d1e      	ldr	r5, [pc, #120]	; (8001c60 <RCC_SetFlashLatencyFromMSIRange+0x7c>)
 8001be8:	6dab      	ldr	r3, [r5, #88]	; 0x58
 8001bea:	00da      	lsls	r2, r3, #3
 8001bec:	4604      	mov	r4, r0
 8001bee:	d518      	bpl.n	8001c22 <RCC_SetFlashLatencyFromMSIRange+0x3e>
 8001bf0:	f7ff ffba 	bl	8001b68 <HAL_PWREx_GetVoltageRange>
 8001bf4:	f5b0 7f00 	cmp.w	r0, #512	; 0x200
 8001bf8:	d123      	bne.n	8001c42 <RCC_SetFlashLatencyFromMSIRange+0x5e>
 8001bfa:	2c80      	cmp	r4, #128	; 0x80
 8001bfc:	d929      	bls.n	8001c52 <RCC_SetFlashLatencyFromMSIRange+0x6e>
 8001bfe:	2ca0      	cmp	r4, #160	; 0xa0
 8001c00:	bf8c      	ite	hi
 8001c02:	2002      	movhi	r0, #2
 8001c04:	2001      	movls	r0, #1
 8001c06:	4a17      	ldr	r2, [pc, #92]	; (8001c64 <RCC_SetFlashLatencyFromMSIRange+0x80>)
 8001c08:	6813      	ldr	r3, [r2, #0]
 8001c0a:	f023 0307 	bic.w	r3, r3, #7
 8001c0e:	4303      	orrs	r3, r0
 8001c10:	6013      	str	r3, [r2, #0]
 8001c12:	6813      	ldr	r3, [r2, #0]
 8001c14:	f003 0307 	and.w	r3, r3, #7
 8001c18:	1a18      	subs	r0, r3, r0
 8001c1a:	bf18      	it	ne
 8001c1c:	2001      	movne	r0, #1
 8001c1e:	b003      	add	sp, #12
 8001c20:	bd30      	pop	{r4, r5, pc}
 8001c22:	6dab      	ldr	r3, [r5, #88]	; 0x58
 8001c24:	f043 5380 	orr.w	r3, r3, #268435456	; 0x10000000
 8001c28:	65ab      	str	r3, [r5, #88]	; 0x58
 8001c2a:	6dab      	ldr	r3, [r5, #88]	; 0x58
 8001c2c:	f003 5380 	and.w	r3, r3, #268435456	; 0x10000000
 8001c30:	9301      	str	r3, [sp, #4]
 8001c32:	9b01      	ldr	r3, [sp, #4]
 8001c34:	f7ff ff98 	bl	8001b68 <HAL_PWREx_GetVoltageRange>
 8001c38:	6dab      	ldr	r3, [r5, #88]	; 0x58
 8001c3a:	f023 5380 	bic.w	r3, r3, #268435456	; 0x10000000
 8001c3e:	65ab      	str	r3, [r5, #88]	; 0x58
 8001c40:	e7d8      	b.n	8001bf4 <RCC_SetFlashLatencyFromMSIRange+0x10>
 8001c42:	2c80      	cmp	r4, #128	; 0x80
 8001c44:	d807      	bhi.n	8001c56 <RCC_SetFlashLatencyFromMSIRange+0x72>
 8001c46:	d008      	beq.n	8001c5a <RCC_SetFlashLatencyFromMSIRange+0x76>
 8001c48:	f1a4 0370 	sub.w	r3, r4, #112	; 0x70
 8001c4c:	4258      	negs	r0, r3
 8001c4e:	4158      	adcs	r0, r3
 8001c50:	e7d9      	b.n	8001c06 <RCC_SetFlashLatencyFromMSIRange+0x22>
 8001c52:	2000      	movs	r0, #0
 8001c54:	e7d7      	b.n	8001c06 <RCC_SetFlashLatencyFromMSIRange+0x22>
 8001c56:	2003      	movs	r0, #3
 8001c58:	e7d5      	b.n	8001c06 <RCC_SetFlashLatencyFromMSIRange+0x22>
 8001c5a:	2002      	movs	r0, #2
 8001c5c:	e7d3      	b.n	8001c06 <RCC_SetFlashLatencyFromMSIRange+0x22>
 8001c5e:	bf00      	nop
 8001c60:	40021000 	.word	0x40021000
 8001c64:	40022000 	.word	0x40022000

08001c68 <HAL_RCC_GetSysClockFreq>:
 8001c68:	4b22      	ldr	r3, [pc, #136]	; (8001cf4 <HAL_RCC_GetSysClockFreq+0x8c>)
 8001c6a:	689a      	ldr	r2, [r3, #8]
 8001c6c:	68d9      	ldr	r1, [r3, #12]
 8001c6e:	f012 020c 	ands.w	r2, r2, #12
 8001c72:	d005      	beq.n	8001c80 <HAL_RCC_GetSysClockFreq+0x18>
 8001c74:	2a0c      	cmp	r2, #12
 8001c76:	d115      	bne.n	8001ca4 <HAL_RCC_GetSysClockFreq+0x3c>
 8001c78:	f001 0103 	and.w	r1, r1, #3
 8001c7c:	2901      	cmp	r1, #1
 8001c7e:	d118      	bne.n	8001cb2 <HAL_RCC_GetSysClockFreq+0x4a>
 8001c80:	6819      	ldr	r1, [r3, #0]
 8001c82:	481d      	ldr	r0, [pc, #116]	; (8001cf8 <HAL_RCC_GetSysClockFreq+0x90>)
 8001c84:	0709      	lsls	r1, r1, #28
 8001c86:	bf55      	itete	pl
 8001c88:	f8d3 1094 	ldrpl.w	r1, [r3, #148]	; 0x94
 8001c8c:	6819      	ldrmi	r1, [r3, #0]
 8001c8e:	f3c1 2103 	ubfxpl	r1, r1, #8, #4
 8001c92:	f3c1 1103 	ubfxmi	r1, r1, #4, #4
 8001c96:	f850 0021 	ldr.w	r0, [r0, r1, lsl #2]
 8001c9a:	b34a      	cbz	r2, 8001cf0 <HAL_RCC_GetSysClockFreq+0x88>
 8001c9c:	2a0c      	cmp	r2, #12
 8001c9e:	d009      	beq.n	8001cb4 <HAL_RCC_GetSysClockFreq+0x4c>
 8001ca0:	2000      	movs	r0, #0
 8001ca2:	4770      	bx	lr
 8001ca4:	2a04      	cmp	r2, #4
 8001ca6:	d022      	beq.n	8001cee <HAL_RCC_GetSysClockFreq+0x86>
 8001ca8:	2a08      	cmp	r2, #8
 8001caa:	4814      	ldr	r0, [pc, #80]	; (8001cfc <HAL_RCC_GetSysClockFreq+0x94>)
 8001cac:	bf18      	it	ne
 8001cae:	2000      	movne	r0, #0
 8001cb0:	4770      	bx	lr
 8001cb2:	2000      	movs	r0, #0
 8001cb4:	68da      	ldr	r2, [r3, #12]
 8001cb6:	f002 0203 	and.w	r2, r2, #3
 8001cba:	2a02      	cmp	r2, #2
 8001cbc:	d015      	beq.n	8001cea <HAL_RCC_GetSysClockFreq+0x82>
 8001cbe:	490f      	ldr	r1, [pc, #60]	; (8001cfc <HAL_RCC_GetSysClockFreq+0x94>)
 8001cc0:	2a03      	cmp	r2, #3
 8001cc2:	bf08      	it	eq
 8001cc4:	4608      	moveq	r0, r1
 8001cc6:	68da      	ldr	r2, [r3, #12]
 8001cc8:	68d9      	ldr	r1, [r3, #12]
 8001cca:	68db      	ldr	r3, [r3, #12]
 8001ccc:	f3c3 6341 	ubfx	r3, r3, #25, #2
 8001cd0:	f3c1 2106 	ubfx	r1, r1, #8, #7
 8001cd4:	f3c2 1202 	ubfx	r2, r2, #4, #3
 8001cd8:	3301      	adds	r3, #1
 8001cda:	4348      	muls	r0, r1
 8001cdc:	3201      	adds	r2, #1
 8001cde:	005b      	lsls	r3, r3, #1
 8001ce0:	fbb0 f0f2 	udiv	r0, r0, r2
 8001ce4:	fbb0 f0f3 	udiv	r0, r0, r3
 8001ce8:	4770      	bx	lr
 8001cea:	4805      	ldr	r0, [pc, #20]	; (8001d00 <HAL_RCC_GetSysClockFreq+0x98>)
 8001cec:	e7eb      	b.n	8001cc6 <HAL_RCC_GetSysClockFreq+0x5e>
 8001cee:	4804      	ldr	r0, [pc, #16]	; (8001d00 <HAL_RCC_GetSysClockFreq+0x98>)
 8001cf0:	4770      	bx	lr
 8001cf2:	bf00      	nop
 8001cf4:	40021000 	.word	0x40021000
 8001cf8:	08003148 	.word	0x08003148
 8001cfc:	007a1200 	.word	0x007a1200
 8001d00:	00f42400 	.word	0x00f42400

08001d04 <HAL_RCC_OscConfig>:
 8001d04:	e92d 43f7 	stmdb	sp!, {r0, r1, r2, r4, r5, r6, r7, r8, r9, lr}
 8001d08:	4605      	mov	r5, r0
 8001d0a:	b918      	cbnz	r0, 8001d14 <HAL_RCC_OscConfig+0x10>
 8001d0c:	2001      	movs	r0, #1
 8001d0e:	b003      	add	sp, #12
 8001d10:	e8bd 83f0 	ldmia.w	sp!, {r4, r5, r6, r7, r8, r9, pc}
 8001d14:	4c94      	ldr	r4, [pc, #592]	; (8001f68 <HAL_RCC_OscConfig+0x264>)
 8001d16:	6803      	ldr	r3, [r0, #0]
 8001d18:	68a6      	ldr	r6, [r4, #8]
 8001d1a:	68e7      	ldr	r7, [r4, #12]
 8001d1c:	06db      	lsls	r3, r3, #27
 8001d1e:	f006 060c 	and.w	r6, r6, #12
 8001d22:	f007 0703 	and.w	r7, r7, #3
 8001d26:	d53d      	bpl.n	8001da4 <HAL_RCC_OscConfig+0xa0>
 8001d28:	b11e      	cbz	r6, 8001d32 <HAL_RCC_OscConfig+0x2e>
 8001d2a:	2e0c      	cmp	r6, #12
 8001d2c:	d16a      	bne.n	8001e04 <HAL_RCC_OscConfig+0x100>
 8001d2e:	2f01      	cmp	r7, #1
 8001d30:	d168      	bne.n	8001e04 <HAL_RCC_OscConfig+0x100>
 8001d32:	6823      	ldr	r3, [r4, #0]
 8001d34:	0798      	lsls	r0, r3, #30
 8001d36:	d502      	bpl.n	8001d3e <HAL_RCC_OscConfig+0x3a>
 8001d38:	69eb      	ldr	r3, [r5, #28]
 8001d3a:	2b00      	cmp	r3, #0
 8001d3c:	d0e6      	beq.n	8001d0c <HAL_RCC_OscConfig+0x8>
 8001d3e:	6823      	ldr	r3, [r4, #0]
 8001d40:	6a68      	ldr	r0, [r5, #36]	; 0x24
 8001d42:	0719      	lsls	r1, r3, #28
 8001d44:	bf56      	itet	pl
 8001d46:	f8d4 3094 	ldrpl.w	r3, [r4, #148]	; 0x94
 8001d4a:	6823      	ldrmi	r3, [r4, #0]
 8001d4c:	091b      	lsrpl	r3, r3, #4
 8001d4e:	f003 03f0 	and.w	r3, r3, #240	; 0xf0
 8001d52:	4298      	cmp	r0, r3
 8001d54:	d93f      	bls.n	8001dd6 <HAL_RCC_OscConfig+0xd2>
 8001d56:	f7ff ff45 	bl	8001be4 <RCC_SetFlashLatencyFromMSIRange>
 8001d5a:	2800      	cmp	r0, #0
 8001d5c:	d1d6      	bne.n	8001d0c <HAL_RCC_OscConfig+0x8>
 8001d5e:	6823      	ldr	r3, [r4, #0]
 8001d60:	f043 0308 	orr.w	r3, r3, #8
 8001d64:	6023      	str	r3, [r4, #0]
 8001d66:	6823      	ldr	r3, [r4, #0]
 8001d68:	6a6a      	ldr	r2, [r5, #36]	; 0x24
 8001d6a:	f023 03f0 	bic.w	r3, r3, #240	; 0xf0
 8001d6e:	4313      	orrs	r3, r2
 8001d70:	6023      	str	r3, [r4, #0]
 8001d72:	6863      	ldr	r3, [r4, #4]
 8001d74:	6a2a      	ldr	r2, [r5, #32]
 8001d76:	f423 437f 	bic.w	r3, r3, #65280	; 0xff00
 8001d7a:	ea43 2302 	orr.w	r3, r3, r2, lsl #8
 8001d7e:	6063      	str	r3, [r4, #4]
 8001d80:	f7ff ff72 	bl	8001c68 <HAL_RCC_GetSysClockFreq>
 8001d84:	68a3      	ldr	r3, [r4, #8]
 8001d86:	4a79      	ldr	r2, [pc, #484]	; (8001f6c <HAL_RCC_OscConfig+0x268>)
 8001d88:	f3c3 1303 	ubfx	r3, r3, #4, #4
 8001d8c:	5cd3      	ldrb	r3, [r2, r3]
 8001d8e:	f003 031f 	and.w	r3, r3, #31
 8001d92:	40d8      	lsrs	r0, r3
 8001d94:	4b76      	ldr	r3, [pc, #472]	; (8001f70 <HAL_RCC_OscConfig+0x26c>)
 8001d96:	6018      	str	r0, [r3, #0]
 8001d98:	4b76      	ldr	r3, [pc, #472]	; (8001f74 <HAL_RCC_OscConfig+0x270>)
 8001d9a:	6818      	ldr	r0, [r3, #0]
 8001d9c:	f7fe ff10 	bl	8000bc0 <HAL_InitTick>
 8001da0:	2800      	cmp	r0, #0
 8001da2:	d1b4      	bne.n	8001d0e <HAL_RCC_OscConfig+0xa>
 8001da4:	682b      	ldr	r3, [r5, #0]
 8001da6:	07d8      	lsls	r0, r3, #31
 8001da8:	d463      	bmi.n	8001e72 <HAL_RCC_OscConfig+0x16e>
 8001daa:	682b      	ldr	r3, [r5, #0]
 8001dac:	0799      	lsls	r1, r3, #30
 8001dae:	f100 80a2 	bmi.w	8001ef6 <HAL_RCC_OscConfig+0x1f2>
 8001db2:	682b      	ldr	r3, [r5, #0]
 8001db4:	0718      	lsls	r0, r3, #28
 8001db6:	f100 80df 	bmi.w	8001f78 <HAL_RCC_OscConfig+0x274>
 8001dba:	682b      	ldr	r3, [r5, #0]
 8001dbc:	0759      	lsls	r1, r3, #29
 8001dbe:	f100 812f 	bmi.w	8002020 <HAL_RCC_OscConfig+0x31c>
 8001dc2:	682b      	ldr	r3, [r5, #0]
 8001dc4:	0699      	lsls	r1, r3, #26
 8001dc6:	f100 81a7 	bmi.w	8002118 <HAL_RCC_OscConfig+0x414>
 8001dca:	6aeb      	ldr	r3, [r5, #44]	; 0x2c
 8001dcc:	2b00      	cmp	r3, #0
 8001dce:	f040 81cd 	bne.w	800216c <HAL_RCC_OscConfig+0x468>
 8001dd2:	2000      	movs	r0, #0
 8001dd4:	e79b      	b.n	8001d0e <HAL_RCC_OscConfig+0xa>
 8001dd6:	6823      	ldr	r3, [r4, #0]
 8001dd8:	f043 0308 	orr.w	r3, r3, #8
 8001ddc:	6023      	str	r3, [r4, #0]
 8001dde:	6823      	ldr	r3, [r4, #0]
 8001de0:	f023 03f0 	bic.w	r3, r3, #240	; 0xf0
 8001de4:	4303      	orrs	r3, r0
 8001de6:	6023      	str	r3, [r4, #0]
 8001de8:	6863      	ldr	r3, [r4, #4]
 8001dea:	6a2a      	ldr	r2, [r5, #32]
 8001dec:	f423 437f 	bic.w	r3, r3, #65280	; 0xff00
 8001df0:	ea43 2302 	orr.w	r3, r3, r2, lsl #8
 8001df4:	6063      	str	r3, [r4, #4]
 8001df6:	2e00      	cmp	r6, #0
 8001df8:	d1c2      	bne.n	8001d80 <HAL_RCC_OscConfig+0x7c>
 8001dfa:	f7ff fef3 	bl	8001be4 <RCC_SetFlashLatencyFromMSIRange>
 8001dfe:	2800      	cmp	r0, #0
 8001e00:	d0be      	beq.n	8001d80 <HAL_RCC_OscConfig+0x7c>
 8001e02:	e783      	b.n	8001d0c <HAL_RCC_OscConfig+0x8>
 8001e04:	69eb      	ldr	r3, [r5, #28]
 8001e06:	b31b      	cbz	r3, 8001e50 <HAL_RCC_OscConfig+0x14c>
 8001e08:	6823      	ldr	r3, [r4, #0]
 8001e0a:	f043 0301 	orr.w	r3, r3, #1
 8001e0e:	6023      	str	r3, [r4, #0]
 8001e10:	f7fe ff18 	bl	8000c44 <HAL_GetTick>
 8001e14:	4680      	mov	r8, r0
 8001e16:	6823      	ldr	r3, [r4, #0]
 8001e18:	079a      	lsls	r2, r3, #30
 8001e1a:	d511      	bpl.n	8001e40 <HAL_RCC_OscConfig+0x13c>
 8001e1c:	6823      	ldr	r3, [r4, #0]
 8001e1e:	f043 0308 	orr.w	r3, r3, #8
 8001e22:	6023      	str	r3, [r4, #0]
 8001e24:	6823      	ldr	r3, [r4, #0]
 8001e26:	6a6a      	ldr	r2, [r5, #36]	; 0x24
 8001e28:	f023 03f0 	bic.w	r3, r3, #240	; 0xf0
 8001e2c:	4313      	orrs	r3, r2
 8001e2e:	6023      	str	r3, [r4, #0]
 8001e30:	6863      	ldr	r3, [r4, #4]
 8001e32:	6a2a      	ldr	r2, [r5, #32]
 8001e34:	f423 437f 	bic.w	r3, r3, #65280	; 0xff00
 8001e38:	ea43 2302 	orr.w	r3, r3, r2, lsl #8
 8001e3c:	6063      	str	r3, [r4, #4]
 8001e3e:	e7b1      	b.n	8001da4 <HAL_RCC_OscConfig+0xa0>
 8001e40:	f7fe ff00 	bl	8000c44 <HAL_GetTick>
 8001e44:	eba0 0008 	sub.w	r0, r0, r8
 8001e48:	2802      	cmp	r0, #2
 8001e4a:	d9e4      	bls.n	8001e16 <HAL_RCC_OscConfig+0x112>
 8001e4c:	2003      	movs	r0, #3
 8001e4e:	e75e      	b.n	8001d0e <HAL_RCC_OscConfig+0xa>
 8001e50:	6823      	ldr	r3, [r4, #0]
 8001e52:	f023 0301 	bic.w	r3, r3, #1
 8001e56:	6023      	str	r3, [r4, #0]
 8001e58:	f7fe fef4 	bl	8000c44 <HAL_GetTick>
 8001e5c:	4680      	mov	r8, r0
 8001e5e:	6823      	ldr	r3, [r4, #0]
 8001e60:	079b      	lsls	r3, r3, #30
 8001e62:	d59f      	bpl.n	8001da4 <HAL_RCC_OscConfig+0xa0>
 8001e64:	f7fe feee 	bl	8000c44 <HAL_GetTick>
 8001e68:	eba0 0008 	sub.w	r0, r0, r8
 8001e6c:	2802      	cmp	r0, #2
 8001e6e:	d9f6      	bls.n	8001e5e <HAL_RCC_OscConfig+0x15a>
 8001e70:	e7ec      	b.n	8001e4c <HAL_RCC_OscConfig+0x148>
 8001e72:	2e08      	cmp	r6, #8
 8001e74:	d003      	beq.n	8001e7e <HAL_RCC_OscConfig+0x17a>
 8001e76:	2e0c      	cmp	r6, #12
 8001e78:	d108      	bne.n	8001e8c <HAL_RCC_OscConfig+0x188>
 8001e7a:	2f03      	cmp	r7, #3
 8001e7c:	d106      	bne.n	8001e8c <HAL_RCC_OscConfig+0x188>
 8001e7e:	6823      	ldr	r3, [r4, #0]
 8001e80:	039a      	lsls	r2, r3, #14
 8001e82:	d592      	bpl.n	8001daa <HAL_RCC_OscConfig+0xa6>
 8001e84:	686b      	ldr	r3, [r5, #4]
 8001e86:	2b00      	cmp	r3, #0
 8001e88:	d18f      	bne.n	8001daa <HAL_RCC_OscConfig+0xa6>
 8001e8a:	e73f      	b.n	8001d0c <HAL_RCC_OscConfig+0x8>
 8001e8c:	686b      	ldr	r3, [r5, #4]
 8001e8e:	f5b3 3f80 	cmp.w	r3, #65536	; 0x10000
 8001e92:	d110      	bne.n	8001eb6 <HAL_RCC_OscConfig+0x1b2>
 8001e94:	6823      	ldr	r3, [r4, #0]
 8001e96:	f443 3380 	orr.w	r3, r3, #65536	; 0x10000
 8001e9a:	6023      	str	r3, [r4, #0]
 8001e9c:	f7fe fed2 	bl	8000c44 <HAL_GetTick>
 8001ea0:	4680      	mov	r8, r0
 8001ea2:	6823      	ldr	r3, [r4, #0]
 8001ea4:	039b      	lsls	r3, r3, #14
 8001ea6:	d480      	bmi.n	8001daa <HAL_RCC_OscConfig+0xa6>
 8001ea8:	f7fe fecc 	bl	8000c44 <HAL_GetTick>
 8001eac:	eba0 0008 	sub.w	r0, r0, r8
 8001eb0:	2864      	cmp	r0, #100	; 0x64
 8001eb2:	d9f6      	bls.n	8001ea2 <HAL_RCC_OscConfig+0x19e>
 8001eb4:	e7ca      	b.n	8001e4c <HAL_RCC_OscConfig+0x148>
 8001eb6:	f5b3 2fa0 	cmp.w	r3, #327680	; 0x50000
 8001eba:	d104      	bne.n	8001ec6 <HAL_RCC_OscConfig+0x1c2>
 8001ebc:	6823      	ldr	r3, [r4, #0]
 8001ebe:	f443 2380 	orr.w	r3, r3, #262144	; 0x40000
 8001ec2:	6023      	str	r3, [r4, #0]
 8001ec4:	e7e6      	b.n	8001e94 <HAL_RCC_OscConfig+0x190>
 8001ec6:	6822      	ldr	r2, [r4, #0]
 8001ec8:	f422 3280 	bic.w	r2, r2, #65536	; 0x10000
 8001ecc:	6022      	str	r2, [r4, #0]
 8001ece:	6822      	ldr	r2, [r4, #0]
 8001ed0:	f422 2280 	bic.w	r2, r2, #262144	; 0x40000
 8001ed4:	6022      	str	r2, [r4, #0]
 8001ed6:	2b00      	cmp	r3, #0
 8001ed8:	d1e0      	bne.n	8001e9c <HAL_RCC_OscConfig+0x198>
 8001eda:	f7fe feb3 	bl	8000c44 <HAL_GetTick>
 8001ede:	4680      	mov	r8, r0
 8001ee0:	6823      	ldr	r3, [r4, #0]
 8001ee2:	0398      	lsls	r0, r3, #14
 8001ee4:	f57f af61 	bpl.w	8001daa <HAL_RCC_OscConfig+0xa6>
 8001ee8:	f7fe feac 	bl	8000c44 <HAL_GetTick>
 8001eec:	eba0 0008 	sub.w	r0, r0, r8
 8001ef0:	2864      	cmp	r0, #100	; 0x64
 8001ef2:	d9f5      	bls.n	8001ee0 <HAL_RCC_OscConfig+0x1dc>
 8001ef4:	e7aa      	b.n	8001e4c <HAL_RCC_OscConfig+0x148>
 8001ef6:	2e04      	cmp	r6, #4
 8001ef8:	d003      	beq.n	8001f02 <HAL_RCC_OscConfig+0x1fe>
 8001efa:	2e0c      	cmp	r6, #12
 8001efc:	d110      	bne.n	8001f20 <HAL_RCC_OscConfig+0x21c>
 8001efe:	2f02      	cmp	r7, #2
 8001f00:	d10e      	bne.n	8001f20 <HAL_RCC_OscConfig+0x21c>
 8001f02:	6823      	ldr	r3, [r4, #0]
 8001f04:	0559      	lsls	r1, r3, #21
 8001f06:	d503      	bpl.n	8001f10 <HAL_RCC_OscConfig+0x20c>
 8001f08:	68eb      	ldr	r3, [r5, #12]
 8001f0a:	2b00      	cmp	r3, #0
 8001f0c:	f43f aefe 	beq.w	8001d0c <HAL_RCC_OscConfig+0x8>
 8001f10:	6863      	ldr	r3, [r4, #4]
 8001f12:	692a      	ldr	r2, [r5, #16]
 8001f14:	f023 43fe 	bic.w	r3, r3, #2130706432	; 0x7f000000
 8001f18:	ea43 6302 	orr.w	r3, r3, r2, lsl #24
 8001f1c:	6063      	str	r3, [r4, #4]
 8001f1e:	e748      	b.n	8001db2 <HAL_RCC_OscConfig+0xae>
 8001f20:	68eb      	ldr	r3, [r5, #12]
 8001f22:	b17b      	cbz	r3, 8001f44 <HAL_RCC_OscConfig+0x240>
 8001f24:	6823      	ldr	r3, [r4, #0]
 8001f26:	f443 7380 	orr.w	r3, r3, #256	; 0x100
 8001f2a:	6023      	str	r3, [r4, #0]
 8001f2c:	f7fe fe8a 	bl	8000c44 <HAL_GetTick>
 8001f30:	4607      	mov	r7, r0
 8001f32:	6823      	ldr	r3, [r4, #0]
 8001f34:	055a      	lsls	r2, r3, #21
 8001f36:	d4eb      	bmi.n	8001f10 <HAL_RCC_OscConfig+0x20c>
 8001f38:	f7fe fe84 	bl	8000c44 <HAL_GetTick>
 8001f3c:	1bc0      	subs	r0, r0, r7
 8001f3e:	2802      	cmp	r0, #2
 8001f40:	d9f7      	bls.n	8001f32 <HAL_RCC_OscConfig+0x22e>
 8001f42:	e783      	b.n	8001e4c <HAL_RCC_OscConfig+0x148>
 8001f44:	6823      	ldr	r3, [r4, #0]
 8001f46:	f423 7380 	bic.w	r3, r3, #256	; 0x100
 8001f4a:	6023      	str	r3, [r4, #0]
 8001f4c:	f7fe fe7a 	bl	8000c44 <HAL_GetTick>
 8001f50:	4607      	mov	r7, r0
 8001f52:	6823      	ldr	r3, [r4, #0]
 8001f54:	055b      	lsls	r3, r3, #21
 8001f56:	f57f af2c 	bpl.w	8001db2 <HAL_RCC_OscConfig+0xae>
 8001f5a:	f7fe fe73 	bl	8000c44 <HAL_GetTick>
 8001f5e:	1bc0      	subs	r0, r0, r7
 8001f60:	2802      	cmp	r0, #2
 8001f62:	d9f6      	bls.n	8001f52 <HAL_RCC_OscConfig+0x24e>
 8001f64:	e772      	b.n	8001e4c <HAL_RCC_OscConfig+0x148>
 8001f66:	bf00      	nop
 8001f68:	40021000 	.word	0x40021000
 8001f6c:	08003130 	.word	0x08003130
 8001f70:	20000004 	.word	0x20000004
 8001f74:	2000000c 	.word	0x2000000c
 8001f78:	696b      	ldr	r3, [r5, #20]
 8001f7a:	2b00      	cmp	r3, #0
 8001f7c:	d03c      	beq.n	8001ff8 <HAL_RCC_OscConfig+0x2f4>
 8001f7e:	f8d4 3094 	ldr.w	r3, [r4, #148]	; 0x94
 8001f82:	69a9      	ldr	r1, [r5, #24]
 8001f84:	f003 0210 	and.w	r2, r3, #16
 8001f88:	4291      	cmp	r1, r2
 8001f8a:	d00e      	beq.n	8001faa <HAL_RCC_OscConfig+0x2a6>
 8001f8c:	f003 0203 	and.w	r2, r3, #3
 8001f90:	2a02      	cmp	r2, #2
 8001f92:	f43f aebb 	beq.w	8001d0c <HAL_RCC_OscConfig+0x8>
 8001f96:	07da      	lsls	r2, r3, #31
 8001f98:	d41b      	bmi.n	8001fd2 <HAL_RCC_OscConfig+0x2ce>
 8001f9a:	f8d4 3094 	ldr.w	r3, [r4, #148]	; 0x94
 8001f9e:	69aa      	ldr	r2, [r5, #24]
 8001fa0:	f023 0310 	bic.w	r3, r3, #16
 8001fa4:	4313      	orrs	r3, r2
 8001fa6:	f8c4 3094 	str.w	r3, [r4, #148]	; 0x94
 8001faa:	f8d4 3094 	ldr.w	r3, [r4, #148]	; 0x94
 8001fae:	f043 0301 	orr.w	r3, r3, #1
 8001fb2:	f8c4 3094 	str.w	r3, [r4, #148]	; 0x94
 8001fb6:	f7fe fe45 	bl	8000c44 <HAL_GetTick>
 8001fba:	4607      	mov	r7, r0
 8001fbc:	f8d4 3094 	ldr.w	r3, [r4, #148]	; 0x94
 8001fc0:	0798      	lsls	r0, r3, #30
 8001fc2:	f53f aefa 	bmi.w	8001dba <HAL_RCC_OscConfig+0xb6>
 8001fc6:	f7fe fe3d 	bl	8000c44 <HAL_GetTick>
 8001fca:	1bc0      	subs	r0, r0, r7
 8001fcc:	2811      	cmp	r0, #17
 8001fce:	d9f5      	bls.n	8001fbc <HAL_RCC_OscConfig+0x2b8>
 8001fd0:	e73c      	b.n	8001e4c <HAL_RCC_OscConfig+0x148>
 8001fd2:	f8d4 3094 	ldr.w	r3, [r4, #148]	; 0x94
 8001fd6:	f023 0301 	bic.w	r3, r3, #1
 8001fda:	f8c4 3094 	str.w	r3, [r4, #148]	; 0x94
 8001fde:	f7fe fe31 	bl	8000c44 <HAL_GetTick>
 8001fe2:	4607      	mov	r7, r0
 8001fe4:	f8d4 3094 	ldr.w	r3, [r4, #148]	; 0x94
 8001fe8:	079b      	lsls	r3, r3, #30
 8001fea:	d5d6      	bpl.n	8001f9a <HAL_RCC_OscConfig+0x296>
 8001fec:	f7fe fe2a 	bl	8000c44 <HAL_GetTick>
 8001ff0:	1bc0      	subs	r0, r0, r7
 8001ff2:	2811      	cmp	r0, #17
 8001ff4:	d9f6      	bls.n	8001fe4 <HAL_RCC_OscConfig+0x2e0>
 8001ff6:	e729      	b.n	8001e4c <HAL_RCC_OscConfig+0x148>
 8001ff8:	f8d4 3094 	ldr.w	r3, [r4, #148]	; 0x94
 8001ffc:	f023 0301 	bic.w	r3, r3, #1
 8002000:	f8c4 3094 	str.w	r3, [r4, #148]	; 0x94
 8002004:	f7fe fe1e 	bl	8000c44 <HAL_GetTick>
 8002008:	4607      	mov	r7, r0
 800200a:	f8d4 3094 	ldr.w	r3, [r4, #148]	; 0x94
 800200e:	0799      	lsls	r1, r3, #30
 8002010:	f57f aed3 	bpl.w	8001dba <HAL_RCC_OscConfig+0xb6>
 8002014:	f7fe fe16 	bl	8000c44 <HAL_GetTick>
 8002018:	1bc0      	subs	r0, r0, r7
 800201a:	2811      	cmp	r0, #17
 800201c:	d9f5      	bls.n	800200a <HAL_RCC_OscConfig+0x306>
 800201e:	e715      	b.n	8001e4c <HAL_RCC_OscConfig+0x148>
 8002020:	6da3      	ldr	r3, [r4, #88]	; 0x58
 8002022:	00da      	lsls	r2, r3, #3
 8002024:	d42f      	bmi.n	8002086 <HAL_RCC_OscConfig+0x382>
 8002026:	6da3      	ldr	r3, [r4, #88]	; 0x58
 8002028:	f043 5380 	orr.w	r3, r3, #268435456	; 0x10000000
 800202c:	65a3      	str	r3, [r4, #88]	; 0x58
 800202e:	6da3      	ldr	r3, [r4, #88]	; 0x58
 8002030:	f003 5380 	and.w	r3, r3, #268435456	; 0x10000000
 8002034:	9301      	str	r3, [sp, #4]
 8002036:	9b01      	ldr	r3, [sp, #4]
 8002038:	f04f 0801 	mov.w	r8, #1
 800203c:	4f98      	ldr	r7, [pc, #608]	; (80022a0 <HAL_RCC_OscConfig+0x59c>)
 800203e:	683b      	ldr	r3, [r7, #0]
 8002040:	05db      	lsls	r3, r3, #23
 8002042:	d523      	bpl.n	800208c <HAL_RCC_OscConfig+0x388>
 8002044:	68aa      	ldr	r2, [r5, #8]
 8002046:	07d0      	lsls	r0, r2, #31
 8002048:	d431      	bmi.n	80020ae <HAL_RCC_OscConfig+0x3aa>
 800204a:	f8d4 3090 	ldr.w	r3, [r4, #144]	; 0x90
 800204e:	f023 0301 	bic.w	r3, r3, #1
 8002052:	f8c4 3090 	str.w	r3, [r4, #144]	; 0x90
 8002056:	f8d4 3090 	ldr.w	r3, [r4, #144]	; 0x90
 800205a:	f023 0304 	bic.w	r3, r3, #4
 800205e:	f8c4 3090 	str.w	r3, [r4, #144]	; 0x90
 8002062:	2a00      	cmp	r2, #0
 8002064:	d13a      	bne.n	80020dc <HAL_RCC_OscConfig+0x3d8>
 8002066:	f7fe fded 	bl	8000c44 <HAL_GetTick>
 800206a:	f241 3988 	movw	r9, #5000	; 0x1388
 800206e:	4607      	mov	r7, r0
 8002070:	f8d4 3090 	ldr.w	r3, [r4, #144]	; 0x90
 8002074:	0798      	lsls	r0, r3, #30
 8002076:	d449      	bmi.n	800210c <HAL_RCC_OscConfig+0x408>
 8002078:	f8d4 3090 	ldr.w	r3, [r4, #144]	; 0x90
 800207c:	f023 0380 	bic.w	r3, r3, #128	; 0x80
 8002080:	f8c4 3090 	str.w	r3, [r4, #144]	; 0x90
 8002084:	e033      	b.n	80020ee <HAL_RCC_OscConfig+0x3ea>
 8002086:	f04f 0800 	mov.w	r8, #0
 800208a:	e7d7      	b.n	800203c <HAL_RCC_OscConfig+0x338>
 800208c:	683b      	ldr	r3, [r7, #0]
 800208e:	f443 7380 	orr.w	r3, r3, #256	; 0x100
 8002092:	603b      	str	r3, [r7, #0]
 8002094:	f7fe fdd6 	bl	8000c44 <HAL_GetTick>
 8002098:	4681      	mov	r9, r0
 800209a:	683b      	ldr	r3, [r7, #0]
 800209c:	05d9      	lsls	r1, r3, #23
 800209e:	d4d1      	bmi.n	8002044 <HAL_RCC_OscConfig+0x340>
 80020a0:	f7fe fdd0 	bl	8000c44 <HAL_GetTick>
 80020a4:	eba0 0009 	sub.w	r0, r0, r9
 80020a8:	2802      	cmp	r0, #2
 80020aa:	d9f6      	bls.n	800209a <HAL_RCC_OscConfig+0x396>
 80020ac:	e6ce      	b.n	8001e4c <HAL_RCC_OscConfig+0x148>
 80020ae:	f8d4 3090 	ldr.w	r3, [r4, #144]	; 0x90
 80020b2:	f002 0180 	and.w	r1, r2, #128	; 0x80
 80020b6:	f023 0380 	bic.w	r3, r3, #128	; 0x80
 80020ba:	430b      	orrs	r3, r1
 80020bc:	f8c4 3090 	str.w	r3, [r4, #144]	; 0x90
 80020c0:	f8d4 3090 	ldr.w	r3, [r4, #144]	; 0x90
 80020c4:	0752      	lsls	r2, r2, #29
 80020c6:	bf42      	ittt	mi
 80020c8:	f043 0304 	orrmi.w	r3, r3, #4
 80020cc:	f8c4 3090 	strmi.w	r3, [r4, #144]	; 0x90
 80020d0:	f8d4 3090 	ldrmi.w	r3, [r4, #144]	; 0x90
 80020d4:	f043 0301 	orr.w	r3, r3, #1
 80020d8:	f8c4 3090 	str.w	r3, [r4, #144]	; 0x90
 80020dc:	f7fe fdb2 	bl	8000c44 <HAL_GetTick>
 80020e0:	f241 3988 	movw	r9, #5000	; 0x1388
 80020e4:	4607      	mov	r7, r0
 80020e6:	f8d4 3090 	ldr.w	r3, [r4, #144]	; 0x90
 80020ea:	079b      	lsls	r3, r3, #30
 80020ec:	d508      	bpl.n	8002100 <HAL_RCC_OscConfig+0x3fc>
 80020ee:	f1b8 0f00 	cmp.w	r8, #0
 80020f2:	f43f ae66 	beq.w	8001dc2 <HAL_RCC_OscConfig+0xbe>
 80020f6:	6da3      	ldr	r3, [r4, #88]	; 0x58
 80020f8:	f023 5380 	bic.w	r3, r3, #268435456	; 0x10000000
 80020fc:	65a3      	str	r3, [r4, #88]	; 0x58
 80020fe:	e660      	b.n	8001dc2 <HAL_RCC_OscConfig+0xbe>
 8002100:	f7fe fda0 	bl	8000c44 <HAL_GetTick>
 8002104:	1bc0      	subs	r0, r0, r7
 8002106:	4548      	cmp	r0, r9
 8002108:	d9ed      	bls.n	80020e6 <HAL_RCC_OscConfig+0x3e2>
 800210a:	e69f      	b.n	8001e4c <HAL_RCC_OscConfig+0x148>
 800210c:	f7fe fd9a 	bl	8000c44 <HAL_GetTick>
 8002110:	1bc0      	subs	r0, r0, r7
 8002112:	4548      	cmp	r0, r9
 8002114:	d9ac      	bls.n	8002070 <HAL_RCC_OscConfig+0x36c>
 8002116:	e699      	b.n	8001e4c <HAL_RCC_OscConfig+0x148>
 8002118:	6aab      	ldr	r3, [r5, #40]	; 0x28
 800211a:	b19b      	cbz	r3, 8002144 <HAL_RCC_OscConfig+0x440>
 800211c:	f8d4 3098 	ldr.w	r3, [r4, #152]	; 0x98
 8002120:	f043 0301 	orr.w	r3, r3, #1
 8002124:	f8c4 3098 	str.w	r3, [r4, #152]	; 0x98
 8002128:	f7fe fd8c 	bl	8000c44 <HAL_GetTick>
 800212c:	4607      	mov	r7, r0
 800212e:	f8d4 3098 	ldr.w	r3, [r4, #152]	; 0x98
 8002132:	079a      	lsls	r2, r3, #30
 8002134:	f53f ae49 	bmi.w	8001dca <HAL_RCC_OscConfig+0xc6>
 8002138:	f7fe fd84 	bl	8000c44 <HAL_GetTick>
 800213c:	1bc0      	subs	r0, r0, r7
 800213e:	2802      	cmp	r0, #2
 8002140:	d9f5      	bls.n	800212e <HAL_RCC_OscConfig+0x42a>
 8002142:	e683      	b.n	8001e4c <HAL_RCC_OscConfig+0x148>
 8002144:	f8d4 3098 	ldr.w	r3, [r4, #152]	; 0x98
 8002148:	f023 0301 	bic.w	r3, r3, #1
 800214c:	f8c4 3098 	str.w	r3, [r4, #152]	; 0x98
 8002150:	f7fe fd78 	bl	8000c44 <HAL_GetTick>
 8002154:	4607      	mov	r7, r0
 8002156:	f8d4 3098 	ldr.w	r3, [r4, #152]	; 0x98
 800215a:	079b      	lsls	r3, r3, #30
 800215c:	f57f ae35 	bpl.w	8001dca <HAL_RCC_OscConfig+0xc6>
 8002160:	f7fe fd70 	bl	8000c44 <HAL_GetTick>
 8002164:	1bc0      	subs	r0, r0, r7
 8002166:	2802      	cmp	r0, #2
 8002168:	d9f5      	bls.n	8002156 <HAL_RCC_OscConfig+0x452>
 800216a:	e66f      	b.n	8001e4c <HAL_RCC_OscConfig+0x148>
 800216c:	2b02      	cmp	r3, #2
 800216e:	d17a      	bne.n	8002266 <HAL_RCC_OscConfig+0x562>
 8002170:	68e3      	ldr	r3, [r4, #12]
 8002172:	6b2a      	ldr	r2, [r5, #48]	; 0x30
 8002174:	f003 0103 	and.w	r1, r3, #3
 8002178:	4291      	cmp	r1, r2
 800217a:	d11c      	bne.n	80021b6 <HAL_RCC_OscConfig+0x4b2>
 800217c:	6b69      	ldr	r1, [r5, #52]	; 0x34
 800217e:	f003 0270 	and.w	r2, r3, #112	; 0x70
 8002182:	3901      	subs	r1, #1
 8002184:	ebb2 1f01 	cmp.w	r2, r1, lsl #4
 8002188:	d115      	bne.n	80021b6 <HAL_RCC_OscConfig+0x4b2>
 800218a:	6ba9      	ldr	r1, [r5, #56]	; 0x38
 800218c:	f403 42fe 	and.w	r2, r3, #32512	; 0x7f00
 8002190:	ebb2 2f01 	cmp.w	r2, r1, lsl #8
 8002194:	d10f      	bne.n	80021b6 <HAL_RCC_OscConfig+0x4b2>
 8002196:	6bea      	ldr	r2, [r5, #60]	; 0x3c
 8002198:	0852      	lsrs	r2, r2, #1
 800219a:	f403 01c0 	and.w	r1, r3, #6291456	; 0x600000
 800219e:	3a01      	subs	r2, #1
 80021a0:	ebb1 5f42 	cmp.w	r1, r2, lsl #21
 80021a4:	d107      	bne.n	80021b6 <HAL_RCC_OscConfig+0x4b2>
 80021a6:	6c2a      	ldr	r2, [r5, #64]	; 0x40
 80021a8:	0852      	lsrs	r2, r2, #1
 80021aa:	f003 63c0 	and.w	r3, r3, #100663296	; 0x6000000
 80021ae:	3a01      	subs	r2, #1
 80021b0:	ebb3 6f42 	cmp.w	r3, r2, lsl #25
 80021b4:	d03e      	beq.n	8002234 <HAL_RCC_OscConfig+0x530>
 80021b6:	2e0c      	cmp	r6, #12
 80021b8:	f43f ada8 	beq.w	8001d0c <HAL_RCC_OscConfig+0x8>
 80021bc:	6823      	ldr	r3, [r4, #0]
 80021be:	f023 7380 	bic.w	r3, r3, #16777216	; 0x1000000
 80021c2:	6023      	str	r3, [r4, #0]
 80021c4:	f7fe fd3e 	bl	8000c44 <HAL_GetTick>
 80021c8:	4606      	mov	r6, r0
 80021ca:	6823      	ldr	r3, [r4, #0]
 80021cc:	019f      	lsls	r7, r3, #6
 80021ce:	d42b      	bmi.n	8002228 <HAL_RCC_OscConfig+0x524>
 80021d0:	68e2      	ldr	r2, [r4, #12]
 80021d2:	4b34      	ldr	r3, [pc, #208]	; (80022a4 <HAL_RCC_OscConfig+0x5a0>)
 80021d4:	4013      	ands	r3, r2
 80021d6:	6b2a      	ldr	r2, [r5, #48]	; 0x30
 80021d8:	4313      	orrs	r3, r2
 80021da:	6baa      	ldr	r2, [r5, #56]	; 0x38
 80021dc:	ea43 2302 	orr.w	r3, r3, r2, lsl #8
 80021e0:	6b6a      	ldr	r2, [r5, #52]	; 0x34
 80021e2:	3a01      	subs	r2, #1
 80021e4:	ea43 1302 	orr.w	r3, r3, r2, lsl #4
 80021e8:	6bea      	ldr	r2, [r5, #60]	; 0x3c
 80021ea:	0852      	lsrs	r2, r2, #1
 80021ec:	3a01      	subs	r2, #1
 80021ee:	ea43 5342 	orr.w	r3, r3, r2, lsl #21
 80021f2:	6c2a      	ldr	r2, [r5, #64]	; 0x40
 80021f4:	0852      	lsrs	r2, r2, #1
 80021f6:	3a01      	subs	r2, #1
 80021f8:	ea43 6342 	orr.w	r3, r3, r2, lsl #25
 80021fc:	60e3      	str	r3, [r4, #12]
 80021fe:	6823      	ldr	r3, [r4, #0]
 8002200:	f043 7380 	orr.w	r3, r3, #16777216	; 0x1000000
 8002204:	6023      	str	r3, [r4, #0]
 8002206:	68e3      	ldr	r3, [r4, #12]
 8002208:	f043 7380 	orr.w	r3, r3, #16777216	; 0x1000000
 800220c:	60e3      	str	r3, [r4, #12]
 800220e:	f7fe fd19 	bl	8000c44 <HAL_GetTick>
 8002212:	4605      	mov	r5, r0
 8002214:	6823      	ldr	r3, [r4, #0]
 8002216:	0198      	lsls	r0, r3, #6
 8002218:	f53f addb 	bmi.w	8001dd2 <HAL_RCC_OscConfig+0xce>
 800221c:	f7fe fd12 	bl	8000c44 <HAL_GetTick>
 8002220:	1b40      	subs	r0, r0, r5
 8002222:	2802      	cmp	r0, #2
 8002224:	d9f6      	bls.n	8002214 <HAL_RCC_OscConfig+0x510>
 8002226:	e611      	b.n	8001e4c <HAL_RCC_OscConfig+0x148>
 8002228:	f7fe fd0c 	bl	8000c44 <HAL_GetTick>
 800222c:	1b80      	subs	r0, r0, r6
 800222e:	2802      	cmp	r0, #2
 8002230:	d9cb      	bls.n	80021ca <HAL_RCC_OscConfig+0x4c6>
 8002232:	e60b      	b.n	8001e4c <HAL_RCC_OscConfig+0x148>
 8002234:	6823      	ldr	r3, [r4, #0]
 8002236:	0199      	lsls	r1, r3, #6
 8002238:	f53f adcb 	bmi.w	8001dd2 <HAL_RCC_OscConfig+0xce>
 800223c:	6823      	ldr	r3, [r4, #0]
 800223e:	f043 7380 	orr.w	r3, r3, #16777216	; 0x1000000
 8002242:	6023      	str	r3, [r4, #0]
 8002244:	68e3      	ldr	r3, [r4, #12]
 8002246:	f043 7380 	orr.w	r3, r3, #16777216	; 0x1000000
 800224a:	60e3      	str	r3, [r4, #12]
 800224c:	f7fe fcfa 	bl	8000c44 <HAL_GetTick>
 8002250:	4605      	mov	r5, r0
 8002252:	6823      	ldr	r3, [r4, #0]
 8002254:	019a      	lsls	r2, r3, #6
 8002256:	f53f adbc 	bmi.w	8001dd2 <HAL_RCC_OscConfig+0xce>
 800225a:	f7fe fcf3 	bl	8000c44 <HAL_GetTick>
 800225e:	1b40      	subs	r0, r0, r5
 8002260:	2802      	cmp	r0, #2
 8002262:	d9f6      	bls.n	8002252 <HAL_RCC_OscConfig+0x54e>
 8002264:	e5f2      	b.n	8001e4c <HAL_RCC_OscConfig+0x148>
 8002266:	2e0c      	cmp	r6, #12
 8002268:	f43f ad50 	beq.w	8001d0c <HAL_RCC_OscConfig+0x8>
 800226c:	6823      	ldr	r3, [r4, #0]
 800226e:	f023 7380 	bic.w	r3, r3, #16777216	; 0x1000000
 8002272:	6023      	str	r3, [r4, #0]
 8002274:	68e3      	ldr	r3, [r4, #12]
 8002276:	f023 0303 	bic.w	r3, r3, #3
 800227a:	60e3      	str	r3, [r4, #12]
 800227c:	68e3      	ldr	r3, [r4, #12]
 800227e:	f023 7388 	bic.w	r3, r3, #17825792	; 0x1100000
 8002282:	60e3      	str	r3, [r4, #12]
 8002284:	f7fe fcde 	bl	8000c44 <HAL_GetTick>
 8002288:	4605      	mov	r5, r0
 800228a:	6823      	ldr	r3, [r4, #0]
 800228c:	019b      	lsls	r3, r3, #6
 800228e:	f57f ada0 	bpl.w	8001dd2 <HAL_RCC_OscConfig+0xce>
 8002292:	f7fe fcd7 	bl	8000c44 <HAL_GetTick>
 8002296:	1b40      	subs	r0, r0, r5
 8002298:	2802      	cmp	r0, #2
 800229a:	d9f6      	bls.n	800228a <HAL_RCC_OscConfig+0x586>
 800229c:	e5d6      	b.n	8001e4c <HAL_RCC_OscConfig+0x148>
 800229e:	bf00      	nop
 80022a0:	40007000 	.word	0x40007000
 80022a4:	f99f808c 	.word	0xf99f808c

080022a8 <HAL_RCC_ClockConfig>:
 80022a8:	e92d 41f0 	stmdb	sp!, {r4, r5, r6, r7, r8, lr}
 80022ac:	460e      	mov	r6, r1
 80022ae:	4604      	mov	r4, r0
 80022b0:	b910      	cbnz	r0, 80022b8 <HAL_RCC_ClockConfig+0x10>
 80022b2:	2001      	movs	r0, #1
 80022b4:	e8bd 81f0 	ldmia.w	sp!, {r4, r5, r6, r7, r8, pc}
 80022b8:	4a40      	ldr	r2, [pc, #256]	; (80023bc <HAL_RCC_ClockConfig+0x114>)
 80022ba:	6813      	ldr	r3, [r2, #0]
 80022bc:	f003 0307 	and.w	r3, r3, #7
 80022c0:	428b      	cmp	r3, r1
 80022c2:	d32a      	bcc.n	800231a <HAL_RCC_ClockConfig+0x72>
 80022c4:	6823      	ldr	r3, [r4, #0]
 80022c6:	07d9      	lsls	r1, r3, #31
 80022c8:	d432      	bmi.n	8002330 <HAL_RCC_ClockConfig+0x88>
 80022ca:	6821      	ldr	r1, [r4, #0]
 80022cc:	078a      	lsls	r2, r1, #30
 80022ce:	d45b      	bmi.n	8002388 <HAL_RCC_ClockConfig+0xe0>
 80022d0:	4a3a      	ldr	r2, [pc, #232]	; (80023bc <HAL_RCC_ClockConfig+0x114>)
 80022d2:	6813      	ldr	r3, [r2, #0]
 80022d4:	f003 0307 	and.w	r3, r3, #7
 80022d8:	42b3      	cmp	r3, r6
 80022da:	d85d      	bhi.n	8002398 <HAL_RCC_ClockConfig+0xf0>
 80022dc:	f011 0f04 	tst.w	r1, #4
 80022e0:	4d37      	ldr	r5, [pc, #220]	; (80023c0 <HAL_RCC_ClockConfig+0x118>)
 80022e2:	d164      	bne.n	80023ae <HAL_RCC_ClockConfig+0x106>
 80022e4:	070b      	lsls	r3, r1, #28
 80022e6:	d506      	bpl.n	80022f6 <HAL_RCC_ClockConfig+0x4e>
 80022e8:	68ab      	ldr	r3, [r5, #8]
 80022ea:	6922      	ldr	r2, [r4, #16]
 80022ec:	f423 5360 	bic.w	r3, r3, #14336	; 0x3800
 80022f0:	ea43 03c2 	orr.w	r3, r3, r2, lsl #3
 80022f4:	60ab      	str	r3, [r5, #8]
 80022f6:	f7ff fcb7 	bl	8001c68 <HAL_RCC_GetSysClockFreq>
 80022fa:	68ab      	ldr	r3, [r5, #8]
 80022fc:	4a31      	ldr	r2, [pc, #196]	; (80023c4 <HAL_RCC_ClockConfig+0x11c>)
 80022fe:	f3c3 1303 	ubfx	r3, r3, #4, #4
 8002302:	e8bd 41f0 	ldmia.w	sp!, {r4, r5, r6, r7, r8, lr}
 8002306:	5cd3      	ldrb	r3, [r2, r3]
 8002308:	f003 031f 	and.w	r3, r3, #31
 800230c:	40d8      	lsrs	r0, r3
 800230e:	4b2e      	ldr	r3, [pc, #184]	; (80023c8 <HAL_RCC_ClockConfig+0x120>)
 8002310:	6018      	str	r0, [r3, #0]
 8002312:	4b2e      	ldr	r3, [pc, #184]	; (80023cc <HAL_RCC_ClockConfig+0x124>)
 8002314:	6818      	ldr	r0, [r3, #0]
 8002316:	f7fe bc53 	b.w	8000bc0 <HAL_InitTick>
 800231a:	6813      	ldr	r3, [r2, #0]
 800231c:	f023 0307 	bic.w	r3, r3, #7
 8002320:	430b      	orrs	r3, r1
 8002322:	6013      	str	r3, [r2, #0]
 8002324:	6813      	ldr	r3, [r2, #0]
 8002326:	f003 0307 	and.w	r3, r3, #7
 800232a:	428b      	cmp	r3, r1
 800232c:	d1c1      	bne.n	80022b2 <HAL_RCC_ClockConfig+0xa>
 800232e:	e7c9      	b.n	80022c4 <HAL_RCC_ClockConfig+0x1c>
 8002330:	6862      	ldr	r2, [r4, #4]
 8002332:	4d23      	ldr	r5, [pc, #140]	; (80023c0 <HAL_RCC_ClockConfig+0x118>)
 8002334:	2a03      	cmp	r2, #3
 8002336:	682b      	ldr	r3, [r5, #0]
 8002338:	d11a      	bne.n	8002370 <HAL_RCC_ClockConfig+0xc8>
 800233a:	f013 7f00 	tst.w	r3, #33554432	; 0x2000000
 800233e:	d0b8      	beq.n	80022b2 <HAL_RCC_ClockConfig+0xa>
 8002340:	68ab      	ldr	r3, [r5, #8]
 8002342:	f023 0303 	bic.w	r3, r3, #3
 8002346:	4313      	orrs	r3, r2
 8002348:	60ab      	str	r3, [r5, #8]
 800234a:	f7fe fc7b 	bl	8000c44 <HAL_GetTick>
 800234e:	f241 3888 	movw	r8, #5000	; 0x1388
 8002352:	4607      	mov	r7, r0
 8002354:	68ab      	ldr	r3, [r5, #8]
 8002356:	6862      	ldr	r2, [r4, #4]
 8002358:	f003 030c 	and.w	r3, r3, #12
 800235c:	ebb3 0f82 	cmp.w	r3, r2, lsl #2
 8002360:	d0b3      	beq.n	80022ca <HAL_RCC_ClockConfig+0x22>
 8002362:	f7fe fc6f 	bl	8000c44 <HAL_GetTick>
 8002366:	1bc0      	subs	r0, r0, r7
 8002368:	4540      	cmp	r0, r8
 800236a:	d9f3      	bls.n	8002354 <HAL_RCC_ClockConfig+0xac>
 800236c:	2003      	movs	r0, #3
 800236e:	e7a1      	b.n	80022b4 <HAL_RCC_ClockConfig+0xc>
 8002370:	2a02      	cmp	r2, #2
 8002372:	d102      	bne.n	800237a <HAL_RCC_ClockConfig+0xd2>
 8002374:	f413 3f00 	tst.w	r3, #131072	; 0x20000
 8002378:	e7e1      	b.n	800233e <HAL_RCC_ClockConfig+0x96>
 800237a:	b912      	cbnz	r2, 8002382 <HAL_RCC_ClockConfig+0xda>
 800237c:	f013 0f02 	tst.w	r3, #2
 8002380:	e7dd      	b.n	800233e <HAL_RCC_ClockConfig+0x96>
 8002382:	f413 6f80 	tst.w	r3, #1024	; 0x400
 8002386:	e7da      	b.n	800233e <HAL_RCC_ClockConfig+0x96>
 8002388:	4a0d      	ldr	r2, [pc, #52]	; (80023c0 <HAL_RCC_ClockConfig+0x118>)
 800238a:	68a0      	ldr	r0, [r4, #8]
 800238c:	6893      	ldr	r3, [r2, #8]
 800238e:	f023 03f0 	bic.w	r3, r3, #240	; 0xf0
 8002392:	4303      	orrs	r3, r0
 8002394:	6093      	str	r3, [r2, #8]
 8002396:	e79b      	b.n	80022d0 <HAL_RCC_ClockConfig+0x28>
 8002398:	6813      	ldr	r3, [r2, #0]
 800239a:	f023 0307 	bic.w	r3, r3, #7
 800239e:	4333      	orrs	r3, r6
 80023a0:	6013      	str	r3, [r2, #0]
 80023a2:	6813      	ldr	r3, [r2, #0]
 80023a4:	f003 0307 	and.w	r3, r3, #7
 80023a8:	42b3      	cmp	r3, r6
 80023aa:	d182      	bne.n	80022b2 <HAL_RCC_ClockConfig+0xa>
 80023ac:	e796      	b.n	80022dc <HAL_RCC_ClockConfig+0x34>
 80023ae:	68ab      	ldr	r3, [r5, #8]
 80023b0:	68e2      	ldr	r2, [r4, #12]
 80023b2:	f423 63e0 	bic.w	r3, r3, #1792	; 0x700
 80023b6:	4313      	orrs	r3, r2
 80023b8:	60ab      	str	r3, [r5, #8]
 80023ba:	e793      	b.n	80022e4 <HAL_RCC_ClockConfig+0x3c>
 80023bc:	40022000 	.word	0x40022000
 80023c0:	40021000 	.word	0x40021000
 80023c4:	08003130 	.word	0x08003130
 80023c8:	20000004 	.word	0x20000004
 80023cc:	2000000c 	.word	0x2000000c

080023d0 <HAL_RCC_GetPCLK1Freq>:
 80023d0:	4b05      	ldr	r3, [pc, #20]	; (80023e8 <HAL_RCC_GetPCLK1Freq+0x18>)
 80023d2:	4a06      	ldr	r2, [pc, #24]	; (80023ec <HAL_RCC_GetPCLK1Freq+0x1c>)
 80023d4:	689b      	ldr	r3, [r3, #8]
 80023d6:	f3c3 2302 	ubfx	r3, r3, #8, #3
 80023da:	5cd3      	ldrb	r3, [r2, r3]
 80023dc:	4a04      	ldr	r2, [pc, #16]	; (80023f0 <HAL_RCC_GetPCLK1Freq+0x20>)
 80023de:	6810      	ldr	r0, [r2, #0]
 80023e0:	f003 031f 	and.w	r3, r3, #31
 80023e4:	40d8      	lsrs	r0, r3
 80023e6:	4770      	bx	lr
 80023e8:	40021000 	.word	0x40021000
 80023ec:	08003140 	.word	0x08003140
 80023f0:	20000004 	.word	0x20000004

080023f4 <HAL_RCC_GetPCLK2Freq>:
 80023f4:	4b05      	ldr	r3, [pc, #20]	; (800240c <HAL_RCC_GetPCLK2Freq+0x18>)
 80023f6:	4a06      	ldr	r2, [pc, #24]	; (8002410 <HAL_RCC_GetPCLK2Freq+0x1c>)
 80023f8:	689b      	ldr	r3, [r3, #8]
 80023fa:	f3c3 23c2 	ubfx	r3, r3, #11, #3
 80023fe:	5cd3      	ldrb	r3, [r2, r3]
 8002400:	4a04      	ldr	r2, [pc, #16]	; (8002414 <HAL_RCC_GetPCLK2Freq+0x20>)
 8002402:	6810      	ldr	r0, [r2, #0]
 8002404:	f003 031f 	and.w	r3, r3, #31
 8002408:	40d8      	lsrs	r0, r3
 800240a:	4770      	bx	lr
 800240c:	40021000 	.word	0x40021000
 8002410:	08003140 	.word	0x08003140
 8002414:	20000004 	.word	0x20000004

08002418 <HAL_RCCEx_PeriphCLKConfig>:
 8002418:	e92d 41f3 	stmdb	sp!, {r0, r1, r4, r5, r6, r7, r8, lr}
 800241c:	4605      	mov	r5, r0
 800241e:	6800      	ldr	r0, [r0, #0]
 8002420:	f410 3000 	ands.w	r0, r0, #131072	; 0x20000
 8002424:	d04d      	beq.n	80024c2 <HAL_RCCEx_PeriphCLKConfig+0xaa>
 8002426:	4c74      	ldr	r4, [pc, #464]	; (80025f8 <HAL_RCCEx_PeriphCLKConfig+0x1e0>)
 8002428:	6da3      	ldr	r3, [r4, #88]	; 0x58
 800242a:	00d8      	lsls	r0, r3, #3
 800242c:	d43b      	bmi.n	80024a6 <HAL_RCCEx_PeriphCLKConfig+0x8e>
 800242e:	6da3      	ldr	r3, [r4, #88]	; 0x58
 8002430:	f043 5380 	orr.w	r3, r3, #268435456	; 0x10000000
 8002434:	65a3      	str	r3, [r4, #88]	; 0x58
 8002436:	6da3      	ldr	r3, [r4, #88]	; 0x58
 8002438:	f003 5380 	and.w	r3, r3, #268435456	; 0x10000000
 800243c:	9301      	str	r3, [sp, #4]
 800243e:	9b01      	ldr	r3, [sp, #4]
 8002440:	2601      	movs	r6, #1
 8002442:	4f6e      	ldr	r7, [pc, #440]	; (80025fc <HAL_RCCEx_PeriphCLKConfig+0x1e4>)
 8002444:	683b      	ldr	r3, [r7, #0]
 8002446:	f443 7380 	orr.w	r3, r3, #256	; 0x100
 800244a:	603b      	str	r3, [r7, #0]
 800244c:	f7fe fbfa 	bl	8000c44 <HAL_GetTick>
 8002450:	4680      	mov	r8, r0
 8002452:	683b      	ldr	r3, [r7, #0]
 8002454:	05d9      	lsls	r1, r3, #23
 8002456:	d528      	bpl.n	80024aa <HAL_RCCEx_PeriphCLKConfig+0x92>
 8002458:	f8d4 3090 	ldr.w	r3, [r4, #144]	; 0x90
 800245c:	f413 7340 	ands.w	r3, r3, #768	; 0x300
 8002460:	d014      	beq.n	800248c <HAL_RCCEx_PeriphCLKConfig+0x74>
 8002462:	6b2a      	ldr	r2, [r5, #48]	; 0x30
 8002464:	429a      	cmp	r2, r3
 8002466:	d011      	beq.n	800248c <HAL_RCCEx_PeriphCLKConfig+0x74>
 8002468:	f8d4 3090 	ldr.w	r3, [r4, #144]	; 0x90
 800246c:	f8d4 2090 	ldr.w	r2, [r4, #144]	; 0x90
 8002470:	f442 3280 	orr.w	r2, r2, #65536	; 0x10000
 8002474:	f8c4 2090 	str.w	r2, [r4, #144]	; 0x90
 8002478:	f8d4 2090 	ldr.w	r2, [r4, #144]	; 0x90
 800247c:	f423 7340 	bic.w	r3, r3, #768	; 0x300
 8002480:	f422 3280 	bic.w	r2, r2, #65536	; 0x10000
 8002484:	f8c4 2090 	str.w	r2, [r4, #144]	; 0x90
 8002488:	f8c4 3090 	str.w	r3, [r4, #144]	; 0x90
 800248c:	07da      	lsls	r2, r3, #31
 800248e:	f100 80a3 	bmi.w	80025d8 <HAL_RCCEx_PeriphCLKConfig+0x1c0>
 8002492:	f8d4 3090 	ldr.w	r3, [r4, #144]	; 0x90
 8002496:	6b2a      	ldr	r2, [r5, #48]	; 0x30
 8002498:	f423 7340 	bic.w	r3, r3, #768	; 0x300
 800249c:	4313      	orrs	r3, r2
 800249e:	f8c4 3090 	str.w	r3, [r4, #144]	; 0x90
 80024a2:	2000      	movs	r0, #0
 80024a4:	e008      	b.n	80024b8 <HAL_RCCEx_PeriphCLKConfig+0xa0>
 80024a6:	2600      	movs	r6, #0
 80024a8:	e7cb      	b.n	8002442 <HAL_RCCEx_PeriphCLKConfig+0x2a>
 80024aa:	f7fe fbcb 	bl	8000c44 <HAL_GetTick>
 80024ae:	eba0 0008 	sub.w	r0, r0, r8
 80024b2:	2802      	cmp	r0, #2
 80024b4:	d9cd      	bls.n	8002452 <HAL_RCCEx_PeriphCLKConfig+0x3a>
 80024b6:	2003      	movs	r0, #3
 80024b8:	b11e      	cbz	r6, 80024c2 <HAL_RCCEx_PeriphCLKConfig+0xaa>
 80024ba:	6da3      	ldr	r3, [r4, #88]	; 0x58
 80024bc:	f023 5380 	bic.w	r3, r3, #268435456	; 0x10000000
 80024c0:	65a3      	str	r3, [r4, #88]	; 0x58
 80024c2:	682b      	ldr	r3, [r5, #0]
 80024c4:	07df      	lsls	r7, r3, #31
 80024c6:	d508      	bpl.n	80024da <HAL_RCCEx_PeriphCLKConfig+0xc2>
 80024c8:	494b      	ldr	r1, [pc, #300]	; (80025f8 <HAL_RCCEx_PeriphCLKConfig+0x1e0>)
 80024ca:	686c      	ldr	r4, [r5, #4]
 80024cc:	f8d1 2088 	ldr.w	r2, [r1, #136]	; 0x88
 80024d0:	f022 0203 	bic.w	r2, r2, #3
 80024d4:	4322      	orrs	r2, r4
 80024d6:	f8c1 2088 	str.w	r2, [r1, #136]	; 0x88
 80024da:	079e      	lsls	r6, r3, #30
 80024dc:	d508      	bpl.n	80024f0 <HAL_RCCEx_PeriphCLKConfig+0xd8>
 80024de:	4946      	ldr	r1, [pc, #280]	; (80025f8 <HAL_RCCEx_PeriphCLKConfig+0x1e0>)
 80024e0:	68ac      	ldr	r4, [r5, #8]
 80024e2:	f8d1 2088 	ldr.w	r2, [r1, #136]	; 0x88
 80024e6:	f022 020c 	bic.w	r2, r2, #12
 80024ea:	4322      	orrs	r2, r4
 80024ec:	f8c1 2088 	str.w	r2, [r1, #136]	; 0x88
 80024f0:	075c      	lsls	r4, r3, #29
 80024f2:	d508      	bpl.n	8002506 <HAL_RCCEx_PeriphCLKConfig+0xee>
 80024f4:	4940      	ldr	r1, [pc, #256]	; (80025f8 <HAL_RCCEx_PeriphCLKConfig+0x1e0>)
 80024f6:	68ec      	ldr	r4, [r5, #12]
 80024f8:	f8d1 2088 	ldr.w	r2, [r1, #136]	; 0x88
 80024fc:	f022 0230 	bic.w	r2, r2, #48	; 0x30
 8002500:	4322      	orrs	r2, r4
 8002502:	f8c1 2088 	str.w	r2, [r1, #136]	; 0x88
 8002506:	0699      	lsls	r1, r3, #26
 8002508:	d508      	bpl.n	800251c <HAL_RCCEx_PeriphCLKConfig+0x104>
 800250a:	493b      	ldr	r1, [pc, #236]	; (80025f8 <HAL_RCCEx_PeriphCLKConfig+0x1e0>)
 800250c:	692c      	ldr	r4, [r5, #16]
 800250e:	f8d1 2088 	ldr.w	r2, [r1, #136]	; 0x88
 8002512:	f422 6240 	bic.w	r2, r2, #3072	; 0xc00
 8002516:	4322      	orrs	r2, r4
 8002518:	f8c1 2088 	str.w	r2, [r1, #136]	; 0x88
 800251c:	059a      	lsls	r2, r3, #22
 800251e:	d508      	bpl.n	8002532 <HAL_RCCEx_PeriphCLKConfig+0x11a>
 8002520:	4935      	ldr	r1, [pc, #212]	; (80025f8 <HAL_RCCEx_PeriphCLKConfig+0x1e0>)
 8002522:	6a2c      	ldr	r4, [r5, #32]
 8002524:	f8d1 2088 	ldr.w	r2, [r1, #136]	; 0x88
 8002528:	f422 2240 	bic.w	r2, r2, #786432	; 0xc0000
 800252c:	4322      	orrs	r2, r4
 800252e:	f8c1 2088 	str.w	r2, [r1, #136]	; 0x88
 8002532:	055f      	lsls	r7, r3, #21
 8002534:	d508      	bpl.n	8002548 <HAL_RCCEx_PeriphCLKConfig+0x130>
 8002536:	4930      	ldr	r1, [pc, #192]	; (80025f8 <HAL_RCCEx_PeriphCLKConfig+0x1e0>)
 8002538:	6a6c      	ldr	r4, [r5, #36]	; 0x24
 800253a:	f8d1 2088 	ldr.w	r2, [r1, #136]	; 0x88
 800253e:	f422 1240 	bic.w	r2, r2, #3145728	; 0x300000
 8002542:	4322      	orrs	r2, r4
 8002544:	f8c1 2088 	str.w	r2, [r1, #136]	; 0x88
 8002548:	065e      	lsls	r6, r3, #25
 800254a:	d508      	bpl.n	800255e <HAL_RCCEx_PeriphCLKConfig+0x146>
 800254c:	492a      	ldr	r1, [pc, #168]	; (80025f8 <HAL_RCCEx_PeriphCLKConfig+0x1e0>)
 800254e:	696c      	ldr	r4, [r5, #20]
 8002550:	f8d1 2088 	ldr.w	r2, [r1, #136]	; 0x88
 8002554:	f422 5240 	bic.w	r2, r2, #12288	; 0x3000
 8002558:	4322      	orrs	r2, r4
 800255a:	f8c1 2088 	str.w	r2, [r1, #136]	; 0x88
 800255e:	061c      	lsls	r4, r3, #24
 8002560:	d508      	bpl.n	8002574 <HAL_RCCEx_PeriphCLKConfig+0x15c>
 8002562:	4925      	ldr	r1, [pc, #148]	; (80025f8 <HAL_RCCEx_PeriphCLKConfig+0x1e0>)
 8002564:	69ac      	ldr	r4, [r5, #24]
 8002566:	f8d1 2088 	ldr.w	r2, [r1, #136]	; 0x88
 800256a:	f422 4240 	bic.w	r2, r2, #49152	; 0xc000
 800256e:	4322      	orrs	r2, r4
 8002570:	f8c1 2088 	str.w	r2, [r1, #136]	; 0x88
 8002574:	05d9      	lsls	r1, r3, #23
 8002576:	d508      	bpl.n	800258a <HAL_RCCEx_PeriphCLKConfig+0x172>
 8002578:	491f      	ldr	r1, [pc, #124]	; (80025f8 <HAL_RCCEx_PeriphCLKConfig+0x1e0>)
 800257a:	69ec      	ldr	r4, [r5, #28]
 800257c:	f8d1 2088 	ldr.w	r2, [r1, #136]	; 0x88
 8002580:	f422 3240 	bic.w	r2, r2, #196608	; 0x30000
 8002584:	4322      	orrs	r2, r4
 8002586:	f8c1 2088 	str.w	r2, [r1, #136]	; 0x88
 800258a:	049a      	lsls	r2, r3, #18
 800258c:	d50f      	bpl.n	80025ae <HAL_RCCEx_PeriphCLKConfig+0x196>
 800258e:	491a      	ldr	r1, [pc, #104]	; (80025f8 <HAL_RCCEx_PeriphCLKConfig+0x1e0>)
 8002590:	6aac      	ldr	r4, [r5, #40]	; 0x28
 8002592:	f8d1 2088 	ldr.w	r2, [r1, #136]	; 0x88
 8002596:	f022 6240 	bic.w	r2, r2, #201326592	; 0xc000000
 800259a:	4322      	orrs	r2, r4
 800259c:	f8c1 2088 	str.w	r2, [r1, #136]	; 0x88
 80025a0:	f1b4 6f00 	cmp.w	r4, #134217728	; 0x8000000
 80025a4:	bf02      	ittt	eq
 80025a6:	68ca      	ldreq	r2, [r1, #12]
 80025a8:	f442 1280 	orreq.w	r2, r2, #1048576	; 0x100000
 80025ac:	60ca      	streq	r2, [r1, #12]
 80025ae:	035b      	lsls	r3, r3, #13
 80025b0:	d50f      	bpl.n	80025d2 <HAL_RCCEx_PeriphCLKConfig+0x1ba>
 80025b2:	4a11      	ldr	r2, [pc, #68]	; (80025f8 <HAL_RCCEx_PeriphCLKConfig+0x1e0>)
 80025b4:	6ae9      	ldr	r1, [r5, #44]	; 0x2c
 80025b6:	f8d2 3088 	ldr.w	r3, [r2, #136]	; 0x88
 80025ba:	f023 6340 	bic.w	r3, r3, #201326592	; 0xc000000
 80025be:	430b      	orrs	r3, r1
 80025c0:	f1b1 6f00 	cmp.w	r1, #134217728	; 0x8000000
 80025c4:	f8c2 3088 	str.w	r3, [r2, #136]	; 0x88
 80025c8:	d103      	bne.n	80025d2 <HAL_RCCEx_PeriphCLKConfig+0x1ba>
 80025ca:	68d3      	ldr	r3, [r2, #12]
 80025cc:	f443 1380 	orr.w	r3, r3, #1048576	; 0x100000
 80025d0:	60d3      	str	r3, [r2, #12]
 80025d2:	b002      	add	sp, #8
 80025d4:	e8bd 81f0 	ldmia.w	sp!, {r4, r5, r6, r7, r8, pc}
 80025d8:	f7fe fb34 	bl	8000c44 <HAL_GetTick>
 80025dc:	f241 3888 	movw	r8, #5000	; 0x1388
 80025e0:	4607      	mov	r7, r0
 80025e2:	f8d4 3090 	ldr.w	r3, [r4, #144]	; 0x90
 80025e6:	079b      	lsls	r3, r3, #30
 80025e8:	f53f af53 	bmi.w	8002492 <HAL_RCCEx_PeriphCLKConfig+0x7a>
 80025ec:	f7fe fb2a 	bl	8000c44 <HAL_GetTick>
 80025f0:	1bc0      	subs	r0, r0, r7
 80025f2:	4540      	cmp	r0, r8
 80025f4:	d9f5      	bls.n	80025e2 <HAL_RCCEx_PeriphCLKConfig+0x1ca>
 80025f6:	e75e      	b.n	80024b6 <HAL_RCCEx_PeriphCLKConfig+0x9e>
 80025f8:	40021000 	.word	0x40021000
 80025fc:	40007000 	.word	0x40007000

08002600 <HAL_TIM_Base_Start_IT>:
 8002600:	f890 303d 	ldrb.w	r3, [r0, #61]	; 0x3d
 8002604:	2b01      	cmp	r3, #1
 8002606:	d11f      	bne.n	8002648 <HAL_TIM_Base_Start_IT+0x48>
 8002608:	2302      	movs	r3, #2
 800260a:	f880 303d 	strb.w	r3, [r0, #61]	; 0x3d
 800260e:	6803      	ldr	r3, [r0, #0]
 8002610:	68da      	ldr	r2, [r3, #12]
 8002612:	f042 0201 	orr.w	r2, r2, #1
 8002616:	60da      	str	r2, [r3, #12]
 8002618:	4a0c      	ldr	r2, [pc, #48]	; (800264c <HAL_TIM_Base_Start_IT+0x4c>)
 800261a:	4293      	cmp	r3, r2
 800261c:	d006      	beq.n	800262c <HAL_TIM_Base_Start_IT+0x2c>
 800261e:	f1b3 4f80 	cmp.w	r3, #1073741824	; 0x40000000
 8002622:	d003      	beq.n	800262c <HAL_TIM_Base_Start_IT+0x2c>
 8002624:	f502 52a0 	add.w	r2, r2, #5120	; 0x1400
 8002628:	4293      	cmp	r3, r2
 800262a:	d107      	bne.n	800263c <HAL_TIM_Base_Start_IT+0x3c>
 800262c:	6899      	ldr	r1, [r3, #8]
 800262e:	4a08      	ldr	r2, [pc, #32]	; (8002650 <HAL_TIM_Base_Start_IT+0x50>)
 8002630:	400a      	ands	r2, r1
 8002632:	2a06      	cmp	r2, #6
 8002634:	d006      	beq.n	8002644 <HAL_TIM_Base_Start_IT+0x44>
 8002636:	f5b2 3f80 	cmp.w	r2, #65536	; 0x10000
 800263a:	d003      	beq.n	8002644 <HAL_TIM_Base_Start_IT+0x44>
 800263c:	681a      	ldr	r2, [r3, #0]
 800263e:	f042 0201 	orr.w	r2, r2, #1
 8002642:	601a      	str	r2, [r3, #0]
 8002644:	2000      	movs	r0, #0
 8002646:	4770      	bx	lr
 8002648:	2001      	movs	r0, #1
 800264a:	4770      	bx	lr
 800264c:	40012c00 	.word	0x40012c00
 8002650:	00010007 	.word	0x00010007

08002654 <HAL_TIM_Base_Stop_IT>:
 8002654:	6803      	ldr	r3, [r0, #0]
 8002656:	68da      	ldr	r2, [r3, #12]
 8002658:	f022 0201 	bic.w	r2, r2, #1
 800265c:	60da      	str	r2, [r3, #12]
 800265e:	6a19      	ldr	r1, [r3, #32]
 8002660:	f241 1211 	movw	r2, #4369	; 0x1111
 8002664:	4211      	tst	r1, r2
 8002666:	d108      	bne.n	800267a <HAL_TIM_Base_Stop_IT+0x26>
 8002668:	6a19      	ldr	r1, [r3, #32]
 800266a:	f240 4244 	movw	r2, #1092	; 0x444
 800266e:	4211      	tst	r1, r2
 8002670:	bf02      	ittt	eq
 8002672:	681a      	ldreq	r2, [r3, #0]
 8002674:	f022 0201 	biceq.w	r2, r2, #1
 8002678:	601a      	streq	r2, [r3, #0]
 800267a:	2301      	movs	r3, #1
 800267c:	f880 303d 	strb.w	r3, [r0, #61]	; 0x3d
 8002680:	2000      	movs	r0, #0
 8002682:	4770      	bx	lr

08002684 <HAL_TIM_OnePulse_MspInit>:
 8002684:	4770      	bx	lr

08002686 <HAL_TIM_PeriodElapsedCallback>:
 8002686:	4770      	bx	lr

08002688 <HAL_TIM_OC_DelayElapsedCallback>:
 8002688:	4770      	bx	lr

0800268a <HAL_TIM_IC_CaptureCallback>:
 800268a:	4770      	bx	lr

0800268c <HAL_TIM_PWM_PulseFinishedCallback>:
 800268c:	4770      	bx	lr

0800268e <HAL_TIM_TriggerCallback>:
 800268e:	4770      	bx	lr

08002690 <HAL_TIM_IRQHandler>:
 8002690:	6803      	ldr	r3, [r0, #0]
 8002692:	691a      	ldr	r2, [r3, #16]
 8002694:	0791      	lsls	r1, r2, #30
 8002696:	b510      	push	{r4, lr}
 8002698:	4604      	mov	r4, r0
 800269a:	d50f      	bpl.n	80026bc <HAL_TIM_IRQHandler+0x2c>
 800269c:	68da      	ldr	r2, [r3, #12]
 800269e:	0792      	lsls	r2, r2, #30
 80026a0:	d50c      	bpl.n	80026bc <HAL_TIM_IRQHandler+0x2c>
 80026a2:	f06f 0202 	mvn.w	r2, #2
 80026a6:	611a      	str	r2, [r3, #16]
 80026a8:	699b      	ldr	r3, [r3, #24]
 80026aa:	2201      	movs	r2, #1
 80026ac:	0799      	lsls	r1, r3, #30
 80026ae:	7702      	strb	r2, [r0, #28]
 80026b0:	f000 8085 	beq.w	80027be <HAL_TIM_IRQHandler+0x12e>
 80026b4:	f7ff ffe9 	bl	800268a <HAL_TIM_IC_CaptureCallback>
 80026b8:	2300      	movs	r3, #0
 80026ba:	7723      	strb	r3, [r4, #28]
 80026bc:	6823      	ldr	r3, [r4, #0]
 80026be:	691a      	ldr	r2, [r3, #16]
 80026c0:	0752      	lsls	r2, r2, #29
 80026c2:	d510      	bpl.n	80026e6 <HAL_TIM_IRQHandler+0x56>
 80026c4:	68da      	ldr	r2, [r3, #12]
 80026c6:	0750      	lsls	r0, r2, #29
 80026c8:	d50d      	bpl.n	80026e6 <HAL_TIM_IRQHandler+0x56>
 80026ca:	f06f 0204 	mvn.w	r2, #4
 80026ce:	611a      	str	r2, [r3, #16]
 80026d0:	699b      	ldr	r3, [r3, #24]
 80026d2:	2202      	movs	r2, #2
 80026d4:	f413 7f40 	tst.w	r3, #768	; 0x300
 80026d8:	7722      	strb	r2, [r4, #28]
 80026da:	4620      	mov	r0, r4
 80026dc:	d075      	beq.n	80027ca <HAL_TIM_IRQHandler+0x13a>
 80026de:	f7ff ffd4 	bl	800268a <HAL_TIM_IC_CaptureCallback>
 80026e2:	2300      	movs	r3, #0
 80026e4:	7723      	strb	r3, [r4, #28]
 80026e6:	6823      	ldr	r3, [r4, #0]
 80026e8:	691a      	ldr	r2, [r3, #16]
 80026ea:	0711      	lsls	r1, r2, #28
 80026ec:	d50f      	bpl.n	800270e <HAL_TIM_IRQHandler+0x7e>
 80026ee:	68da      	ldr	r2, [r3, #12]
 80026f0:	0712      	lsls	r2, r2, #28
 80026f2:	d50c      	bpl.n	800270e <HAL_TIM_IRQHandler+0x7e>
 80026f4:	f06f 0208 	mvn.w	r2, #8
 80026f8:	611a      	str	r2, [r3, #16]
 80026fa:	69db      	ldr	r3, [r3, #28]
 80026fc:	2204      	movs	r2, #4
 80026fe:	079b      	lsls	r3, r3, #30
 8002700:	7722      	strb	r2, [r4, #28]
 8002702:	4620      	mov	r0, r4
 8002704:	d067      	beq.n	80027d6 <HAL_TIM_IRQHandler+0x146>
 8002706:	f7ff ffc0 	bl	800268a <HAL_TIM_IC_CaptureCallback>
 800270a:	2300      	movs	r3, #0
 800270c:	7723      	strb	r3, [r4, #28]
 800270e:	6823      	ldr	r3, [r4, #0]
 8002710:	691a      	ldr	r2, [r3, #16]
 8002712:	06d0      	lsls	r0, r2, #27
 8002714:	d510      	bpl.n	8002738 <HAL_TIM_IRQHandler+0xa8>
 8002716:	68da      	ldr	r2, [r3, #12]
 8002718:	06d1      	lsls	r1, r2, #27
 800271a:	d50d      	bpl.n	8002738 <HAL_TIM_IRQHandler+0xa8>
 800271c:	f06f 0210 	mvn.w	r2, #16
 8002720:	611a      	str	r2, [r3, #16]
 8002722:	69db      	ldr	r3, [r3, #28]
 8002724:	2208      	movs	r2, #8
 8002726:	f413 7f40 	tst.w	r3, #768	; 0x300
 800272a:	7722      	strb	r2, [r4, #28]
 800272c:	4620      	mov	r0, r4
 800272e:	d058      	beq.n	80027e2 <HAL_TIM_IRQHandler+0x152>
 8002730:	f7ff ffab 	bl	800268a <HAL_TIM_IC_CaptureCallback>
 8002734:	2300      	movs	r3, #0
 8002736:	7723      	strb	r3, [r4, #28]
 8002738:	6823      	ldr	r3, [r4, #0]
 800273a:	691a      	ldr	r2, [r3, #16]
 800273c:	07d2      	lsls	r2, r2, #31
 800273e:	d508      	bpl.n	8002752 <HAL_TIM_IRQHandler+0xc2>
 8002740:	68da      	ldr	r2, [r3, #12]
 8002742:	07d0      	lsls	r0, r2, #31
 8002744:	d505      	bpl.n	8002752 <HAL_TIM_IRQHandler+0xc2>
 8002746:	f06f 0201 	mvn.w	r2, #1
 800274a:	611a      	str	r2, [r3, #16]
 800274c:	4620      	mov	r0, r4
 800274e:	f7ff ff9a 	bl	8002686 <HAL_TIM_PeriodElapsedCallback>
 8002752:	6823      	ldr	r3, [r4, #0]
 8002754:	691a      	ldr	r2, [r3, #16]
 8002756:	0611      	lsls	r1, r2, #24
 8002758:	d508      	bpl.n	800276c <HAL_TIM_IRQHandler+0xdc>
 800275a:	68da      	ldr	r2, [r3, #12]
 800275c:	0612      	lsls	r2, r2, #24
 800275e:	d505      	bpl.n	800276c <HAL_TIM_IRQHandler+0xdc>
 8002760:	f06f 0280 	mvn.w	r2, #128	; 0x80
 8002764:	611a      	str	r2, [r3, #16]
 8002766:	4620      	mov	r0, r4
 8002768:	f000 f9ad 	bl	8002ac6 <HAL_TIMEx_BreakCallback>
 800276c:	6823      	ldr	r3, [r4, #0]
 800276e:	691a      	ldr	r2, [r3, #16]
 8002770:	05d0      	lsls	r0, r2, #23
 8002772:	d508      	bpl.n	8002786 <HAL_TIM_IRQHandler+0xf6>
 8002774:	68da      	ldr	r2, [r3, #12]
 8002776:	0611      	lsls	r1, r2, #24
 8002778:	d505      	bpl.n	8002786 <HAL_TIM_IRQHandler+0xf6>
 800277a:	f46f 7280 	mvn.w	r2, #256	; 0x100
 800277e:	611a      	str	r2, [r3, #16]
 8002780:	4620      	mov	r0, r4
 8002782:	f000 f9a1 	bl	8002ac8 <HAL_TIMEx_Break2Callback>
 8002786:	6823      	ldr	r3, [r4, #0]
 8002788:	691a      	ldr	r2, [r3, #16]
 800278a:	0652      	lsls	r2, r2, #25
 800278c:	d508      	bpl.n	80027a0 <HAL_TIM_IRQHandler+0x110>
 800278e:	68da      	ldr	r2, [r3, #12]
 8002790:	0650      	lsls	r0, r2, #25
 8002792:	d505      	bpl.n	80027a0 <HAL_TIM_IRQHandler+0x110>
 8002794:	f06f 0240 	mvn.w	r2, #64	; 0x40
 8002798:	611a      	str	r2, [r3, #16]
 800279a:	4620      	mov	r0, r4
 800279c:	f7ff ff77 	bl	800268e <HAL_TIM_TriggerCallback>
 80027a0:	6823      	ldr	r3, [r4, #0]
 80027a2:	691a      	ldr	r2, [r3, #16]
 80027a4:	0691      	lsls	r1, r2, #26
 80027a6:	d522      	bpl.n	80027ee <HAL_TIM_IRQHandler+0x15e>
 80027a8:	68da      	ldr	r2, [r3, #12]
 80027aa:	0692      	lsls	r2, r2, #26
 80027ac:	d51f      	bpl.n	80027ee <HAL_TIM_IRQHandler+0x15e>
 80027ae:	f06f 0220 	mvn.w	r2, #32
 80027b2:	4620      	mov	r0, r4
 80027b4:	611a      	str	r2, [r3, #16]
 80027b6:	e8bd 4010 	ldmia.w	sp!, {r4, lr}
 80027ba:	f000 b983 	b.w	8002ac4 <HAL_TIMEx_CommutCallback>
 80027be:	f7ff ff63 	bl	8002688 <HAL_TIM_OC_DelayElapsedCallback>
 80027c2:	4620      	mov	r0, r4
 80027c4:	f7ff ff62 	bl	800268c <HAL_TIM_PWM_PulseFinishedCallback>
 80027c8:	e776      	b.n	80026b8 <HAL_TIM_IRQHandler+0x28>
 80027ca:	f7ff ff5d 	bl	8002688 <HAL_TIM_OC_DelayElapsedCallback>
 80027ce:	4620      	mov	r0, r4
 80027d0:	f7ff ff5c 	bl	800268c <HAL_TIM_PWM_PulseFinishedCallback>
 80027d4:	e785      	b.n	80026e2 <HAL_TIM_IRQHandler+0x52>
 80027d6:	f7ff ff57 	bl	8002688 <HAL_TIM_OC_DelayElapsedCallback>
 80027da:	4620      	mov	r0, r4
 80027dc:	f7ff ff56 	bl	800268c <HAL_TIM_PWM_PulseFinishedCallback>
 80027e0:	e793      	b.n	800270a <HAL_TIM_IRQHandler+0x7a>
 80027e2:	f7ff ff51 	bl	8002688 <HAL_TIM_OC_DelayElapsedCallback>
 80027e6:	4620      	mov	r0, r4
 80027e8:	f7ff ff50 	bl	800268c <HAL_TIM_PWM_PulseFinishedCallback>
 80027ec:	e7a2      	b.n	8002734 <HAL_TIM_IRQHandler+0xa4>
 80027ee:	bd10      	pop	{r4, pc}

080027f0 <TIM_Base_SetConfig>:
 80027f0:	4a1a      	ldr	r2, [pc, #104]	; (800285c <TIM_Base_SetConfig+0x6c>)
 80027f2:	6803      	ldr	r3, [r0, #0]
 80027f4:	4290      	cmp	r0, r2
 80027f6:	b510      	push	{r4, lr}
 80027f8:	d002      	beq.n	8002800 <TIM_Base_SetConfig+0x10>
 80027fa:	f1b0 4f80 	cmp.w	r0, #1073741824	; 0x40000000
 80027fe:	d109      	bne.n	8002814 <TIM_Base_SetConfig+0x24>
 8002800:	684c      	ldr	r4, [r1, #4]
 8002802:	f023 0370 	bic.w	r3, r3, #112	; 0x70
 8002806:	4290      	cmp	r0, r2
 8002808:	ea43 0304 	orr.w	r3, r3, r4
 800280c:	d009      	beq.n	8002822 <TIM_Base_SetConfig+0x32>
 800280e:	f1b0 4f80 	cmp.w	r0, #1073741824	; 0x40000000
 8002812:	d006      	beq.n	8002822 <TIM_Base_SetConfig+0x32>
 8002814:	4a12      	ldr	r2, [pc, #72]	; (8002860 <TIM_Base_SetConfig+0x70>)
 8002816:	4290      	cmp	r0, r2
 8002818:	d003      	beq.n	8002822 <TIM_Base_SetConfig+0x32>
 800281a:	f502 6280 	add.w	r2, r2, #1024	; 0x400
 800281e:	4290      	cmp	r0, r2
 8002820:	d103      	bne.n	800282a <TIM_Base_SetConfig+0x3a>
 8002822:	68ca      	ldr	r2, [r1, #12]
 8002824:	f423 7340 	bic.w	r3, r3, #768	; 0x300
 8002828:	4313      	orrs	r3, r2
 800282a:	694a      	ldr	r2, [r1, #20]
 800282c:	f023 0380 	bic.w	r3, r3, #128	; 0x80
 8002830:	4313      	orrs	r3, r2
 8002832:	6003      	str	r3, [r0, #0]
 8002834:	688b      	ldr	r3, [r1, #8]
 8002836:	62c3      	str	r3, [r0, #44]	; 0x2c
 8002838:	680b      	ldr	r3, [r1, #0]
 800283a:	6283      	str	r3, [r0, #40]	; 0x28
 800283c:	4b07      	ldr	r3, [pc, #28]	; (800285c <TIM_Base_SetConfig+0x6c>)
 800283e:	4298      	cmp	r0, r3
 8002840:	d007      	beq.n	8002852 <TIM_Base_SetConfig+0x62>
 8002842:	f503 53a0 	add.w	r3, r3, #5120	; 0x1400
 8002846:	4298      	cmp	r0, r3
 8002848:	d003      	beq.n	8002852 <TIM_Base_SetConfig+0x62>
 800284a:	f503 6380 	add.w	r3, r3, #1024	; 0x400
 800284e:	4298      	cmp	r0, r3
 8002850:	d101      	bne.n	8002856 <TIM_Base_SetConfig+0x66>
 8002852:	690b      	ldr	r3, [r1, #16]
 8002854:	6303      	str	r3, [r0, #48]	; 0x30
 8002856:	2301      	movs	r3, #1
 8002858:	6143      	str	r3, [r0, #20]
 800285a:	bd10      	pop	{r4, pc}
 800285c:	40012c00 	.word	0x40012c00
 8002860:	40014000 	.word	0x40014000

08002864 <HAL_TIM_Base_Init>:
 8002864:	b510      	push	{r4, lr}
 8002866:	4604      	mov	r4, r0
 8002868:	b350      	cbz	r0, 80028c0 <HAL_TIM_Base_Init+0x5c>
 800286a:	f890 303d 	ldrb.w	r3, [r0, #61]	; 0x3d
 800286e:	f003 02ff 	and.w	r2, r3, #255	; 0xff
 8002872:	b91b      	cbnz	r3, 800287c <HAL_TIM_Base_Init+0x18>
 8002874:	f880 203c 	strb.w	r2, [r0, #60]	; 0x3c
 8002878:	f7fe f89e 	bl	80009b8 <HAL_TIM_Base_MspInit>
 800287c:	2302      	movs	r3, #2
 800287e:	f884 303d 	strb.w	r3, [r4, #61]	; 0x3d
 8002882:	6820      	ldr	r0, [r4, #0]
 8002884:	1d21      	adds	r1, r4, #4
 8002886:	f7ff ffb3 	bl	80027f0 <TIM_Base_SetConfig>
 800288a:	2301      	movs	r3, #1
 800288c:	f884 3048 	strb.w	r3, [r4, #72]	; 0x48
 8002890:	2000      	movs	r0, #0
 8002892:	f884 303e 	strb.w	r3, [r4, #62]	; 0x3e
 8002896:	f884 303f 	strb.w	r3, [r4, #63]	; 0x3f
 800289a:	f884 3040 	strb.w	r3, [r4, #64]	; 0x40
 800289e:	f884 3041 	strb.w	r3, [r4, #65]	; 0x41
 80028a2:	f884 3042 	strb.w	r3, [r4, #66]	; 0x42
 80028a6:	f884 3043 	strb.w	r3, [r4, #67]	; 0x43
 80028aa:	f884 3044 	strb.w	r3, [r4, #68]	; 0x44
 80028ae:	f884 3045 	strb.w	r3, [r4, #69]	; 0x45
 80028b2:	f884 3046 	strb.w	r3, [r4, #70]	; 0x46
 80028b6:	f884 3047 	strb.w	r3, [r4, #71]	; 0x47
 80028ba:	f884 303d 	strb.w	r3, [r4, #61]	; 0x3d
 80028be:	bd10      	pop	{r4, pc}
 80028c0:	2001      	movs	r0, #1
 80028c2:	e7fc      	b.n	80028be <HAL_TIM_Base_Init+0x5a>

080028c4 <HAL_TIM_OnePulse_Init>:
 80028c4:	b538      	push	{r3, r4, r5, lr}
 80028c6:	460d      	mov	r5, r1
 80028c8:	4604      	mov	r4, r0
 80028ca:	b330      	cbz	r0, 800291a <HAL_TIM_OnePulse_Init+0x56>
 80028cc:	f890 303d 	ldrb.w	r3, [r0, #61]	; 0x3d
 80028d0:	f003 02ff 	and.w	r2, r3, #255	; 0xff
 80028d4:	b91b      	cbnz	r3, 80028de <HAL_TIM_OnePulse_Init+0x1a>
 80028d6:	f880 203c 	strb.w	r2, [r0, #60]	; 0x3c
 80028da:	f7ff fed3 	bl	8002684 <HAL_TIM_OnePulse_MspInit>
 80028de:	2302      	movs	r3, #2
 80028e0:	f884 303d 	strb.w	r3, [r4, #61]	; 0x3d
 80028e4:	1d21      	adds	r1, r4, #4
 80028e6:	6820      	ldr	r0, [r4, #0]
 80028e8:	f7ff ff82 	bl	80027f0 <TIM_Base_SetConfig>
 80028ec:	6823      	ldr	r3, [r4, #0]
 80028ee:	681a      	ldr	r2, [r3, #0]
 80028f0:	f022 0208 	bic.w	r2, r2, #8
 80028f4:	601a      	str	r2, [r3, #0]
 80028f6:	6819      	ldr	r1, [r3, #0]
 80028f8:	4329      	orrs	r1, r5
 80028fa:	6019      	str	r1, [r3, #0]
 80028fc:	2301      	movs	r3, #1
 80028fe:	f884 3048 	strb.w	r3, [r4, #72]	; 0x48
 8002902:	2000      	movs	r0, #0
 8002904:	f884 303e 	strb.w	r3, [r4, #62]	; 0x3e
 8002908:	f884 303f 	strb.w	r3, [r4, #63]	; 0x3f
 800290c:	f884 3044 	strb.w	r3, [r4, #68]	; 0x44
 8002910:	f884 3045 	strb.w	r3, [r4, #69]	; 0x45
 8002914:	f884 303d 	strb.w	r3, [r4, #61]	; 0x3d
 8002918:	bd38      	pop	{r3, r4, r5, pc}
 800291a:	2001      	movs	r0, #1
 800291c:	e7fc      	b.n	8002918 <HAL_TIM_OnePulse_Init+0x54>

0800291e <TIM_ETR_SetConfig>:
 800291e:	b510      	push	{r4, lr}
 8002920:	6884      	ldr	r4, [r0, #8]
 8002922:	430a      	orrs	r2, r1
 8002924:	f424 447f 	bic.w	r4, r4, #65280	; 0xff00
 8002928:	ea42 2303 	orr.w	r3, r2, r3, lsl #8
 800292c:	4323      	orrs	r3, r4
 800292e:	6083      	str	r3, [r0, #8]
 8002930:	bd10      	pop	{r4, pc}
	...

08002934 <HAL_TIM_ConfigClockSource>:
 8002934:	f890 303c 	ldrb.w	r3, [r0, #60]	; 0x3c
 8002938:	2b01      	cmp	r3, #1
 800293a:	b570      	push	{r4, r5, r6, lr}
 800293c:	4604      	mov	r4, r0
 800293e:	f04f 0002 	mov.w	r0, #2
 8002942:	d017      	beq.n	8002974 <HAL_TIM_ConfigClockSource+0x40>
 8002944:	f884 003d 	strb.w	r0, [r4, #61]	; 0x3d
 8002948:	6820      	ldr	r0, [r4, #0]
 800294a:	2301      	movs	r3, #1
 800294c:	f884 303c 	strb.w	r3, [r4, #60]	; 0x3c
 8002950:	6882      	ldr	r2, [r0, #8]
 8002952:	4b41      	ldr	r3, [pc, #260]	; (8002a58 <HAL_TIM_ConfigClockSource+0x124>)
 8002954:	4013      	ands	r3, r2
 8002956:	6083      	str	r3, [r0, #8]
 8002958:	680b      	ldr	r3, [r1, #0]
 800295a:	2b40      	cmp	r3, #64	; 0x40
 800295c:	d065      	beq.n	8002a2a <HAL_TIM_ConfigClockSource+0xf6>
 800295e:	d815      	bhi.n	800298c <HAL_TIM_ConfigClockSource+0x58>
 8002960:	2b10      	cmp	r3, #16
 8002962:	d00c      	beq.n	800297e <HAL_TIM_ConfigClockSource+0x4a>
 8002964:	d807      	bhi.n	8002976 <HAL_TIM_ConfigClockSource+0x42>
 8002966:	b153      	cbz	r3, 800297e <HAL_TIM_ConfigClockSource+0x4a>
 8002968:	2301      	movs	r3, #1
 800296a:	2000      	movs	r0, #0
 800296c:	f884 303d 	strb.w	r3, [r4, #61]	; 0x3d
 8002970:	f884 003c 	strb.w	r0, [r4, #60]	; 0x3c
 8002974:	bd70      	pop	{r4, r5, r6, pc}
 8002976:	2b20      	cmp	r3, #32
 8002978:	d001      	beq.n	800297e <HAL_TIM_ConfigClockSource+0x4a>
 800297a:	2b30      	cmp	r3, #48	; 0x30
 800297c:	d1f4      	bne.n	8002968 <HAL_TIM_ConfigClockSource+0x34>
 800297e:	6882      	ldr	r2, [r0, #8]
 8002980:	f043 0307 	orr.w	r3, r3, #7
 8002984:	f022 0270 	bic.w	r2, r2, #112	; 0x70
 8002988:	4313      	orrs	r3, r2
 800298a:	e01a      	b.n	80029c2 <HAL_TIM_ConfigClockSource+0x8e>
 800298c:	2b60      	cmp	r3, #96	; 0x60
 800298e:	d034      	beq.n	80029fa <HAL_TIM_ConfigClockSource+0xc6>
 8002990:	d819      	bhi.n	80029c6 <HAL_TIM_ConfigClockSource+0x92>
 8002992:	2b50      	cmp	r3, #80	; 0x50
 8002994:	d1e8      	bne.n	8002968 <HAL_TIM_ConfigClockSource+0x34>
 8002996:	684a      	ldr	r2, [r1, #4]
 8002998:	68ce      	ldr	r6, [r1, #12]
 800299a:	6a01      	ldr	r1, [r0, #32]
 800299c:	6a05      	ldr	r5, [r0, #32]
 800299e:	f025 0501 	bic.w	r5, r5, #1
 80029a2:	6205      	str	r5, [r0, #32]
 80029a4:	6983      	ldr	r3, [r0, #24]
 80029a6:	f021 010a 	bic.w	r1, r1, #10
 80029aa:	f023 03f0 	bic.w	r3, r3, #240	; 0xf0
 80029ae:	ea43 1306 	orr.w	r3, r3, r6, lsl #4
 80029b2:	430a      	orrs	r2, r1
 80029b4:	6183      	str	r3, [r0, #24]
 80029b6:	6202      	str	r2, [r0, #32]
 80029b8:	6883      	ldr	r3, [r0, #8]
 80029ba:	f023 0370 	bic.w	r3, r3, #112	; 0x70
 80029be:	f043 0357 	orr.w	r3, r3, #87	; 0x57
 80029c2:	6083      	str	r3, [r0, #8]
 80029c4:	e7d0      	b.n	8002968 <HAL_TIM_ConfigClockSource+0x34>
 80029c6:	2b70      	cmp	r3, #112	; 0x70
 80029c8:	d00c      	beq.n	80029e4 <HAL_TIM_ConfigClockSource+0xb0>
 80029ca:	f5b3 5f00 	cmp.w	r3, #8192	; 0x2000
 80029ce:	d1cb      	bne.n	8002968 <HAL_TIM_ConfigClockSource+0x34>
 80029d0:	68cb      	ldr	r3, [r1, #12]
 80029d2:	e9d1 2101 	ldrd	r2, r1, [r1, #4]
 80029d6:	f7ff ffa2 	bl	800291e <TIM_ETR_SetConfig>
 80029da:	6822      	ldr	r2, [r4, #0]
 80029dc:	6893      	ldr	r3, [r2, #8]
 80029de:	f443 4380 	orr.w	r3, r3, #16384	; 0x4000
 80029e2:	e008      	b.n	80029f6 <HAL_TIM_ConfigClockSource+0xc2>
 80029e4:	68cb      	ldr	r3, [r1, #12]
 80029e6:	e9d1 2101 	ldrd	r2, r1, [r1, #4]
 80029ea:	f7ff ff98 	bl	800291e <TIM_ETR_SetConfig>
 80029ee:	6822      	ldr	r2, [r4, #0]
 80029f0:	6893      	ldr	r3, [r2, #8]
 80029f2:	f043 0377 	orr.w	r3, r3, #119	; 0x77
 80029f6:	6093      	str	r3, [r2, #8]
 80029f8:	e7b6      	b.n	8002968 <HAL_TIM_ConfigClockSource+0x34>
 80029fa:	684d      	ldr	r5, [r1, #4]
 80029fc:	68ce      	ldr	r6, [r1, #12]
 80029fe:	6a01      	ldr	r1, [r0, #32]
 8002a00:	f021 0110 	bic.w	r1, r1, #16
 8002a04:	6201      	str	r1, [r0, #32]
 8002a06:	6982      	ldr	r2, [r0, #24]
 8002a08:	6a03      	ldr	r3, [r0, #32]
 8002a0a:	f422 4270 	bic.w	r2, r2, #61440	; 0xf000
 8002a0e:	f023 03a0 	bic.w	r3, r3, #160	; 0xa0
 8002a12:	ea43 1305 	orr.w	r3, r3, r5, lsl #4
 8002a16:	ea42 3206 	orr.w	r2, r2, r6, lsl #12
 8002a1a:	6182      	str	r2, [r0, #24]
 8002a1c:	6203      	str	r3, [r0, #32]
 8002a1e:	6883      	ldr	r3, [r0, #8]
 8002a20:	f023 0370 	bic.w	r3, r3, #112	; 0x70
 8002a24:	f043 0367 	orr.w	r3, r3, #103	; 0x67
 8002a28:	e7cb      	b.n	80029c2 <HAL_TIM_ConfigClockSource+0x8e>
 8002a2a:	684a      	ldr	r2, [r1, #4]
 8002a2c:	68ce      	ldr	r6, [r1, #12]
 8002a2e:	6a01      	ldr	r1, [r0, #32]
 8002a30:	6a05      	ldr	r5, [r0, #32]
 8002a32:	f025 0501 	bic.w	r5, r5, #1
 8002a36:	6205      	str	r5, [r0, #32]
 8002a38:	6983      	ldr	r3, [r0, #24]
 8002a3a:	f021 010a 	bic.w	r1, r1, #10
 8002a3e:	f023 03f0 	bic.w	r3, r3, #240	; 0xf0
 8002a42:	ea43 1306 	orr.w	r3, r3, r6, lsl #4
 8002a46:	430a      	orrs	r2, r1
 8002a48:	6183      	str	r3, [r0, #24]
 8002a4a:	6202      	str	r2, [r0, #32]
 8002a4c:	6883      	ldr	r3, [r0, #8]
 8002a4e:	f023 0370 	bic.w	r3, r3, #112	; 0x70
 8002a52:	f043 0347 	orr.w	r3, r3, #71	; 0x47
 8002a56:	e7b4      	b.n	80029c2 <HAL_TIM_ConfigClockSource+0x8e>
 8002a58:	fffe0088 	.word	0xfffe0088

08002a5c <HAL_TIMEx_MasterConfigSynchronization>:
 8002a5c:	f890 303c 	ldrb.w	r3, [r0, #60]	; 0x3c
 8002a60:	2b01      	cmp	r3, #1
 8002a62:	b570      	push	{r4, r5, r6, lr}
 8002a64:	f04f 0302 	mov.w	r3, #2
 8002a68:	d026      	beq.n	8002ab8 <HAL_TIMEx_MasterConfigSynchronization+0x5c>
 8002a6a:	2201      	movs	r2, #1
 8002a6c:	f880 203c 	strb.w	r2, [r0, #60]	; 0x3c
 8002a70:	4d12      	ldr	r5, [pc, #72]	; (8002abc <HAL_TIMEx_MasterConfigSynchronization+0x60>)
 8002a72:	6802      	ldr	r2, [r0, #0]
 8002a74:	f880 303d 	strb.w	r3, [r0, #61]	; 0x3d
 8002a78:	6853      	ldr	r3, [r2, #4]
 8002a7a:	6894      	ldr	r4, [r2, #8]
 8002a7c:	42aa      	cmp	r2, r5
 8002a7e:	bf02      	ittt	eq
 8002a80:	684e      	ldreq	r6, [r1, #4]
 8002a82:	f423 0370 	biceq.w	r3, r3, #15728640	; 0xf00000
 8002a86:	4333      	orreq	r3, r6
 8002a88:	680e      	ldr	r6, [r1, #0]
 8002a8a:	f023 0370 	bic.w	r3, r3, #112	; 0x70
 8002a8e:	4333      	orrs	r3, r6
 8002a90:	42aa      	cmp	r2, r5
 8002a92:	6053      	str	r3, [r2, #4]
 8002a94:	d005      	beq.n	8002aa2 <HAL_TIMEx_MasterConfigSynchronization+0x46>
 8002a96:	f1b2 4f80 	cmp.w	r2, #1073741824	; 0x40000000
 8002a9a:	d002      	beq.n	8002aa2 <HAL_TIMEx_MasterConfigSynchronization+0x46>
 8002a9c:	4b08      	ldr	r3, [pc, #32]	; (8002ac0 <HAL_TIMEx_MasterConfigSynchronization+0x64>)
 8002a9e:	429a      	cmp	r2, r3
 8002aa0:	d104      	bne.n	8002aac <HAL_TIMEx_MasterConfigSynchronization+0x50>
 8002aa2:	6889      	ldr	r1, [r1, #8]
 8002aa4:	f024 0380 	bic.w	r3, r4, #128	; 0x80
 8002aa8:	430b      	orrs	r3, r1
 8002aaa:	6093      	str	r3, [r2, #8]
 8002aac:	2301      	movs	r3, #1
 8002aae:	f880 303d 	strb.w	r3, [r0, #61]	; 0x3d
 8002ab2:	2300      	movs	r3, #0
 8002ab4:	f880 303c 	strb.w	r3, [r0, #60]	; 0x3c
 8002ab8:	4618      	mov	r0, r3
 8002aba:	bd70      	pop	{r4, r5, r6, pc}
 8002abc:	40012c00 	.word	0x40012c00
 8002ac0:	40014000 	.word	0x40014000

08002ac4 <HAL_TIMEx_CommutCallback>:
 8002ac4:	4770      	bx	lr

08002ac6 <HAL_TIMEx_BreakCallback>:
 8002ac6:	4770      	bx	lr

08002ac8 <HAL_TIMEx_Break2Callback>:
 8002ac8:	4770      	bx	lr

08002aca <HAL_UART_DeInit>:
 8002aca:	b538      	push	{r3, r4, r5, lr}
 8002acc:	4605      	mov	r5, r0
 8002ace:	b198      	cbz	r0, 8002af8 <HAL_UART_DeInit+0x2e>
 8002ad0:	2324      	movs	r3, #36	; 0x24
 8002ad2:	6743      	str	r3, [r0, #116]	; 0x74
 8002ad4:	6803      	ldr	r3, [r0, #0]
 8002ad6:	681a      	ldr	r2, [r3, #0]
 8002ad8:	2400      	movs	r4, #0
 8002ada:	f022 0201 	bic.w	r2, r2, #1
 8002ade:	601a      	str	r2, [r3, #0]
 8002ae0:	601c      	str	r4, [r3, #0]
 8002ae2:	605c      	str	r4, [r3, #4]
 8002ae4:	609c      	str	r4, [r3, #8]
 8002ae6:	f7fd ffb9 	bl	8000a5c <HAL_UART_MspDeInit>
 8002aea:	67ec      	str	r4, [r5, #124]	; 0x7c
 8002aec:	f885 4070 	strb.w	r4, [r5, #112]	; 0x70
 8002af0:	676c      	str	r4, [r5, #116]	; 0x74
 8002af2:	4620      	mov	r0, r4
 8002af4:	67ac      	str	r4, [r5, #120]	; 0x78
 8002af6:	bd38      	pop	{r3, r4, r5, pc}
 8002af8:	2001      	movs	r0, #1
 8002afa:	e7fc      	b.n	8002af6 <HAL_UART_DeInit+0x2c>

08002afc <UART_SetConfig>:
 8002afc:	b5f8      	push	{r3, r4, r5, r6, r7, lr}
 8002afe:	4604      	mov	r4, r0
 8002b00:	6803      	ldr	r3, [r0, #0]
 8002b02:	6921      	ldr	r1, [r4, #16]
 8002b04:	68a2      	ldr	r2, [r4, #8]
 8002b06:	681d      	ldr	r5, [r3, #0]
 8002b08:	69c0      	ldr	r0, [r0, #28]
 8002b0a:	430a      	orrs	r2, r1
 8002b0c:	6961      	ldr	r1, [r4, #20]
 8002b0e:	430a      	orrs	r2, r1
 8002b10:	497c      	ldr	r1, [pc, #496]	; (8002d04 <UART_SetConfig+0x208>)
 8002b12:	4302      	orrs	r2, r0
 8002b14:	4029      	ands	r1, r5
 8002b16:	430a      	orrs	r2, r1
 8002b18:	601a      	str	r2, [r3, #0]
 8002b1a:	685a      	ldr	r2, [r3, #4]
 8002b1c:	68e1      	ldr	r1, [r4, #12]
 8002b1e:	f422 5240 	bic.w	r2, r2, #12288	; 0x3000
 8002b22:	430a      	orrs	r2, r1
 8002b24:	605a      	str	r2, [r3, #4]
 8002b26:	4a78      	ldr	r2, [pc, #480]	; (8002d08 <UART_SetConfig+0x20c>)
 8002b28:	69a1      	ldr	r1, [r4, #24]
 8002b2a:	4293      	cmp	r3, r2
 8002b2c:	bf1c      	itt	ne
 8002b2e:	6a22      	ldrne	r2, [r4, #32]
 8002b30:	4311      	orrne	r1, r2
 8002b32:	689a      	ldr	r2, [r3, #8]
 8002b34:	f422 6230 	bic.w	r2, r2, #2816	; 0xb00
 8002b38:	430a      	orrs	r2, r1
 8002b3a:	609a      	str	r2, [r3, #8]
 8002b3c:	4a73      	ldr	r2, [pc, #460]	; (8002d0c <UART_SetConfig+0x210>)
 8002b3e:	4293      	cmp	r3, r2
 8002b40:	d112      	bne.n	8002b68 <UART_SetConfig+0x6c>
 8002b42:	4b73      	ldr	r3, [pc, #460]	; (8002d10 <UART_SetConfig+0x214>)
 8002b44:	4a73      	ldr	r2, [pc, #460]	; (8002d14 <UART_SetConfig+0x218>)
 8002b46:	f8d3 3088 	ldr.w	r3, [r3, #136]	; 0x88
 8002b4a:	f003 0303 	and.w	r3, r3, #3
 8002b4e:	f5b0 4f00 	cmp.w	r0, #32768	; 0x8000
 8002b52:	5cd3      	ldrb	r3, [r2, r3]
 8002b54:	d154      	bne.n	8002c00 <UART_SetConfig+0x104>
 8002b56:	2b08      	cmp	r3, #8
 8002b58:	d81e      	bhi.n	8002b98 <UART_SetConfig+0x9c>
 8002b5a:	e8df f003 	tbb	[pc, r3]
 8002b5e:	49b7      	.short	0x49b7
 8002b60:	1dab1d4f 	.word	0x1dab1d4f
 8002b64:	1d1d      	.short	0x1d1d
 8002b66:	4c          	.byte	0x4c
 8002b67:	00          	.byte	0x00
 8002b68:	4a6b      	ldr	r2, [pc, #428]	; (8002d18 <UART_SetConfig+0x21c>)
 8002b6a:	4293      	cmp	r3, r2
 8002b6c:	d106      	bne.n	8002b7c <UART_SetConfig+0x80>
 8002b6e:	4b68      	ldr	r3, [pc, #416]	; (8002d10 <UART_SetConfig+0x214>)
 8002b70:	4a6a      	ldr	r2, [pc, #424]	; (8002d1c <UART_SetConfig+0x220>)
 8002b72:	f8d3 3088 	ldr.w	r3, [r3, #136]	; 0x88
 8002b76:	f003 030c 	and.w	r3, r3, #12
 8002b7a:	e7e8      	b.n	8002b4e <UART_SetConfig+0x52>
 8002b7c:	4a68      	ldr	r2, [pc, #416]	; (8002d20 <UART_SetConfig+0x224>)
 8002b7e:	4293      	cmp	r3, r2
 8002b80:	d117      	bne.n	8002bb2 <UART_SetConfig+0xb6>
 8002b82:	f502 32e4 	add.w	r2, r2, #116736	; 0x1c800
 8002b86:	f8d2 2088 	ldr.w	r2, [r2, #136]	; 0x88
 8002b8a:	f002 0230 	and.w	r2, r2, #48	; 0x30
 8002b8e:	2a10      	cmp	r2, #16
 8002b90:	f000 8082 	beq.w	8002c98 <UART_SetConfig+0x19c>
 8002b94:	d802      	bhi.n	8002b9c <UART_SetConfig+0xa0>
 8002b96:	b1fa      	cbz	r2, 8002bd8 <UART_SetConfig+0xdc>
 8002b98:	2001      	movs	r0, #1
 8002b9a:	e025      	b.n	8002be8 <UART_SetConfig+0xec>
 8002b9c:	2a20      	cmp	r2, #32
 8002b9e:	d05c      	beq.n	8002c5a <UART_SetConfig+0x15e>
 8002ba0:	2a30      	cmp	r2, #48	; 0x30
 8002ba2:	d1f9      	bne.n	8002b98 <UART_SetConfig+0x9c>
 8002ba4:	4a58      	ldr	r2, [pc, #352]	; (8002d08 <UART_SetConfig+0x20c>)
 8002ba6:	4293      	cmp	r3, r2
 8002ba8:	f040 8087 	bne.w	8002cba <UART_SetConfig+0x1be>
 8002bac:	f44f 4000 	mov.w	r0, #32768	; 0x8000
 8002bb0:	e057      	b.n	8002c62 <UART_SetConfig+0x166>
 8002bb2:	4a55      	ldr	r2, [pc, #340]	; (8002d08 <UART_SetConfig+0x20c>)
 8002bb4:	4293      	cmp	r3, r2
 8002bb6:	d1ef      	bne.n	8002b98 <UART_SetConfig+0x9c>
 8002bb8:	f502 32c8 	add.w	r2, r2, #102400	; 0x19000
 8002bbc:	f8d2 2088 	ldr.w	r2, [r2, #136]	; 0x88
 8002bc0:	f402 6240 	and.w	r2, r2, #3072	; 0xc00
 8002bc4:	f5b2 6f80 	cmp.w	r2, #1024	; 0x400
 8002bc8:	d066      	beq.n	8002c98 <UART_SetConfig+0x19c>
 8002bca:	d9e4      	bls.n	8002b96 <UART_SetConfig+0x9a>
 8002bcc:	f5b2 6f00 	cmp.w	r2, #2048	; 0x800
 8002bd0:	d043      	beq.n	8002c5a <UART_SetConfig+0x15e>
 8002bd2:	f5b2 6f40 	cmp.w	r2, #3072	; 0xc00
 8002bd6:	e7e4      	b.n	8002ba2 <UART_SetConfig+0xa6>
 8002bd8:	4a4b      	ldr	r2, [pc, #300]	; (8002d08 <UART_SetConfig+0x20c>)
 8002bda:	4293      	cmp	r3, r2
 8002bdc:	d173      	bne.n	8002cc6 <UART_SetConfig+0x1ca>
 8002bde:	f7ff fbf7 	bl	80023d0 <HAL_RCC_GetPCLK1Freq>
 8002be2:	2800      	cmp	r0, #0
 8002be4:	d13d      	bne.n	8002c62 <UART_SetConfig+0x166>
 8002be6:	2000      	movs	r0, #0
 8002be8:	2300      	movs	r3, #0
 8002bea:	e9c4 3318 	strd	r3, r3, [r4, #96]	; 0x60
 8002bee:	bdf8      	pop	{r3, r4, r5, r6, r7, pc}
 8002bf0:	f7ff fc00 	bl	80023f4 <HAL_RCC_GetPCLK2Freq>
 8002bf4:	e06c      	b.n	8002cd0 <UART_SetConfig+0x1d4>
 8002bf6:	f44f 4000 	mov.w	r0, #32768	; 0x8000
 8002bfa:	e06b      	b.n	8002cd4 <UART_SetConfig+0x1d8>
 8002bfc:	4849      	ldr	r0, [pc, #292]	; (8002d24 <UART_SetConfig+0x228>)
 8002bfe:	e069      	b.n	8002cd4 <UART_SetConfig+0x1d8>
 8002c00:	2b08      	cmp	r3, #8
 8002c02:	d8c9      	bhi.n	8002b98 <UART_SetConfig+0x9c>
 8002c04:	a201      	add	r2, pc, #4	; (adr r2, 8002c0c <UART_SetConfig+0x110>)
 8002c06:	f852 f023 	ldr.w	pc, [r2, r3, lsl #2]
 8002c0a:	bf00      	nop
 8002c0c:	08002c31 	.word	0x08002c31
 8002c10:	08002c4f 	.word	0x08002c4f
 8002c14:	08002cab 	.word	0x08002cab
 8002c18:	08002b99 	.word	0x08002b99
 8002c1c:	08002c55 	.word	0x08002c55
 8002c20:	08002b99 	.word	0x08002b99
 8002c24:	08002b99 	.word	0x08002b99
 8002c28:	08002b99 	.word	0x08002b99
 8002c2c:	08002cc1 	.word	0x08002cc1
 8002c30:	f7ff fbce 	bl	80023d0 <HAL_RCC_GetPCLK1Freq>
 8002c34:	2800      	cmp	r0, #0
 8002c36:	d0d6      	beq.n	8002be6 <UART_SetConfig+0xea>
 8002c38:	6863      	ldr	r3, [r4, #4]
 8002c3a:	eb00 0053 	add.w	r0, r0, r3, lsr #1
 8002c3e:	fbb0 f0f3 	udiv	r0, r0, r3
 8002c42:	b280      	uxth	r0, r0
 8002c44:	f1a0 0210 	sub.w	r2, r0, #16
 8002c48:	f64f 73ef 	movw	r3, #65519	; 0xffef
 8002c4c:	e01f      	b.n	8002c8e <UART_SetConfig+0x192>
 8002c4e:	f7ff fbd1 	bl	80023f4 <HAL_RCC_GetPCLK2Freq>
 8002c52:	e7ef      	b.n	8002c34 <UART_SetConfig+0x138>
 8002c54:	f7ff f808 	bl	8001c68 <HAL_RCC_GetSysClockFreq>
 8002c58:	e7ec      	b.n	8002c34 <UART_SetConfig+0x138>
 8002c5a:	4a2b      	ldr	r2, [pc, #172]	; (8002d08 <UART_SetConfig+0x20c>)
 8002c5c:	4293      	cmp	r3, r2
 8002c5e:	d121      	bne.n	8002ca4 <UART_SetConfig+0x1a8>
 8002c60:	4830      	ldr	r0, [pc, #192]	; (8002d24 <UART_SetConfig+0x228>)
 8002c62:	6862      	ldr	r2, [r4, #4]
 8002c64:	eb02 0342 	add.w	r3, r2, r2, lsl #1
 8002c68:	4283      	cmp	r3, r0
 8002c6a:	d895      	bhi.n	8002b98 <UART_SetConfig+0x9c>
 8002c6c:	ebb0 3f02 	cmp.w	r0, r2, lsl #12
 8002c70:	d892      	bhi.n	8002b98 <UART_SetConfig+0x9c>
 8002c72:	0856      	lsrs	r6, r2, #1
 8002c74:	f44f 7180 	mov.w	r1, #256	; 0x100
 8002c78:	2700      	movs	r7, #0
 8002c7a:	fbe1 6700 	umlal	r6, r7, r1, r0
 8002c7e:	2300      	movs	r3, #0
 8002c80:	4630      	mov	r0, r6
 8002c82:	4639      	mov	r1, r7
 8002c84:	f7fd faa2 	bl	80001cc <__aeabi_uldivmod>
 8002c88:	4b27      	ldr	r3, [pc, #156]	; (8002d28 <UART_SetConfig+0x22c>)
 8002c8a:	f5a0 7240 	sub.w	r2, r0, #768	; 0x300
 8002c8e:	429a      	cmp	r2, r3
 8002c90:	d882      	bhi.n	8002b98 <UART_SetConfig+0x9c>
 8002c92:	6823      	ldr	r3, [r4, #0]
 8002c94:	60d8      	str	r0, [r3, #12]
 8002c96:	e7a6      	b.n	8002be6 <UART_SetConfig+0xea>
 8002c98:	4a1b      	ldr	r2, [pc, #108]	; (8002d08 <UART_SetConfig+0x20c>)
 8002c9a:	4293      	cmp	r3, r2
 8002c9c:	d107      	bne.n	8002cae <UART_SetConfig+0x1b2>
 8002c9e:	f7fe ffe3 	bl	8001c68 <HAL_RCC_GetSysClockFreq>
 8002ca2:	e79e      	b.n	8002be2 <UART_SetConfig+0xe6>
 8002ca4:	f5b0 4f00 	cmp.w	r0, #32768	; 0x8000
 8002ca8:	d0a8      	beq.n	8002bfc <UART_SetConfig+0x100>
 8002caa:	481e      	ldr	r0, [pc, #120]	; (8002d24 <UART_SetConfig+0x228>)
 8002cac:	e7c4      	b.n	8002c38 <UART_SetConfig+0x13c>
 8002cae:	f5b0 4f00 	cmp.w	r0, #32768	; 0x8000
 8002cb2:	d1cf      	bne.n	8002c54 <UART_SetConfig+0x158>
 8002cb4:	f7fe ffd8 	bl	8001c68 <HAL_RCC_GetSysClockFreq>
 8002cb8:	e00a      	b.n	8002cd0 <UART_SetConfig+0x1d4>
 8002cba:	f5b0 4f00 	cmp.w	r0, #32768	; 0x8000
 8002cbe:	d009      	beq.n	8002cd4 <UART_SetConfig+0x1d8>
 8002cc0:	f44f 4000 	mov.w	r0, #32768	; 0x8000
 8002cc4:	e7b8      	b.n	8002c38 <UART_SetConfig+0x13c>
 8002cc6:	f5b0 4f00 	cmp.w	r0, #32768	; 0x8000
 8002cca:	d1b1      	bne.n	8002c30 <UART_SetConfig+0x134>
 8002ccc:	f7ff fb80 	bl	80023d0 <HAL_RCC_GetPCLK1Freq>
 8002cd0:	2800      	cmp	r0, #0
 8002cd2:	d088      	beq.n	8002be6 <UART_SetConfig+0xea>
 8002cd4:	6862      	ldr	r2, [r4, #4]
 8002cd6:	0853      	lsrs	r3, r2, #1
 8002cd8:	eb03 0040 	add.w	r0, r3, r0, lsl #1
 8002cdc:	fbb0 f0f2 	udiv	r0, r0, r2
 8002ce0:	b283      	uxth	r3, r0
 8002ce2:	f1a3 0110 	sub.w	r1, r3, #16
 8002ce6:	f64f 72ef 	movw	r2, #65519	; 0xffef
 8002cea:	4291      	cmp	r1, r2
 8002cec:	f63f af54 	bhi.w	8002b98 <UART_SetConfig+0x9c>
 8002cf0:	f020 000f 	bic.w	r0, r0, #15
 8002cf4:	b280      	uxth	r0, r0
 8002cf6:	6822      	ldr	r2, [r4, #0]
 8002cf8:	f3c3 0342 	ubfx	r3, r3, #1, #3
 8002cfc:	4318      	orrs	r0, r3
 8002cfe:	60d0      	str	r0, [r2, #12]
 8002d00:	e771      	b.n	8002be6 <UART_SetConfig+0xea>
 8002d02:	bf00      	nop
 8002d04:	efff69f3 	.word	0xefff69f3
 8002d08:	40008000 	.word	0x40008000
 8002d0c:	40013800 	.word	0x40013800
 8002d10:	40021000 	.word	0x40021000
 8002d14:	08003178 	.word	0x08003178
 8002d18:	40004400 	.word	0x40004400
 8002d1c:	0800317c 	.word	0x0800317c
 8002d20:	40004800 	.word	0x40004800
 8002d24:	00f42400 	.word	0x00f42400
 8002d28:	000ffcff 	.word	0x000ffcff

08002d2c <UART_AdvFeatureConfig>:
 8002d2c:	6a43      	ldr	r3, [r0, #36]	; 0x24
 8002d2e:	07da      	lsls	r2, r3, #31
 8002d30:	b510      	push	{r4, lr}
 8002d32:	d506      	bpl.n	8002d42 <UART_AdvFeatureConfig+0x16>
 8002d34:	6801      	ldr	r1, [r0, #0]
 8002d36:	6a84      	ldr	r4, [r0, #40]	; 0x28
 8002d38:	684a      	ldr	r2, [r1, #4]
 8002d3a:	f422 3200 	bic.w	r2, r2, #131072	; 0x20000
 8002d3e:	4322      	orrs	r2, r4
 8002d40:	604a      	str	r2, [r1, #4]
 8002d42:	079c      	lsls	r4, r3, #30
 8002d44:	d506      	bpl.n	8002d54 <UART_AdvFeatureConfig+0x28>
 8002d46:	6801      	ldr	r1, [r0, #0]
 8002d48:	6ac4      	ldr	r4, [r0, #44]	; 0x2c
 8002d4a:	684a      	ldr	r2, [r1, #4]
 8002d4c:	f422 3280 	bic.w	r2, r2, #65536	; 0x10000
 8002d50:	4322      	orrs	r2, r4
 8002d52:	604a      	str	r2, [r1, #4]
 8002d54:	0759      	lsls	r1, r3, #29
 8002d56:	d506      	bpl.n	8002d66 <UART_AdvFeatureConfig+0x3a>
 8002d58:	6801      	ldr	r1, [r0, #0]
 8002d5a:	6b04      	ldr	r4, [r0, #48]	; 0x30
 8002d5c:	684a      	ldr	r2, [r1, #4]
 8002d5e:	f422 2280 	bic.w	r2, r2, #262144	; 0x40000
 8002d62:	4322      	orrs	r2, r4
 8002d64:	604a      	str	r2, [r1, #4]
 8002d66:	071a      	lsls	r2, r3, #28
 8002d68:	d506      	bpl.n	8002d78 <UART_AdvFeatureConfig+0x4c>
 8002d6a:	6801      	ldr	r1, [r0, #0]
 8002d6c:	6b44      	ldr	r4, [r0, #52]	; 0x34
 8002d6e:	684a      	ldr	r2, [r1, #4]
 8002d70:	f422 4200 	bic.w	r2, r2, #32768	; 0x8000
 8002d74:	4322      	orrs	r2, r4
 8002d76:	604a      	str	r2, [r1, #4]
 8002d78:	06dc      	lsls	r4, r3, #27
 8002d7a:	d506      	bpl.n	8002d8a <UART_AdvFeatureConfig+0x5e>
 8002d7c:	6801      	ldr	r1, [r0, #0]
 8002d7e:	6b84      	ldr	r4, [r0, #56]	; 0x38
 8002d80:	688a      	ldr	r2, [r1, #8]
 8002d82:	f422 5280 	bic.w	r2, r2, #4096	; 0x1000
 8002d86:	4322      	orrs	r2, r4
 8002d88:	608a      	str	r2, [r1, #8]
 8002d8a:	0699      	lsls	r1, r3, #26
 8002d8c:	d506      	bpl.n	8002d9c <UART_AdvFeatureConfig+0x70>
 8002d8e:	6801      	ldr	r1, [r0, #0]
 8002d90:	6bc4      	ldr	r4, [r0, #60]	; 0x3c
 8002d92:	688a      	ldr	r2, [r1, #8]
 8002d94:	f422 5200 	bic.w	r2, r2, #8192	; 0x2000
 8002d98:	4322      	orrs	r2, r4
 8002d9a:	608a      	str	r2, [r1, #8]
 8002d9c:	065a      	lsls	r2, r3, #25
 8002d9e:	d50f      	bpl.n	8002dc0 <UART_AdvFeatureConfig+0x94>
 8002da0:	6801      	ldr	r1, [r0, #0]
 8002da2:	6c04      	ldr	r4, [r0, #64]	; 0x40
 8002da4:	684a      	ldr	r2, [r1, #4]
 8002da6:	f422 1280 	bic.w	r2, r2, #1048576	; 0x100000
 8002daa:	4322      	orrs	r2, r4
 8002dac:	f5b4 1f80 	cmp.w	r4, #1048576	; 0x100000
 8002db0:	604a      	str	r2, [r1, #4]
 8002db2:	d105      	bne.n	8002dc0 <UART_AdvFeatureConfig+0x94>
 8002db4:	684a      	ldr	r2, [r1, #4]
 8002db6:	6c44      	ldr	r4, [r0, #68]	; 0x44
 8002db8:	f422 02c0 	bic.w	r2, r2, #6291456	; 0x600000
 8002dbc:	4322      	orrs	r2, r4
 8002dbe:	604a      	str	r2, [r1, #4]
 8002dc0:	061b      	lsls	r3, r3, #24
 8002dc2:	d506      	bpl.n	8002dd2 <UART_AdvFeatureConfig+0xa6>
 8002dc4:	6802      	ldr	r2, [r0, #0]
 8002dc6:	6c81      	ldr	r1, [r0, #72]	; 0x48
 8002dc8:	6853      	ldr	r3, [r2, #4]
 8002dca:	f423 2300 	bic.w	r3, r3, #524288	; 0x80000
 8002dce:	430b      	orrs	r3, r1
 8002dd0:	6053      	str	r3, [r2, #4]
 8002dd2:	bd10      	pop	{r4, pc}

08002dd4 <UART_WaitOnFlagUntilTimeout>:
 8002dd4:	e92d 41f0 	stmdb	sp!, {r4, r5, r6, r7, r8, lr}
 8002dd8:	9d06      	ldr	r5, [sp, #24]
 8002dda:	4604      	mov	r4, r0
 8002ddc:	460f      	mov	r7, r1
 8002dde:	4616      	mov	r6, r2
 8002de0:	4698      	mov	r8, r3
 8002de2:	6821      	ldr	r1, [r4, #0]
 8002de4:	69ca      	ldr	r2, [r1, #28]
 8002de6:	ea37 0302 	bics.w	r3, r7, r2
 8002dea:	bf0c      	ite	eq
 8002dec:	2201      	moveq	r2, #1
 8002dee:	2200      	movne	r2, #0
 8002df0:	42b2      	cmp	r2, r6
 8002df2:	d001      	beq.n	8002df8 <UART_WaitOnFlagUntilTimeout+0x24>
 8002df4:	2000      	movs	r0, #0
 8002df6:	e018      	b.n	8002e2a <UART_WaitOnFlagUntilTimeout+0x56>
 8002df8:	1c68      	adds	r0, r5, #1
 8002dfa:	d0f3      	beq.n	8002de4 <UART_WaitOnFlagUntilTimeout+0x10>
 8002dfc:	f7fd ff22 	bl	8000c44 <HAL_GetTick>
 8002e00:	eba0 0008 	sub.w	r0, r0, r8
 8002e04:	42a8      	cmp	r0, r5
 8002e06:	6820      	ldr	r0, [r4, #0]
 8002e08:	6803      	ldr	r3, [r0, #0]
 8002e0a:	d800      	bhi.n	8002e0e <UART_WaitOnFlagUntilTimeout+0x3a>
 8002e0c:	b97d      	cbnz	r5, 8002e2e <UART_WaitOnFlagUntilTimeout+0x5a>
 8002e0e:	f423 73d0 	bic.w	r3, r3, #416	; 0x1a0
 8002e12:	6003      	str	r3, [r0, #0]
 8002e14:	6883      	ldr	r3, [r0, #8]
 8002e16:	f023 0301 	bic.w	r3, r3, #1
 8002e1a:	6083      	str	r3, [r0, #8]
 8002e1c:	2320      	movs	r3, #32
 8002e1e:	6763      	str	r3, [r4, #116]	; 0x74
 8002e20:	67a3      	str	r3, [r4, #120]	; 0x78
 8002e22:	2300      	movs	r3, #0
 8002e24:	f884 3070 	strb.w	r3, [r4, #112]	; 0x70
 8002e28:	2003      	movs	r0, #3
 8002e2a:	e8bd 81f0 	ldmia.w	sp!, {r4, r5, r6, r7, r8, pc}
 8002e2e:	075a      	lsls	r2, r3, #29
 8002e30:	d5d7      	bpl.n	8002de2 <UART_WaitOnFlagUntilTimeout+0xe>
 8002e32:	69c3      	ldr	r3, [r0, #28]
 8002e34:	051b      	lsls	r3, r3, #20
 8002e36:	d5d4      	bpl.n	8002de2 <UART_WaitOnFlagUntilTimeout+0xe>
 8002e38:	f44f 6300 	mov.w	r3, #2048	; 0x800
 8002e3c:	6203      	str	r3, [r0, #32]
 8002e3e:	6803      	ldr	r3, [r0, #0]
 8002e40:	f423 73d0 	bic.w	r3, r3, #416	; 0x1a0
 8002e44:	6003      	str	r3, [r0, #0]
 8002e46:	6883      	ldr	r3, [r0, #8]
 8002e48:	f023 0301 	bic.w	r3, r3, #1
 8002e4c:	6083      	str	r3, [r0, #8]
 8002e4e:	2320      	movs	r3, #32
 8002e50:	6763      	str	r3, [r4, #116]	; 0x74
 8002e52:	67a3      	str	r3, [r4, #120]	; 0x78
 8002e54:	67e3      	str	r3, [r4, #124]	; 0x7c
 8002e56:	e7e4      	b.n	8002e22 <UART_WaitOnFlagUntilTimeout+0x4e>

08002e58 <HAL_UART_Transmit>:
 8002e58:	e92d 43f7 	stmdb	sp!, {r0, r1, r2, r4, r5, r6, r7, r8, r9, lr}
 8002e5c:	4698      	mov	r8, r3
 8002e5e:	6f43      	ldr	r3, [r0, #116]	; 0x74
 8002e60:	2b20      	cmp	r3, #32
 8002e62:	4604      	mov	r4, r0
 8002e64:	460e      	mov	r6, r1
 8002e66:	4691      	mov	r9, r2
 8002e68:	d14c      	bne.n	8002f04 <HAL_UART_Transmit+0xac>
 8002e6a:	2900      	cmp	r1, #0
 8002e6c:	d048      	beq.n	8002f00 <HAL_UART_Transmit+0xa8>
 8002e6e:	2a00      	cmp	r2, #0
 8002e70:	d046      	beq.n	8002f00 <HAL_UART_Transmit+0xa8>
 8002e72:	f890 3070 	ldrb.w	r3, [r0, #112]	; 0x70
 8002e76:	2b01      	cmp	r3, #1
 8002e78:	d044      	beq.n	8002f04 <HAL_UART_Transmit+0xac>
 8002e7a:	2301      	movs	r3, #1
 8002e7c:	f880 3070 	strb.w	r3, [r0, #112]	; 0x70
 8002e80:	2500      	movs	r5, #0
 8002e82:	2321      	movs	r3, #33	; 0x21
 8002e84:	67c5      	str	r5, [r0, #124]	; 0x7c
 8002e86:	6743      	str	r3, [r0, #116]	; 0x74
 8002e88:	f7fd fedc 	bl	8000c44 <HAL_GetTick>
 8002e8c:	68a3      	ldr	r3, [r4, #8]
 8002e8e:	f8a4 9050 	strh.w	r9, [r4, #80]	; 0x50
 8002e92:	f5b3 5f80 	cmp.w	r3, #4096	; 0x1000
 8002e96:	4607      	mov	r7, r0
 8002e98:	f8a4 9052 	strh.w	r9, [r4, #82]	; 0x52
 8002e9c:	d103      	bne.n	8002ea6 <HAL_UART_Transmit+0x4e>
 8002e9e:	6923      	ldr	r3, [r4, #16]
 8002ea0:	b90b      	cbnz	r3, 8002ea6 <HAL_UART_Transmit+0x4e>
 8002ea2:	4635      	mov	r5, r6
 8002ea4:	461e      	mov	r6, r3
 8002ea6:	2300      	movs	r3, #0
 8002ea8:	f884 3070 	strb.w	r3, [r4, #112]	; 0x70
 8002eac:	f8b4 2052 	ldrh.w	r2, [r4, #82]	; 0x52
 8002eb0:	f8cd 8000 	str.w	r8, [sp]
 8002eb4:	b292      	uxth	r2, r2
 8002eb6:	463b      	mov	r3, r7
 8002eb8:	b93a      	cbnz	r2, 8002eca <HAL_UART_Transmit+0x72>
 8002eba:	2140      	movs	r1, #64	; 0x40
 8002ebc:	4620      	mov	r0, r4
 8002ebe:	f7ff ff89 	bl	8002dd4 <UART_WaitOnFlagUntilTimeout>
 8002ec2:	b940      	cbnz	r0, 8002ed6 <HAL_UART_Transmit+0x7e>
 8002ec4:	2320      	movs	r3, #32
 8002ec6:	6763      	str	r3, [r4, #116]	; 0x74
 8002ec8:	e006      	b.n	8002ed8 <HAL_UART_Transmit+0x80>
 8002eca:	2200      	movs	r2, #0
 8002ecc:	2180      	movs	r1, #128	; 0x80
 8002ece:	4620      	mov	r0, r4
 8002ed0:	f7ff ff80 	bl	8002dd4 <UART_WaitOnFlagUntilTimeout>
 8002ed4:	b118      	cbz	r0, 8002ede <HAL_UART_Transmit+0x86>
 8002ed6:	2003      	movs	r0, #3
 8002ed8:	b003      	add	sp, #12
 8002eda:	e8bd 83f0 	ldmia.w	sp!, {r4, r5, r6, r7, r8, r9, pc}
 8002ede:	6822      	ldr	r2, [r4, #0]
 8002ee0:	b95e      	cbnz	r6, 8002efa <HAL_UART_Transmit+0xa2>
 8002ee2:	f835 3b02 	ldrh.w	r3, [r5], #2
 8002ee6:	f3c3 0308 	ubfx	r3, r3, #0, #9
 8002eea:	8513      	strh	r3, [r2, #40]	; 0x28
 8002eec:	f8b4 3052 	ldrh.w	r3, [r4, #82]	; 0x52
 8002ef0:	3b01      	subs	r3, #1
 8002ef2:	b29b      	uxth	r3, r3
 8002ef4:	f8a4 3052 	strh.w	r3, [r4, #82]	; 0x52
 8002ef8:	e7d8      	b.n	8002eac <HAL_UART_Transmit+0x54>
 8002efa:	f816 3b01 	ldrb.w	r3, [r6], #1
 8002efe:	e7f4      	b.n	8002eea <HAL_UART_Transmit+0x92>
 8002f00:	2001      	movs	r0, #1
 8002f02:	e7e9      	b.n	8002ed8 <HAL_UART_Transmit+0x80>
 8002f04:	2002      	movs	r0, #2
 8002f06:	e7e7      	b.n	8002ed8 <HAL_UART_Transmit+0x80>

08002f08 <HAL_UART_Receive>:
 8002f08:	e92d 43f7 	stmdb	sp!, {r0, r1, r2, r4, r5, r6, r7, r8, r9, lr}
 8002f0c:	4699      	mov	r9, r3
 8002f0e:	6f83      	ldr	r3, [r0, #120]	; 0x78
 8002f10:	2b20      	cmp	r3, #32
 8002f12:	4604      	mov	r4, r0
 8002f14:	460d      	mov	r5, r1
 8002f16:	4616      	mov	r6, r2
 8002f18:	d164      	bne.n	8002fe4 <HAL_UART_Receive+0xdc>
 8002f1a:	2900      	cmp	r1, #0
 8002f1c:	d060      	beq.n	8002fe0 <HAL_UART_Receive+0xd8>
 8002f1e:	2a00      	cmp	r2, #0
 8002f20:	d05e      	beq.n	8002fe0 <HAL_UART_Receive+0xd8>
 8002f22:	f890 3070 	ldrb.w	r3, [r0, #112]	; 0x70
 8002f26:	2b01      	cmp	r3, #1
 8002f28:	d05c      	beq.n	8002fe4 <HAL_UART_Receive+0xdc>
 8002f2a:	2301      	movs	r3, #1
 8002f2c:	f880 3070 	strb.w	r3, [r0, #112]	; 0x70
 8002f30:	2700      	movs	r7, #0
 8002f32:	2322      	movs	r3, #34	; 0x22
 8002f34:	67c7      	str	r7, [r0, #124]	; 0x7c
 8002f36:	6783      	str	r3, [r0, #120]	; 0x78
 8002f38:	f7fd fe84 	bl	8000c44 <HAL_GetTick>
 8002f3c:	68a3      	ldr	r3, [r4, #8]
 8002f3e:	f8a4 6058 	strh.w	r6, [r4, #88]	; 0x58
 8002f42:	f5b3 5f80 	cmp.w	r3, #4096	; 0x1000
 8002f46:	4680      	mov	r8, r0
 8002f48:	f8a4 605a 	strh.w	r6, [r4, #90]	; 0x5a
 8002f4c:	d11c      	bne.n	8002f88 <HAL_UART_Receive+0x80>
 8002f4e:	6922      	ldr	r2, [r4, #16]
 8002f50:	b9c2      	cbnz	r2, 8002f84 <HAL_UART_Receive+0x7c>
 8002f52:	f240 12ff 	movw	r2, #511	; 0x1ff
 8002f56:	f8a4 205c 	strh.w	r2, [r4, #92]	; 0x5c
 8002f5a:	f5b3 5f80 	cmp.w	r3, #4096	; 0x1000
 8002f5e:	f8b4 705c 	ldrh.w	r7, [r4, #92]	; 0x5c
 8002f62:	d122      	bne.n	8002faa <HAL_UART_Receive+0xa2>
 8002f64:	6923      	ldr	r3, [r4, #16]
 8002f66:	bb03      	cbnz	r3, 8002faa <HAL_UART_Receive+0xa2>
 8002f68:	462e      	mov	r6, r5
 8002f6a:	461d      	mov	r5, r3
 8002f6c:	2300      	movs	r3, #0
 8002f6e:	f884 3070 	strb.w	r3, [r4, #112]	; 0x70
 8002f72:	f8b4 005a 	ldrh.w	r0, [r4, #90]	; 0x5a
 8002f76:	b280      	uxth	r0, r0
 8002f78:	b9c8      	cbnz	r0, 8002fae <HAL_UART_Receive+0xa6>
 8002f7a:	2320      	movs	r3, #32
 8002f7c:	67a3      	str	r3, [r4, #120]	; 0x78
 8002f7e:	b003      	add	sp, #12
 8002f80:	e8bd 83f0 	ldmia.w	sp!, {r4, r5, r6, r7, r8, r9, pc}
 8002f84:	22ff      	movs	r2, #255	; 0xff
 8002f86:	e7e6      	b.n	8002f56 <HAL_UART_Receive+0x4e>
 8002f88:	b923      	cbnz	r3, 8002f94 <HAL_UART_Receive+0x8c>
 8002f8a:	6922      	ldr	r2, [r4, #16]
 8002f8c:	2a00      	cmp	r2, #0
 8002f8e:	d0f9      	beq.n	8002f84 <HAL_UART_Receive+0x7c>
 8002f90:	227f      	movs	r2, #127	; 0x7f
 8002f92:	e7e0      	b.n	8002f56 <HAL_UART_Receive+0x4e>
 8002f94:	f1b3 5f80 	cmp.w	r3, #268435456	; 0x10000000
 8002f98:	d104      	bne.n	8002fa4 <HAL_UART_Receive+0x9c>
 8002f9a:	6922      	ldr	r2, [r4, #16]
 8002f9c:	2a00      	cmp	r2, #0
 8002f9e:	d0f7      	beq.n	8002f90 <HAL_UART_Receive+0x88>
 8002fa0:	223f      	movs	r2, #63	; 0x3f
 8002fa2:	e7d8      	b.n	8002f56 <HAL_UART_Receive+0x4e>
 8002fa4:	f8a4 705c 	strh.w	r7, [r4, #92]	; 0x5c
 8002fa8:	e7d7      	b.n	8002f5a <HAL_UART_Receive+0x52>
 8002faa:	2600      	movs	r6, #0
 8002fac:	e7de      	b.n	8002f6c <HAL_UART_Receive+0x64>
 8002fae:	f8cd 9000 	str.w	r9, [sp]
 8002fb2:	4643      	mov	r3, r8
 8002fb4:	2200      	movs	r2, #0
 8002fb6:	2120      	movs	r1, #32
 8002fb8:	4620      	mov	r0, r4
 8002fba:	f7ff ff0b 	bl	8002dd4 <UART_WaitOnFlagUntilTimeout>
 8002fbe:	b998      	cbnz	r0, 8002fe8 <HAL_UART_Receive+0xe0>
 8002fc0:	6823      	ldr	r3, [r4, #0]
 8002fc2:	8c9b      	ldrh	r3, [r3, #36]	; 0x24
 8002fc4:	403b      	ands	r3, r7
 8002fc6:	b945      	cbnz	r5, 8002fda <HAL_UART_Receive+0xd2>
 8002fc8:	f826 3b02 	strh.w	r3, [r6], #2
 8002fcc:	f8b4 305a 	ldrh.w	r3, [r4, #90]	; 0x5a
 8002fd0:	3b01      	subs	r3, #1
 8002fd2:	b29b      	uxth	r3, r3
 8002fd4:	f8a4 305a 	strh.w	r3, [r4, #90]	; 0x5a
 8002fd8:	e7cb      	b.n	8002f72 <HAL_UART_Receive+0x6a>
 8002fda:	f805 3b01 	strb.w	r3, [r5], #1
 8002fde:	e7f5      	b.n	8002fcc <HAL_UART_Receive+0xc4>
 8002fe0:	2001      	movs	r0, #1
 8002fe2:	e7cc      	b.n	8002f7e <HAL_UART_Receive+0x76>
 8002fe4:	2002      	movs	r0, #2
 8002fe6:	e7ca      	b.n	8002f7e <HAL_UART_Receive+0x76>
 8002fe8:	2003      	movs	r0, #3
 8002fea:	e7c8      	b.n	8002f7e <HAL_UART_Receive+0x76>

08002fec <UART_CheckIdleState>:
 8002fec:	b573      	push	{r0, r1, r4, r5, r6, lr}
 8002fee:	4604      	mov	r4, r0
 8002ff0:	2600      	movs	r6, #0
 8002ff2:	67c6      	str	r6, [r0, #124]	; 0x7c
 8002ff4:	f7fd fe26 	bl	8000c44 <HAL_GetTick>
 8002ff8:	6823      	ldr	r3, [r4, #0]
 8002ffa:	681b      	ldr	r3, [r3, #0]
 8002ffc:	071a      	lsls	r2, r3, #28
 8002ffe:	4605      	mov	r5, r0
 8003000:	d415      	bmi.n	800302e <UART_CheckIdleState+0x42>
 8003002:	6823      	ldr	r3, [r4, #0]
 8003004:	681b      	ldr	r3, [r3, #0]
 8003006:	075b      	lsls	r3, r3, #29
 8003008:	d50a      	bpl.n	8003020 <UART_CheckIdleState+0x34>
 800300a:	f06f 437e 	mvn.w	r3, #4261412864	; 0xfe000000
 800300e:	9300      	str	r3, [sp, #0]
 8003010:	2200      	movs	r2, #0
 8003012:	462b      	mov	r3, r5
 8003014:	f44f 0180 	mov.w	r1, #4194304	; 0x400000
 8003018:	4620      	mov	r0, r4
 800301a:	f7ff fedb 	bl	8002dd4 <UART_WaitOnFlagUntilTimeout>
 800301e:	b990      	cbnz	r0, 8003046 <UART_CheckIdleState+0x5a>
 8003020:	2320      	movs	r3, #32
 8003022:	2000      	movs	r0, #0
 8003024:	6763      	str	r3, [r4, #116]	; 0x74
 8003026:	f884 0070 	strb.w	r0, [r4, #112]	; 0x70
 800302a:	67a3      	str	r3, [r4, #120]	; 0x78
 800302c:	e00c      	b.n	8003048 <UART_CheckIdleState+0x5c>
 800302e:	f06f 437e 	mvn.w	r3, #4261412864	; 0xfe000000
 8003032:	9300      	str	r3, [sp, #0]
 8003034:	4632      	mov	r2, r6
 8003036:	4603      	mov	r3, r0
 8003038:	f44f 1100 	mov.w	r1, #2097152	; 0x200000
 800303c:	4620      	mov	r0, r4
 800303e:	f7ff fec9 	bl	8002dd4 <UART_WaitOnFlagUntilTimeout>
 8003042:	2800      	cmp	r0, #0
 8003044:	d0dd      	beq.n	8003002 <UART_CheckIdleState+0x16>
 8003046:	2003      	movs	r0, #3
 8003048:	b002      	add	sp, #8
 800304a:	bd70      	pop	{r4, r5, r6, pc}

0800304c <HAL_UART_Init>:
 800304c:	b510      	push	{r4, lr}
 800304e:	4604      	mov	r4, r0
 8003050:	b340      	cbz	r0, 80030a4 <HAL_UART_Init+0x58>
 8003052:	6f43      	ldr	r3, [r0, #116]	; 0x74
 8003054:	b91b      	cbnz	r3, 800305e <HAL_UART_Init+0x12>
 8003056:	f880 3070 	strb.w	r3, [r0, #112]	; 0x70
 800305a:	f7fd fccd 	bl	80009f8 <HAL_UART_MspInit>
 800305e:	6822      	ldr	r2, [r4, #0]
 8003060:	2324      	movs	r3, #36	; 0x24
 8003062:	6763      	str	r3, [r4, #116]	; 0x74
 8003064:	6813      	ldr	r3, [r2, #0]
 8003066:	f023 0301 	bic.w	r3, r3, #1
 800306a:	6013      	str	r3, [r2, #0]
 800306c:	4620      	mov	r0, r4
 800306e:	f7ff fd45 	bl	8002afc <UART_SetConfig>
 8003072:	2801      	cmp	r0, #1
 8003074:	d016      	beq.n	80030a4 <HAL_UART_Init+0x58>
 8003076:	6a63      	ldr	r3, [r4, #36]	; 0x24
 8003078:	b113      	cbz	r3, 8003080 <HAL_UART_Init+0x34>
 800307a:	4620      	mov	r0, r4
 800307c:	f7ff fe56 	bl	8002d2c <UART_AdvFeatureConfig>
 8003080:	6823      	ldr	r3, [r4, #0]
 8003082:	685a      	ldr	r2, [r3, #4]
 8003084:	f422 4290 	bic.w	r2, r2, #18432	; 0x4800
 8003088:	605a      	str	r2, [r3, #4]
 800308a:	689a      	ldr	r2, [r3, #8]
 800308c:	f022 022a 	bic.w	r2, r2, #42	; 0x2a
 8003090:	609a      	str	r2, [r3, #8]
 8003092:	681a      	ldr	r2, [r3, #0]
 8003094:	f042 0201 	orr.w	r2, r2, #1
 8003098:	4620      	mov	r0, r4
 800309a:	601a      	str	r2, [r3, #0]
 800309c:	e8bd 4010 	ldmia.w	sp!, {r4, lr}
 80030a0:	f7ff bfa4 	b.w	8002fec <UART_CheckIdleState>
 80030a4:	2001      	movs	r0, #1
 80030a6:	bd10      	pop	{r4, pc}

080030a8 <__libc_init_array>:
 80030a8:	b570      	push	{r4, r5, r6, lr}
 80030aa:	4e0d      	ldr	r6, [pc, #52]	; (80030e0 <__libc_init_array+0x38>)
 80030ac:	4c0d      	ldr	r4, [pc, #52]	; (80030e4 <__libc_init_array+0x3c>)
 80030ae:	1ba4      	subs	r4, r4, r6
 80030b0:	10a4      	asrs	r4, r4, #2
 80030b2:	2500      	movs	r5, #0
 80030b4:	42a5      	cmp	r5, r4
 80030b6:	d109      	bne.n	80030cc <__libc_init_array+0x24>
 80030b8:	4e0b      	ldr	r6, [pc, #44]	; (80030e8 <__libc_init_array+0x40>)
 80030ba:	4c0c      	ldr	r4, [pc, #48]	; (80030ec <__libc_init_array+0x44>)
 80030bc:	f000 f820 	bl	8003100 <_init>
 80030c0:	1ba4      	subs	r4, r4, r6
 80030c2:	10a4      	asrs	r4, r4, #2
 80030c4:	2500      	movs	r5, #0
 80030c6:	42a5      	cmp	r5, r4
 80030c8:	d105      	bne.n	80030d6 <__libc_init_array+0x2e>
 80030ca:	bd70      	pop	{r4, r5, r6, pc}
 80030cc:	f856 3025 	ldr.w	r3, [r6, r5, lsl #2]
 80030d0:	4798      	blx	r3
 80030d2:	3501      	adds	r5, #1
 80030d4:	e7ee      	b.n	80030b4 <__libc_init_array+0xc>
 80030d6:	f856 3025 	ldr.w	r3, [r6, r5, lsl #2]
 80030da:	4798      	blx	r3
 80030dc:	3501      	adds	r5, #1
 80030de:	e7f2      	b.n	80030c6 <__libc_init_array+0x1e>
 80030e0:	08003194 	.word	0x08003194
 80030e4:	08003194 	.word	0x08003194
 80030e8:	08003194 	.word	0x08003194
 80030ec:	08003198 	.word	0x08003198

080030f0 <memset>:
 80030f0:	4402      	add	r2, r0
 80030f2:	4603      	mov	r3, r0
 80030f4:	4293      	cmp	r3, r2
 80030f6:	d100      	bne.n	80030fa <memset+0xa>
 80030f8:	4770      	bx	lr
 80030fa:	f803 1b01 	strb.w	r1, [r3], #1
 80030fe:	e7f9      	b.n	80030f4 <memset+0x4>

08003100 <_init>:
 8003100:	b5f8      	push	{r3, r4, r5, r6, r7, lr}
 8003102:	bf00      	nop
 8003104:	bcf8      	pop	{r3, r4, r5, r6, r7}
 8003106:	bc08      	pop	{r3}
 8003108:	469e      	mov	lr, r3
 800310a:	4770      	bx	lr

0800310c <_fini>:
 800310c:	b5f8      	push	{r3, r4, r5, r6, r7, lr}
 800310e:	bf00      	nop
 8003110:	bcf8      	pop	{r3, r4, r5, r6, r7}
 8003112:	bc08      	pop	{r3}
 8003114:	469e      	mov	lr, r3
 8003116:	4770      	bx	lr
