
STM32L412K8.elf:     file format elf32-littlearm

Sections:
Idx Name          Size      VMA       LMA       File off  Algn
  0 .isr_vector   0000018c  08000000  08000000  00010000  2**0
                  CONTENTS, ALLOC, LOAD, READONLY, DATA
  1 .text         00005270  0800018c  0800018c  0001018c  2**2
                  CONTENTS, ALLOC, LOAD, READONLY, CODE
  2 .rodata       00000074  080053fc  080053fc  000153fc  2**2
                  CONTENTS, ALLOC, LOAD, READONLY, DATA
  3 .ARM.extab    00000000  08005470  08005470  00020034  2**0
                  CONTENTS
  4 .ARM          00000008  08005470  08005470  00015470  2**2
                  CONTENTS, ALLOC, LOAD, READONLY, DATA
  5 .preinit_array 00000000  08005478  08005478  00020034  2**0
                  CONTENTS, ALLOC, LOAD, DATA
  6 .init_array   00000004  08005478  08005478  00015478  2**2
                  CONTENTS, ALLOC, LOAD, DATA
  7 .fini_array   00000004  0800547c  0800547c  0001547c  2**2
                  CONTENTS, ALLOC, LOAD, DATA
  8 .data         00000034  20000000  08005480  00020000  2**2
                  CONTENTS, ALLOC, LOAD, DATA
  9 .bss          00004e18  20000034  080054b4  00020034  2**2
                  ALLOC
 10 ._user_heap_stack 00000604  20004e4c  080054b4  00024e4c  2**0
                  ALLOC
 11 .ARM.attributes 00000030  00000000  00000000  00020034  2**0
                  CONTENTS, READONLY
 12 .comment      00000050  00000000  00000000  00020064  2**0
                  CONTENTS, READONLY
 13 .debug_frame  000000ac  00000000  00000000  000200b4  2**2
                  CONTENTS, READONLY, DEBUGGING, OCTETS

Disassembly of section .text:

0800018c <__do_global_dtors_aux>:
 800018c:	b510      	push	{r4, lr}
 800018e:	4c05      	ldr	r4, [pc, #20]	; (80001a4 <__do_global_dtors_aux+0x18>)
 8000190:	7823      	ldrb	r3, [r4, #0]
 8000192:	b933      	cbnz	r3, 80001a2 <__do_global_dtors_aux+0x16>
 8000194:	4b04      	ldr	r3, [pc, #16]	; (80001a8 <__do_global_dtors_aux+0x1c>)
 8000196:	b113      	cbz	r3, 800019e <__do_global_dtors_aux+0x12>
 8000198:	4804      	ldr	r0, [pc, #16]	; (80001ac <__do_global_dtors_aux+0x20>)
 800019a:	f3af 8000 	nop.w
 800019e:	2301      	movs	r3, #1
 80001a0:	7023      	strb	r3, [r4, #0]
 80001a2:	bd10      	pop	{r4, pc}
 80001a4:	20000034 	.word	0x20000034
 80001a8:	00000000 	.word	0x00000000
 80001ac:	080053e4 	.word	0x080053e4

080001b0 <frame_dummy>:
 80001b0:	b508      	push	{r3, lr}
 80001b2:	4b03      	ldr	r3, [pc, #12]	; (80001c0 <frame_dummy+0x10>)
 80001b4:	b11b      	cbz	r3, 80001be <frame_dummy+0xe>
 80001b6:	4903      	ldr	r1, [pc, #12]	; (80001c4 <frame_dummy+0x14>)
 80001b8:	4803      	ldr	r0, [pc, #12]	; (80001c8 <frame_dummy+0x18>)
 80001ba:	f3af 8000 	nop.w
 80001be:	bd08      	pop	{r3, pc}
 80001c0:	00000000 	.word	0x00000000
 80001c4:	20000038 	.word	0x20000038
 80001c8:	080053e4 	.word	0x080053e4

080001cc <__aeabi_uldivmod>:
 80001cc:	b953      	cbnz	r3, 80001e4 <__aeabi_uldivmod+0x18>
 80001ce:	b94a      	cbnz	r2, 80001e4 <__aeabi_uldivmod+0x18>
 80001d0:	2900      	cmp	r1, #0
 80001d2:	bf08      	it	eq
 80001d4:	2800      	cmpeq	r0, #0
 80001d6:	bf1c      	itt	ne
 80001d8:	f04f 31ff 	movne.w	r1, #4294967295	; 0xffffffff
 80001dc:	f04f 30ff 	movne.w	r0, #4294967295	; 0xffffffff
 80001e0:	f000 b974 	b.w	80004cc <__aeabi_idiv0>
 80001e4:	f1ad 0c08 	sub.w	ip, sp, #8
 80001e8:	e96d ce04 	strd	ip, lr, [sp, #-16]!
 80001ec:	f000 f806 	bl	80001fc <__udivmoddi4>
 80001f0:	f8dd e004 	ldr.w	lr, [sp, #4]
 80001f4:	e9dd 2302 	ldrd	r2, r3, [sp, #8]
 80001f8:	b004      	add	sp, #16
 80001fa:	4770      	bx	lr

080001fc <__udivmoddi4>:
 80001fc:	e92d 47f0 	stmdb	sp!, {r4, r5, r6, r7, r8, r9, sl, lr}
 8000200:	9d08      	ldr	r5, [sp, #32]
 8000202:	4604      	mov	r4, r0
 8000204:	468e      	mov	lr, r1
 8000206:	2b00      	cmp	r3, #0
 8000208:	d14d      	bne.n	80002a6 <__udivmoddi4+0xaa>
 800020a:	428a      	cmp	r2, r1
 800020c:	4694      	mov	ip, r2
 800020e:	d969      	bls.n	80002e4 <__udivmoddi4+0xe8>
 8000210:	fab2 f282 	clz	r2, r2
 8000214:	b152      	cbz	r2, 800022c <__udivmoddi4+0x30>
 8000216:	fa01 f302 	lsl.w	r3, r1, r2
 800021a:	f1c2 0120 	rsb	r1, r2, #32
 800021e:	fa20 f101 	lsr.w	r1, r0, r1
 8000222:	fa0c fc02 	lsl.w	ip, ip, r2
 8000226:	ea41 0e03 	orr.w	lr, r1, r3
 800022a:	4094      	lsls	r4, r2
 800022c:	ea4f 481c 	mov.w	r8, ip, lsr #16
 8000230:	0c21      	lsrs	r1, r4, #16
 8000232:	fbbe f6f8 	udiv	r6, lr, r8
 8000236:	fa1f f78c 	uxth.w	r7, ip
 800023a:	fb08 e316 	mls	r3, r8, r6, lr
 800023e:	ea41 4303 	orr.w	r3, r1, r3, lsl #16
 8000242:	fb06 f107 	mul.w	r1, r6, r7
 8000246:	4299      	cmp	r1, r3
 8000248:	d90a      	bls.n	8000260 <__udivmoddi4+0x64>
 800024a:	eb1c 0303 	adds.w	r3, ip, r3
 800024e:	f106 30ff 	add.w	r0, r6, #4294967295	; 0xffffffff
 8000252:	f080 811f 	bcs.w	8000494 <__udivmoddi4+0x298>
 8000256:	4299      	cmp	r1, r3
 8000258:	f240 811c 	bls.w	8000494 <__udivmoddi4+0x298>
 800025c:	3e02      	subs	r6, #2
 800025e:	4463      	add	r3, ip
 8000260:	1a5b      	subs	r3, r3, r1
 8000262:	b2a4      	uxth	r4, r4
 8000264:	fbb3 f0f8 	udiv	r0, r3, r8
 8000268:	fb08 3310 	mls	r3, r8, r0, r3
 800026c:	ea44 4403 	orr.w	r4, r4, r3, lsl #16
 8000270:	fb00 f707 	mul.w	r7, r0, r7
 8000274:	42a7      	cmp	r7, r4
 8000276:	d90a      	bls.n	800028e <__udivmoddi4+0x92>
 8000278:	eb1c 0404 	adds.w	r4, ip, r4
 800027c:	f100 33ff 	add.w	r3, r0, #4294967295	; 0xffffffff
 8000280:	f080 810a 	bcs.w	8000498 <__udivmoddi4+0x29c>
 8000284:	42a7      	cmp	r7, r4
 8000286:	f240 8107 	bls.w	8000498 <__udivmoddi4+0x29c>
 800028a:	4464      	add	r4, ip
 800028c:	3802      	subs	r0, #2
 800028e:	ea40 4006 	orr.w	r0, r0, r6, lsl #16
 8000292:	1be4      	subs	r4, r4, r7
 8000294:	2600      	movs	r6, #0
 8000296:	b11d      	cbz	r5, 80002a0 <__udivmoddi4+0xa4>
 8000298:	40d4      	lsrs	r4, r2
 800029a:	2300      	movs	r3, #0
 800029c:	e9c5 4300 	strd	r4, r3, [r5]
 80002a0:	4631      	mov	r1, r6
 80002a2:	e8bd 87f0 	ldmia.w	sp!, {r4, r5, r6, r7, r8, r9, sl, pc}
 80002a6:	428b      	cmp	r3, r1
 80002a8:	d909      	bls.n	80002be <__udivmoddi4+0xc2>
 80002aa:	2d00      	cmp	r5, #0
 80002ac:	f000 80ef 	beq.w	800048e <__udivmoddi4+0x292>
 80002b0:	2600      	movs	r6, #0
 80002b2:	e9c5 0100 	strd	r0, r1, [r5]
 80002b6:	4630      	mov	r0, r6
 80002b8:	4631      	mov	r1, r6
 80002ba:	e8bd 87f0 	ldmia.w	sp!, {r4, r5, r6, r7, r8, r9, sl, pc}
 80002be:	fab3 f683 	clz	r6, r3
 80002c2:	2e00      	cmp	r6, #0
 80002c4:	d14a      	bne.n	800035c <__udivmoddi4+0x160>
 80002c6:	428b      	cmp	r3, r1
 80002c8:	d302      	bcc.n	80002d0 <__udivmoddi4+0xd4>
 80002ca:	4282      	cmp	r2, r0
 80002cc:	f200 80f9 	bhi.w	80004c2 <__udivmoddi4+0x2c6>
 80002d0:	1a84      	subs	r4, r0, r2
 80002d2:	eb61 0303 	sbc.w	r3, r1, r3
 80002d6:	2001      	movs	r0, #1
 80002d8:	469e      	mov	lr, r3
 80002da:	2d00      	cmp	r5, #0
 80002dc:	d0e0      	beq.n	80002a0 <__udivmoddi4+0xa4>
 80002de:	e9c5 4e00 	strd	r4, lr, [r5]
 80002e2:	e7dd      	b.n	80002a0 <__udivmoddi4+0xa4>
 80002e4:	b902      	cbnz	r2, 80002e8 <__udivmoddi4+0xec>
 80002e6:	deff      	udf	#255	; 0xff
 80002e8:	fab2 f282 	clz	r2, r2
 80002ec:	2a00      	cmp	r2, #0
 80002ee:	f040 8092 	bne.w	8000416 <__udivmoddi4+0x21a>
 80002f2:	eba1 010c 	sub.w	r1, r1, ip
 80002f6:	ea4f 471c 	mov.w	r7, ip, lsr #16
 80002fa:	fa1f fe8c 	uxth.w	lr, ip
 80002fe:	2601      	movs	r6, #1
 8000300:	0c20      	lsrs	r0, r4, #16
 8000302:	fbb1 f3f7 	udiv	r3, r1, r7
 8000306:	fb07 1113 	mls	r1, r7, r3, r1
 800030a:	ea40 4101 	orr.w	r1, r0, r1, lsl #16
 800030e:	fb0e f003 	mul.w	r0, lr, r3
 8000312:	4288      	cmp	r0, r1
 8000314:	d908      	bls.n	8000328 <__udivmoddi4+0x12c>
 8000316:	eb1c 0101 	adds.w	r1, ip, r1
 800031a:	f103 38ff 	add.w	r8, r3, #4294967295	; 0xffffffff
 800031e:	d202      	bcs.n	8000326 <__udivmoddi4+0x12a>
 8000320:	4288      	cmp	r0, r1
 8000322:	f200 80cb 	bhi.w	80004bc <__udivmoddi4+0x2c0>
 8000326:	4643      	mov	r3, r8
 8000328:	1a09      	subs	r1, r1, r0
 800032a:	b2a4      	uxth	r4, r4
 800032c:	fbb1 f0f7 	udiv	r0, r1, r7
 8000330:	fb07 1110 	mls	r1, r7, r0, r1
 8000334:	ea44 4401 	orr.w	r4, r4, r1, lsl #16
 8000338:	fb0e fe00 	mul.w	lr, lr, r0
 800033c:	45a6      	cmp	lr, r4
 800033e:	d908      	bls.n	8000352 <__udivmoddi4+0x156>
 8000340:	eb1c 0404 	adds.w	r4, ip, r4
 8000344:	f100 31ff 	add.w	r1, r0, #4294967295	; 0xffffffff
 8000348:	d202      	bcs.n	8000350 <__udivmoddi4+0x154>
 800034a:	45a6      	cmp	lr, r4
 800034c:	f200 80bb 	bhi.w	80004c6 <__udivmoddi4+0x2ca>
 8000350:	4608      	mov	r0, r1
 8000352:	eba4 040e 	sub.w	r4, r4, lr
 8000356:	ea40 4003 	orr.w	r0, r0, r3, lsl #16
 800035a:	e79c      	b.n	8000296 <__udivmoddi4+0x9a>
 800035c:	f1c6 0720 	rsb	r7, r6, #32
 8000360:	40b3      	lsls	r3, r6
 8000362:	fa22 fc07 	lsr.w	ip, r2, r7
 8000366:	ea4c 0c03 	orr.w	ip, ip, r3
 800036a:	fa20 f407 	lsr.w	r4, r0, r7
 800036e:	fa01 f306 	lsl.w	r3, r1, r6
 8000372:	431c      	orrs	r4, r3
 8000374:	40f9      	lsrs	r1, r7
 8000376:	ea4f 491c 	mov.w	r9, ip, lsr #16
 800037a:	fa00 f306 	lsl.w	r3, r0, r6
 800037e:	fbb1 f8f9 	udiv	r8, r1, r9
 8000382:	0c20      	lsrs	r0, r4, #16
 8000384:	fa1f fe8c 	uxth.w	lr, ip
 8000388:	fb09 1118 	mls	r1, r9, r8, r1
 800038c:	ea40 4101 	orr.w	r1, r0, r1, lsl #16
 8000390:	fb08 f00e 	mul.w	r0, r8, lr
 8000394:	4288      	cmp	r0, r1
 8000396:	fa02 f206 	lsl.w	r2, r2, r6
 800039a:	d90b      	bls.n	80003b4 <__udivmoddi4+0x1b8>
 800039c:	eb1c 0101 	adds.w	r1, ip, r1
 80003a0:	f108 3aff 	add.w	sl, r8, #4294967295	; 0xffffffff
 80003a4:	f080 8088 	bcs.w	80004b8 <__udivmoddi4+0x2bc>
 80003a8:	4288      	cmp	r0, r1
 80003aa:	f240 8085 	bls.w	80004b8 <__udivmoddi4+0x2bc>
 80003ae:	f1a8 0802 	sub.w	r8, r8, #2
 80003b2:	4461      	add	r1, ip
 80003b4:	1a09      	subs	r1, r1, r0
 80003b6:	b2a4      	uxth	r4, r4
 80003b8:	fbb1 f0f9 	udiv	r0, r1, r9
 80003bc:	fb09 1110 	mls	r1, r9, r0, r1
 80003c0:	ea44 4101 	orr.w	r1, r4, r1, lsl #16
 80003c4:	fb00 fe0e 	mul.w	lr, r0, lr
 80003c8:	458e      	cmp	lr, r1
 80003ca:	d908      	bls.n	80003de <__udivmoddi4+0x1e2>
 80003cc:	eb1c 0101 	adds.w	r1, ip, r1
 80003d0:	f100 34ff 	add.w	r4, r0, #4294967295	; 0xffffffff
 80003d4:	d26c      	bcs.n	80004b0 <__udivmoddi4+0x2b4>
 80003d6:	458e      	cmp	lr, r1
 80003d8:	d96a      	bls.n	80004b0 <__udivmoddi4+0x2b4>
 80003da:	3802      	subs	r0, #2
 80003dc:	4461      	add	r1, ip
 80003de:	ea40 4008 	orr.w	r0, r0, r8, lsl #16
 80003e2:	fba0 9402 	umull	r9, r4, r0, r2
 80003e6:	eba1 010e 	sub.w	r1, r1, lr
 80003ea:	42a1      	cmp	r1, r4
 80003ec:	46c8      	mov	r8, r9
 80003ee:	46a6      	mov	lr, r4
 80003f0:	d356      	bcc.n	80004a0 <__udivmoddi4+0x2a4>
 80003f2:	d053      	beq.n	800049c <__udivmoddi4+0x2a0>
 80003f4:	b15d      	cbz	r5, 800040e <__udivmoddi4+0x212>
 80003f6:	ebb3 0208 	subs.w	r2, r3, r8
 80003fa:	eb61 010e 	sbc.w	r1, r1, lr
 80003fe:	fa01 f707 	lsl.w	r7, r1, r7
 8000402:	fa22 f306 	lsr.w	r3, r2, r6
 8000406:	40f1      	lsrs	r1, r6
 8000408:	431f      	orrs	r7, r3
 800040a:	e9c5 7100 	strd	r7, r1, [r5]
 800040e:	2600      	movs	r6, #0
 8000410:	4631      	mov	r1, r6
 8000412:	e8bd 87f0 	ldmia.w	sp!, {r4, r5, r6, r7, r8, r9, sl, pc}
 8000416:	f1c2 0320 	rsb	r3, r2, #32
 800041a:	40d8      	lsrs	r0, r3
 800041c:	fa0c fc02 	lsl.w	ip, ip, r2
 8000420:	fa21 f303 	lsr.w	r3, r1, r3
 8000424:	4091      	lsls	r1, r2
 8000426:	4301      	orrs	r1, r0
 8000428:	ea4f 471c 	mov.w	r7, ip, lsr #16
 800042c:	fa1f fe8c 	uxth.w	lr, ip
 8000430:	fbb3 f0f7 	udiv	r0, r3, r7
 8000434:	fb07 3610 	mls	r6, r7, r0, r3
 8000438:	0c0b      	lsrs	r3, r1, #16
 800043a:	ea43 4306 	orr.w	r3, r3, r6, lsl #16
 800043e:	fb00 f60e 	mul.w	r6, r0, lr
 8000442:	429e      	cmp	r6, r3
 8000444:	fa04 f402 	lsl.w	r4, r4, r2
 8000448:	d908      	bls.n	800045c <__udivmoddi4+0x260>
 800044a:	eb1c 0303 	adds.w	r3, ip, r3
 800044e:	f100 38ff 	add.w	r8, r0, #4294967295	; 0xffffffff
 8000452:	d22f      	bcs.n	80004b4 <__udivmoddi4+0x2b8>
 8000454:	429e      	cmp	r6, r3
 8000456:	d92d      	bls.n	80004b4 <__udivmoddi4+0x2b8>
 8000458:	3802      	subs	r0, #2
 800045a:	4463      	add	r3, ip
 800045c:	1b9b      	subs	r3, r3, r6
 800045e:	b289      	uxth	r1, r1
 8000460:	fbb3 f6f7 	udiv	r6, r3, r7
 8000464:	fb07 3316 	mls	r3, r7, r6, r3
 8000468:	ea41 4103 	orr.w	r1, r1, r3, lsl #16
 800046c:	fb06 f30e 	mul.w	r3, r6, lr
 8000470:	428b      	cmp	r3, r1
 8000472:	d908      	bls.n	8000486 <__udivmoddi4+0x28a>
 8000474:	eb1c 0101 	adds.w	r1, ip, r1
 8000478:	f106 38ff 	add.w	r8, r6, #4294967295	; 0xffffffff
 800047c:	d216      	bcs.n	80004ac <__udivmoddi4+0x2b0>
 800047e:	428b      	cmp	r3, r1
 8000480:	d914      	bls.n	80004ac <__udivmoddi4+0x2b0>
 8000482:	3e02      	subs	r6, #2
 8000484:	4461      	add	r1, ip
 8000486:	1ac9      	subs	r1, r1, r3
 8000488:	ea46 4600 	orr.w	r6, r6, r0, lsl #16
 800048c:	e738      	b.n	8000300 <__udivmoddi4+0x104>
 800048e:	462e      	mov	r6, r5
 8000490:	4628      	mov	r0, r5
 8000492:	e705      	b.n	80002a0 <__udivmoddi4+0xa4>
 8000494:	4606      	mov	r6, r0
 8000496:	e6e3      	b.n	8000260 <__udivmoddi4+0x64>
 8000498:	4618      	mov	r0, r3
 800049a:	e6f8      	b.n	800028e <__udivmoddi4+0x92>
 800049c:	454b      	cmp	r3, r9
 800049e:	d2a9      	bcs.n	80003f4 <__udivmoddi4+0x1f8>
 80004a0:	ebb9 0802 	subs.w	r8, r9, r2
 80004a4:	eb64 0e0c 	sbc.w	lr, r4, ip
 80004a8:	3801      	subs	r0, #1
 80004aa:	e7a3      	b.n	80003f4 <__udivmoddi4+0x1f8>
 80004ac:	4646      	mov	r6, r8
 80004ae:	e7ea      	b.n	8000486 <__udivmoddi4+0x28a>
 80004b0:	4620      	mov	r0, r4
 80004b2:	e794      	b.n	80003de <__udivmoddi4+0x1e2>
 80004b4:	4640      	mov	r0, r8
 80004b6:	e7d1      	b.n	800045c <__udivmoddi4+0x260>
 80004b8:	46d0      	mov	r8, sl
 80004ba:	e77b      	b.n	80003b4 <__udivmoddi4+0x1b8>
 80004bc:	3b02      	subs	r3, #2
 80004be:	4461      	add	r1, ip
 80004c0:	e732      	b.n	8000328 <__udivmoddi4+0x12c>
 80004c2:	4630      	mov	r0, r6
 80004c4:	e709      	b.n	80002da <__udivmoddi4+0xde>
 80004c6:	4464      	add	r4, ip
 80004c8:	3802      	subs	r0, #2
 80004ca:	e742      	b.n	8000352 <__udivmoddi4+0x156>

080004cc <__aeabi_idiv0>:
 80004cc:	4770      	bx	lr
 80004ce:	bf00      	nop

080004d0 <bebe>:
 80004d0:	b510      	push	{r4, lr}
 80004d2:	4c16      	ldr	r4, [pc, #88]	; (800052c <bebe+0x5c>)
 80004d4:	2108      	movs	r1, #8
 80004d6:	4620      	mov	r0, r4
 80004d8:	f004 faa6 	bl	8004a28 <HAL_TIM_OC_Start>
 80004dc:	210c      	movs	r1, #12
 80004de:	4620      	mov	r0, r4
 80004e0:	f004 faa2 	bl	8004a28 <HAL_TIM_OC_Start>
 80004e4:	20c8      	movs	r0, #200	; 0xc8
 80004e6:	f001 fb51 	bl	8001b8c <HAL_Delay>
 80004ea:	2108      	movs	r1, #8
 80004ec:	4620      	mov	r0, r4
 80004ee:	f004 fb0d 	bl	8004b0c <HAL_TIM_OC_Stop>
 80004f2:	210c      	movs	r1, #12
 80004f4:	4620      	mov	r0, r4
 80004f6:	f004 fb09 	bl	8004b0c <HAL_TIM_OC_Stop>
 80004fa:	20c8      	movs	r0, #200	; 0xc8
 80004fc:	f001 fb46 	bl	8001b8c <HAL_Delay>
 8000500:	2108      	movs	r1, #8
 8000502:	4620      	mov	r0, r4
 8000504:	f004 fa90 	bl	8004a28 <HAL_TIM_OC_Start>
 8000508:	210c      	movs	r1, #12
 800050a:	4620      	mov	r0, r4
 800050c:	f004 fa8c 	bl	8004a28 <HAL_TIM_OC_Start>
 8000510:	20c8      	movs	r0, #200	; 0xc8
 8000512:	f001 fb3b 	bl	8001b8c <HAL_Delay>
 8000516:	2108      	movs	r1, #8
 8000518:	4620      	mov	r0, r4
 800051a:	f004 faf7 	bl	8004b0c <HAL_TIM_OC_Stop>
 800051e:	4620      	mov	r0, r4
 8000520:	210c      	movs	r1, #12
 8000522:	e8bd 4010 	ldmia.w	sp!, {r4, lr}
 8000526:	f004 baf1 	b.w	8004b0c <HAL_TIM_OC_Stop>
 800052a:	bf00      	nop
 800052c:	200002c0 	.word	0x200002c0

08000530 <rwFlash>:
 8000530:	4b57      	ldr	r3, [pc, #348]	; (8000690 <rwFlash+0x160>)
 8000532:	b5f0      	push	{r4, r5, r6, r7, lr}
 8000534:	881a      	ldrh	r2, [r3, #0]
 8000536:	f241 2134 	movw	r1, #4660	; 0x1234
 800053a:	b292      	uxth	r2, r2
 800053c:	428a      	cmp	r2, r1
 800053e:	b087      	sub	sp, #28
 8000540:	d11f      	bne.n	8000582 <rwFlash+0x52>
 8000542:	2801      	cmp	r0, #1
 8000544:	d15b      	bne.n	80005fe <rwFlash+0xce>
 8000546:	2300      	movs	r3, #0
 8000548:	e9cd 3301 	strd	r3, r3, [sp, #4]
 800054c:	221f      	movs	r2, #31
 800054e:	2301      	movs	r3, #1
 8000550:	4c50      	ldr	r4, [pc, #320]	; (8000694 <rwFlash+0x164>)
 8000552:	e9cd 2304 	strd	r2, r3, [sp, #16]
 8000556:	7023      	strb	r3, [r4, #0]
 8000558:	f002 fc3e 	bl	8002dd8 <HAL_FLASH_Unlock>
 800055c:	7020      	strb	r0, [r4, #0]
 800055e:	2800      	cmp	r0, #0
 8000560:	d1fa      	bne.n	8000558 <rwFlash+0x28>
 8000562:	a901      	add	r1, sp, #4
 8000564:	a802      	add	r0, sp, #8
 8000566:	f002 fd25 	bl	8002fb4 <HAL_FLASHEx_Erase>
 800056a:	b1c8      	cbz	r0, 80005a0 <rwFlash+0x70>
 800056c:	2301      	movs	r3, #1
 800056e:	7023      	strb	r3, [r4, #0]
 8000570:	f002 fc44 	bl	8002dfc <HAL_FLASH_Lock>
 8000574:	7020      	strb	r0, [r4, #0]
 8000576:	2800      	cmp	r0, #0
 8000578:	d1fa      	bne.n	8000570 <rwFlash+0x40>
 800057a:	f7ff ffa9 	bl	80004d0 <bebe>
 800057e:	b007      	add	sp, #28
 8000580:	bdf0      	pop	{r4, r5, r6, r7, pc}
 8000582:	2800      	cmp	r0, #0
 8000584:	d1df      	bne.n	8000546 <rwFlash+0x16>
 8000586:	4b44      	ldr	r3, [pc, #272]	; (8000698 <rwFlash+0x168>)
 8000588:	8018      	strh	r0, [r3, #0]
 800058a:	4b44      	ldr	r3, [pc, #272]	; (800069c <rwFlash+0x16c>)
 800058c:	8018      	strh	r0, [r3, #0]
 800058e:	4b44      	ldr	r3, [pc, #272]	; (80006a0 <rwFlash+0x170>)
 8000590:	8018      	strh	r0, [r3, #0]
 8000592:	4b44      	ldr	r3, [pc, #272]	; (80006a4 <rwFlash+0x174>)
 8000594:	8018      	strh	r0, [r3, #0]
 8000596:	4b44      	ldr	r3, [pc, #272]	; (80006a8 <rwFlash+0x178>)
 8000598:	f44f 7280 	mov.w	r2, #256	; 0x100
 800059c:	801a      	strh	r2, [r3, #0]
 800059e:	e7d2      	b.n	8000546 <rwFlash+0x16>
 80005a0:	4b3d      	ldr	r3, [pc, #244]	; (8000698 <rwFlash+0x168>)
 80005a2:	4f3b      	ldr	r7, [pc, #236]	; (8000690 <rwFlash+0x160>)
 80005a4:	881d      	ldrh	r5, [r3, #0]
 80005a6:	4b3d      	ldr	r3, [pc, #244]	; (800069c <rwFlash+0x16c>)
 80005a8:	881b      	ldrh	r3, [r3, #0]
 80005aa:	ea45 4503 	orr.w	r5, r5, r3, lsl #16
 80005ae:	4b3e      	ldr	r3, [pc, #248]	; (80006a8 <rwFlash+0x178>)
 80005b0:	881a      	ldrh	r2, [r3, #0]
 80005b2:	f241 2634 	movw	r6, #4660	; 0x1234
 80005b6:	2301      	movs	r3, #1
 80005b8:	ea46 4602 	orr.w	r6, r6, r2, lsl #16
 80005bc:	7023      	strb	r3, [r4, #0]
 80005be:	4632      	mov	r2, r6
 80005c0:	462b      	mov	r3, r5
 80005c2:	4639      	mov	r1, r7
 80005c4:	2000      	movs	r0, #0
 80005c6:	f002 fc4f 	bl	8002e68 <HAL_FLASH_Program>
 80005ca:	7020      	strb	r0, [r4, #0]
 80005cc:	2800      	cmp	r0, #0
 80005ce:	d1f6      	bne.n	80005be <rwFlash+0x8e>
 80005d0:	4b34      	ldr	r3, [pc, #208]	; (80006a4 <rwFlash+0x174>)
 80005d2:	4f36      	ldr	r7, [pc, #216]	; (80006ac <rwFlash+0x17c>)
 80005d4:	881a      	ldrh	r2, [r3, #0]
 80005d6:	4b32      	ldr	r3, [pc, #200]	; (80006a0 <rwFlash+0x170>)
 80005d8:	881d      	ldrh	r5, [r3, #0]
 80005da:	4b35      	ldr	r3, [pc, #212]	; (80006b0 <rwFlash+0x180>)
 80005dc:	681e      	ldr	r6, [r3, #0]
 80005de:	ea45 4502 	orr.w	r5, r5, r2, lsl #16
 80005e2:	2301      	movs	r3, #1
 80005e4:	ea46 76e5 	orr.w	r6, r6, r5, asr #31
 80005e8:	7023      	strb	r3, [r4, #0]
 80005ea:	462a      	mov	r2, r5
 80005ec:	4633      	mov	r3, r6
 80005ee:	4639      	mov	r1, r7
 80005f0:	2000      	movs	r0, #0
 80005f2:	f002 fc39 	bl	8002e68 <HAL_FLASH_Program>
 80005f6:	7020      	strb	r0, [r4, #0]
 80005f8:	2800      	cmp	r0, #0
 80005fa:	d1f6      	bne.n	80005ea <rwFlash+0xba>
 80005fc:	e7b6      	b.n	800056c <rwFlash+0x3c>
 80005fe:	4a2a      	ldr	r2, [pc, #168]	; (80006a8 <rwFlash+0x178>)
 8000600:	8859      	ldrh	r1, [r3, #2]
 8000602:	8011      	strh	r1, [r2, #0]
 8000604:	889a      	ldrh	r2, [r3, #4]
 8000606:	4924      	ldr	r1, [pc, #144]	; (8000698 <rwFlash+0x168>)
 8000608:	4c29      	ldr	r4, [pc, #164]	; (80006b0 <rwFlash+0x180>)
 800060a:	b292      	uxth	r2, r2
 800060c:	800a      	strh	r2, [r1, #0]
 800060e:	4929      	ldr	r1, [pc, #164]	; (80006b4 <rwFlash+0x184>)
 8000610:	f3c2 2201 	ubfx	r2, r2, #8, #2
 8000614:	700a      	strb	r2, [r1, #0]
 8000616:	88d8      	ldrh	r0, [r3, #6]
 8000618:	4a20      	ldr	r2, [pc, #128]	; (800069c <rwFlash+0x16c>)
 800061a:	b280      	uxth	r0, r0
 800061c:	8010      	strh	r0, [r2, #0]
 800061e:	8919      	ldrh	r1, [r3, #8]
 8000620:	4a1f      	ldr	r2, [pc, #124]	; (80006a0 <rwFlash+0x170>)
 8000622:	b289      	uxth	r1, r1
 8000624:	8011      	strh	r1, [r2, #0]
 8000626:	895a      	ldrh	r2, [r3, #10]
 8000628:	4b1e      	ldr	r3, [pc, #120]	; (80006a4 <rwFlash+0x174>)
 800062a:	b292      	uxth	r2, r2
 800062c:	801a      	strh	r2, [r3, #0]
 800062e:	4b22      	ldr	r3, [pc, #136]	; (80006b8 <rwFlash+0x188>)
 8000630:	f8d3 380c 	ldr.w	r3, [r3, #2060]	; 0x80c
 8000634:	6023      	str	r3, [r4, #0]
 8000636:	ee07 3a90 	vmov	s15, r3
 800063a:	eef5 7ac0 	vcmpe.f32	s15, #0.0
 800063e:	eef1 fa10 	vmrs	APSR_nzcv, fpscr
 8000642:	dd9c      	ble.n	800057e <rwFlash+0x4e>
 8000644:	ed9f 7a1d 	vldr	s14, [pc, #116]	; 80006bc <rwFlash+0x18c>
 8000648:	4b1d      	ldr	r3, [pc, #116]	; (80006c0 <rwFlash+0x190>)
 800064a:	ee67 7a87 	vmul.f32	s15, s15, s14
 800064e:	ee07 0a10 	vmov	s14, r0
 8000652:	eeb8 7a47 	vcvt.f32.u32	s14, s14
 8000656:	eec7 6a87 	vdiv.f32	s13, s15, s14
 800065a:	ee07 1a10 	vmov	s14, r1
 800065e:	eefc 6ae6 	vcvt.u32.f32	s13, s13
 8000662:	eeb8 7a47 	vcvt.f32.u32	s14, s14
 8000666:	edc3 6a00 	vstr	s13, [r3]
 800066a:	eec7 6a87 	vdiv.f32	s13, s15, s14
 800066e:	4b15      	ldr	r3, [pc, #84]	; (80006c4 <rwFlash+0x194>)
 8000670:	ee07 2a10 	vmov	s14, r2
 8000674:	eefc 6ae6 	vcvt.u32.f32	s13, s13
 8000678:	eeb8 7a47 	vcvt.f32.u32	s14, s14
 800067c:	edc3 6a00 	vstr	s13, [r3]
 8000680:	eec7 6a87 	vdiv.f32	s13, s15, s14
 8000684:	4b10      	ldr	r3, [pc, #64]	; (80006c8 <rwFlash+0x198>)
 8000686:	eefc 6ae6 	vcvt.u32.f32	s13, s13
 800068a:	edc3 6a00 	vstr	s13, [r3]
 800068e:	e776      	b.n	800057e <rwFlash+0x4e>
 8000690:	0800f800 	.word	0x0800f800
 8000694:	20000092 	.word	0x20000092
 8000698:	20000074 	.word	0x20000074
 800069c:	2000007c 	.word	0x2000007c
 80006a0:	2000007e 	.word	0x2000007e
 80006a4:	20000080 	.word	0x20000080
 80006a8:	20000d4c 	.word	0x20000d4c
 80006ac:	0800f808 	.word	0x0800f808
 80006b0:	20000078 	.word	0x20000078
 80006b4:	20000e18 	.word	0x20000e18
 80006b8:	0800f000 	.word	0x0800f000
 80006bc:	447a0000 	.word	0x447a0000
 80006c0:	20000050 	.word	0x20000050
 80006c4:	20000054 	.word	0x20000054
 80006c8:	20000058 	.word	0x20000058

080006cc <SystemClock_Config>:
 80006cc:	b510      	push	{r4, lr}
 80006ce:	b096      	sub	sp, #88	; 0x58
 80006d0:	2244      	movs	r2, #68	; 0x44
 80006d2:	2100      	movs	r1, #0
 80006d4:	a805      	add	r0, sp, #20
 80006d6:	f004 fe7d 	bl	80053d4 <memset>
 80006da:	2214      	movs	r2, #20
 80006dc:	2100      	movs	r1, #0
 80006de:	4668      	mov	r0, sp
 80006e0:	f004 fe78 	bl	80053d4 <memset>
 80006e4:	f44f 7000 	mov.w	r0, #512	; 0x200
 80006e8:	f003 f864 	bl	80037b4 <HAL_PWREx_ControlVoltageScaling>
 80006ec:	230a      	movs	r3, #10
 80006ee:	9305      	str	r3, [sp, #20]
 80006f0:	f44f 7180 	mov.w	r1, #256	; 0x100
 80006f4:	2340      	movs	r3, #64	; 0x40
 80006f6:	e9cd 1308 	strd	r1, r3, [sp, #32]
 80006fa:	2301      	movs	r3, #1
 80006fc:	930a      	str	r3, [sp, #40]	; 0x28
 80006fe:	240f      	movs	r4, #15
 8000700:	2302      	movs	r3, #2
 8000702:	e9cd 4313 	strd	r4, r3, [sp, #76]	; 0x4c
 8000706:	e9cd 3310 	strd	r3, r3, [sp, #64]	; 0x40
 800070a:	9312      	str	r3, [sp, #72]	; 0x48
 800070c:	a805      	add	r0, sp, #20
 800070e:	2308      	movs	r3, #8
 8000710:	9315      	str	r3, [sp, #84]	; 0x54
 8000712:	f003 f915 	bl	8003940 <HAL_RCC_OscConfig>
 8000716:	9400      	str	r4, [sp, #0]
 8000718:	2390      	movs	r3, #144	; 0x90
 800071a:	2100      	movs	r1, #0
 800071c:	2403      	movs	r4, #3
 800071e:	4668      	mov	r0, sp
 8000720:	e9cd 4301 	strd	r4, r3, [sp, #4]
 8000724:	e9cd 1103 	strd	r1, r1, [sp, #12]
 8000728:	f003 fbe0 	bl	8003eec <HAL_RCC_ClockConfig>
 800072c:	b016      	add	sp, #88	; 0x58
 800072e:	bd10      	pop	{r4, pc}

08000730 <main>:
 8000730:	e92d 4ff0 	stmdb	sp!, {r4, r5, r6, r7, r8, r9, sl, fp, lr}
 8000734:	4dcd      	ldr	r5, [pc, #820]	; (8000a6c <main+0x33c>)
 8000736:	f8df 9374 	ldr.w	r9, [pc, #884]	; 8000aac <main+0x37c>
 800073a:	f8df b374 	ldr.w	fp, [pc, #884]	; 8000ab0 <main+0x380>
 800073e:	b093      	sub	sp, #76	; 0x4c
 8000740:	f001 fa02 	bl	8001b48 <HAL_Init>
 8000744:	f7ff ffc2 	bl	80006cc <SystemClock_Config>
 8000748:	2214      	movs	r2, #20
 800074a:	2100      	movs	r1, #0
 800074c:	a80b      	add	r0, sp, #44	; 0x2c
 800074e:	f004 fe41 	bl	80053d4 <memset>
 8000752:	6ceb      	ldr	r3, [r5, #76]	; 0x4c
 8000754:	f043 0301 	orr.w	r3, r3, #1
 8000758:	64eb      	str	r3, [r5, #76]	; 0x4c
 800075a:	6ceb      	ldr	r3, [r5, #76]	; 0x4c
 800075c:	f003 0301 	and.w	r3, r3, #1
 8000760:	9302      	str	r3, [sp, #8]
 8000762:	9b02      	ldr	r3, [sp, #8]
 8000764:	6ceb      	ldr	r3, [r5, #76]	; 0x4c
 8000766:	f043 0302 	orr.w	r3, r3, #2
 800076a:	64eb      	str	r3, [r5, #76]	; 0x4c
 800076c:	6ceb      	ldr	r3, [r5, #76]	; 0x4c
 800076e:	f003 0302 	and.w	r3, r3, #2
 8000772:	9303      	str	r3, [sp, #12]
 8000774:	2200      	movs	r2, #0
 8000776:	f241 1142 	movw	r1, #4418	; 0x1142
 800077a:	f04f 4090 	mov.w	r0, #1207959552	; 0x48000000
 800077e:	9b03      	ldr	r3, [sp, #12]
 8000780:	f002 fdba 	bl	80032f8 <HAL_GPIO_WritePin>
 8000784:	2200      	movs	r2, #0
 8000786:	48ba      	ldr	r0, [pc, #744]	; (8000a70 <main+0x340>)
 8000788:	2118      	movs	r1, #24
 800078a:	2400      	movs	r4, #0
 800078c:	f002 fdb4 	bl	80032f8 <HAL_GPIO_WritePin>
 8000790:	2601      	movs	r6, #1
 8000792:	f241 1302 	movw	r3, #4354	; 0x1102
 8000796:	a90b      	add	r1, sp, #44	; 0x2c
 8000798:	f04f 4090 	mov.w	r0, #1207959552	; 0x48000000
 800079c:	e9cd 360b 	strd	r3, r6, [sp, #44]	; 0x2c
 80007a0:	e9cd 440d 	strd	r4, r4, [sp, #52]	; 0x34
 80007a4:	f002 fc70 	bl	8003088 <HAL_GPIO_Init>
 80007a8:	f04f 0e40 	mov.w	lr, #64	; 0x40
 80007ac:	2311      	movs	r3, #17
 80007ae:	a90b      	add	r1, sp, #44	; 0x2c
 80007b0:	f04f 4090 	mov.w	r0, #1207959552	; 0x48000000
 80007b4:	e9cd e30b 	strd	lr, r3, [sp, #44]	; 0x2c
 80007b8:	e9cd 440d 	strd	r4, r4, [sp, #52]	; 0x34
 80007bc:	f44f 6800 	mov.w	r8, #2048	; 0x800
 80007c0:	f002 fc62 	bl	8003088 <HAL_GPIO_Init>
 80007c4:	f44f 1388 	mov.w	r3, #1114112	; 0x110000
 80007c8:	a90b      	add	r1, sp, #44	; 0x2c
 80007ca:	f04f 4090 	mov.w	r0, #1207959552	; 0x48000000
 80007ce:	e9cd 830b 	strd	r8, r3, [sp, #44]	; 0x2c
 80007d2:	940d      	str	r4, [sp, #52]	; 0x34
 80007d4:	f002 fc58 	bl	8003088 <HAL_GPIO_Init>
 80007d8:	f44f 4300 	mov.w	r3, #32768	; 0x8000
 80007dc:	a90b      	add	r1, sp, #44	; 0x2c
 80007de:	f04f 4090 	mov.w	r0, #1207959552	; 0x48000000
 80007e2:	e9cd 340b 	strd	r3, r4, [sp, #44]	; 0x2c
 80007e6:	2718      	movs	r7, #24
 80007e8:	940d      	str	r4, [sp, #52]	; 0x34
 80007ea:	f002 fc4d 	bl	8003088 <HAL_GPIO_Init>
 80007ee:	48a0      	ldr	r0, [pc, #640]	; (8000a70 <main+0x340>)
 80007f0:	a90b      	add	r1, sp, #44	; 0x2c
 80007f2:	e9cd 760b 	strd	r7, r6, [sp, #44]	; 0x2c
 80007f6:	e9cd 440d 	strd	r4, r4, [sp, #52]	; 0x34
 80007fa:	f002 fc45 	bl	8003088 <HAL_GPIO_Init>
 80007fe:	6cab      	ldr	r3, [r5, #72]	; 0x48
 8000800:	4333      	orrs	r3, r6
 8000802:	64ab      	str	r3, [r5, #72]	; 0x48
 8000804:	6cab      	ldr	r3, [r5, #72]	; 0x48
 8000806:	4d9b      	ldr	r5, [pc, #620]	; (8000a74 <main+0x344>)
 8000808:	4033      	ands	r3, r6
 800080a:	4622      	mov	r2, r4
 800080c:	4621      	mov	r1, r4
 800080e:	9301      	str	r3, [sp, #4]
 8000810:	200b      	movs	r0, #11
 8000812:	9b01      	ldr	r3, [sp, #4]
 8000814:	f002 f90e 	bl	8002a34 <HAL_NVIC_SetPriority>
 8000818:	200b      	movs	r0, #11
 800081a:	f002 f93d 	bl	8002a98 <HAL_NVIC_EnableIRQ>
 800081e:	4622      	mov	r2, r4
 8000820:	4621      	mov	r1, r4
 8000822:	200f      	movs	r0, #15
 8000824:	f002 f906 	bl	8002a34 <HAL_NVIC_SetPriority>
 8000828:	200f      	movs	r0, #15
 800082a:	f002 f935 	bl	8002a98 <HAL_NVIC_EnableIRQ>
 800082e:	463a      	mov	r2, r7
 8000830:	4621      	mov	r1, r4
 8000832:	a80b      	add	r0, sp, #44	; 0x2c
 8000834:	e9cd 4407 	strd	r4, r4, [sp, #28]
 8000838:	9409      	str	r4, [sp, #36]	; 0x24
 800083a:	f004 fdcb 	bl	80053d4 <memset>
 800083e:	4b8e      	ldr	r3, [pc, #568]	; (8000a78 <main+0x348>)
 8000840:	832e      	strh	r6, [r5, #24]
 8000842:	e9c5 3400 	strd	r3, r4, [r5]
 8000846:	2308      	movs	r3, #8
 8000848:	e9c5 3402 	strd	r3, r4, [r5, #8]
 800084c:	2704      	movs	r7, #4
 800084e:	2302      	movs	r3, #2
 8000850:	4628      	mov	r0, r5
 8000852:	61eb      	str	r3, [r5, #28]
 8000854:	e9c5 440a 	strd	r4, r4, [r5, #40]	; 0x28
 8000858:	612e      	str	r6, [r5, #16]
 800085a:	616f      	str	r7, [r5, #20]
 800085c:	f885 4020 	strb.w	r4, [r5, #32]
 8000860:	f885 4030 	strb.w	r4, [r5, #48]	; 0x30
 8000864:	636c      	str	r4, [r5, #52]	; 0x34
 8000866:	f885 4038 	strb.w	r4, [r5, #56]	; 0x38
 800086a:	f001 f9b9 	bl	8001be0 <HAL_ADC_Init>
 800086e:	a907      	add	r1, sp, #28
 8000870:	4628      	mov	r0, r5
 8000872:	9407      	str	r4, [sp, #28]
 8000874:	f002 f86a 	bl	800294c <HAL_ADCEx_MultiModeConfigChannel>
 8000878:	2306      	movs	r3, #6
 800087a:	e9cd 930b 	strd	r9, r3, [sp, #44]	; 0x2c
 800087e:	a90b      	add	r1, sp, #44	; 0x2c
 8000880:	237f      	movs	r3, #127	; 0x7f
 8000882:	f04f 0a03 	mov.w	sl, #3
 8000886:	4628      	mov	r0, r5
 8000888:	e9cd a30d 	strd	sl, r3, [sp, #52]	; 0x34
 800088c:	e9cd 760f 	strd	r7, r6, [sp, #60]	; 0x3c
 8000890:	f001 fbee 	bl	8002070 <HAL_ADC_ConfigChannel>
 8000894:	230c      	movs	r3, #12
 8000896:	a90b      	add	r1, sp, #44	; 0x2c
 8000898:	4628      	mov	r0, r5
 800089a:	e9cd b30b 	strd	fp, r3, [sp, #44]	; 0x2c
 800089e:	9410      	str	r4, [sp, #64]	; 0x40
 80008a0:	f001 fbe6 	bl	8002070 <HAL_ADC_ConfigChannel>
 80008a4:	217f      	movs	r1, #127	; 0x7f
 80008a6:	4628      	mov	r0, r5
 80008a8:	f002 f800 	bl	80028ac <HAL_ADCEx_Calibration_Start>
 80008ac:	4604      	mov	r4, r0
 80008ae:	2800      	cmp	r0, #0
 80008b0:	d1f8      	bne.n	80008a4 <main+0x174>
 80008b2:	4872      	ldr	r0, [pc, #456]	; (8000a7c <main+0x34c>)
 80008b4:	4a72      	ldr	r2, [pc, #456]	; (8000a80 <main+0x350>)
 80008b6:	6104      	str	r4, [r0, #16]
 80008b8:	f44f 33e1 	mov.w	r3, #115200	; 0x1c200
 80008bc:	e9c0 2300 	strd	r2, r3, [r0]
 80008c0:	230c      	movs	r3, #12
 80008c2:	2520      	movs	r5, #32
 80008c4:	e9c0 3405 	strd	r3, r4, [r0, #20]
 80008c8:	f44f 5300 	mov.w	r3, #8192	; 0x2000
 80008cc:	63c3      	str	r3, [r0, #60]	; 0x3c
 80008ce:	6245      	str	r5, [r0, #36]	; 0x24
 80008d0:	e9c0 4402 	strd	r4, r4, [r0, #8]
 80008d4:	e9c0 4407 	strd	r4, r4, [r0, #28]
 80008d8:	f004 fcaf 	bl	800523a <HAL_UART_Init>
 80008dc:	2210      	movs	r2, #16
 80008de:	4621      	mov	r1, r4
 80008e0:	a80b      	add	r0, sp, #44	; 0x2c
 80008e2:	f004 fd77 	bl	80053d4 <memset>
 80008e6:	4e67      	ldr	r6, [pc, #412]	; (8000a84 <main+0x354>)
 80008e8:	4b67      	ldr	r3, [pc, #412]	; (8000a88 <main+0x358>)
 80008ea:	9409      	str	r4, [sp, #36]	; 0x24
 80008ec:	e9c6 3400 	strd	r3, r4, [r6]
 80008f0:	2364      	movs	r3, #100	; 0x64
 80008f2:	e9c6 3403 	strd	r3, r4, [r6, #12]
 80008f6:	4630      	mov	r0, r6
 80008f8:	2380      	movs	r3, #128	; 0x80
 80008fa:	61b3      	str	r3, [r6, #24]
 80008fc:	e9cd 4407 	strd	r4, r4, [sp, #28]
 8000900:	60b4      	str	r4, [r6, #8]
 8000902:	6174      	str	r4, [r6, #20]
 8000904:	f003 fee2 	bl	80046cc <HAL_TIM_Base_Init>
 8000908:	f44f 5380 	mov.w	r3, #4096	; 0x1000
 800090c:	a90b      	add	r1, sp, #44	; 0x2c
 800090e:	4630      	mov	r0, r6
 8000910:	930b      	str	r3, [sp, #44]	; 0x2c
 8000912:	f003 ffdf 	bl	80048d4 <HAL_TIM_ConfigClockSource>
 8000916:	2108      	movs	r1, #8
 8000918:	4630      	mov	r0, r6
 800091a:	f003 ff37 	bl	800478c <HAL_TIM_OnePulse_Init>
 800091e:	a907      	add	r1, sp, #28
 8000920:	4630      	mov	r0, r6
 8000922:	9507      	str	r5, [sp, #28]
 8000924:	9409      	str	r4, [sp, #36]	; 0x24
 8000926:	f004 f93f 	bl	8004ba8 <HAL_TIMEx_MasterConfigSynchronization>
 800092a:	2218      	movs	r2, #24
 800092c:	4621      	mov	r1, r4
 800092e:	a80b      	add	r0, sp, #44	; 0x2c
 8000930:	f004 fd50 	bl	80053d4 <memset>
 8000934:	4d55      	ldr	r5, [pc, #340]	; (8000a8c <main+0x35c>)
 8000936:	4b56      	ldr	r3, [pc, #344]	; (8000a90 <main+0x360>)
 8000938:	612c      	str	r4, [r5, #16]
 800093a:	2701      	movs	r7, #1
 800093c:	e9c5 3400 	strd	r3, r4, [r5]
 8000940:	2304      	movs	r3, #4
 8000942:	f44f 61b0 	mov.w	r1, #1408	; 0x580
 8000946:	616b      	str	r3, [r5, #20]
 8000948:	832f      	strh	r7, [r5, #24]
 800094a:	f44f 6380 	mov.w	r3, #1024	; 0x400
 800094e:	4628      	mov	r0, r5
 8000950:	e9c5 130a 	strd	r1, r3, [r5, #40]	; 0x28
 8000954:	e9c5 4402 	strd	r4, r4, [r5, #8]
 8000958:	61ef      	str	r7, [r5, #28]
 800095a:	f885 4020 	strb.w	r4, [r5, #32]
 800095e:	f885 4030 	strb.w	r4, [r5, #48]	; 0x30
 8000962:	636c      	str	r4, [r5, #52]	; 0x34
 8000964:	f885 4038 	strb.w	r4, [r5, #56]	; 0x38
 8000968:	f001 f93a 	bl	8001be0 <HAL_ADC_Init>
 800096c:	4849      	ldr	r0, [pc, #292]	; (8000a94 <main+0x364>)
 800096e:	2306      	movs	r3, #6
 8000970:	e9cd 030b 	strd	r0, r3, [sp, #44]	; 0x2c
 8000974:	f04f 0c02 	mov.w	ip, #2
 8000978:	237f      	movs	r3, #127	; 0x7f
 800097a:	a90b      	add	r1, sp, #44	; 0x2c
 800097c:	4628      	mov	r0, r5
 800097e:	e9cd c30d 	strd	ip, r3, [sp, #52]	; 0x34
 8000982:	e9cd 470f 	strd	r4, r7, [sp, #60]	; 0x3c
 8000986:	f001 fb73 	bl	8002070 <HAL_ADC_ConfigChannel>
 800098a:	217f      	movs	r1, #127	; 0x7f
 800098c:	4628      	mov	r0, r5
 800098e:	f001 ff8d 	bl	80028ac <HAL_ADCEx_Calibration_Start>
 8000992:	4604      	mov	r4, r0
 8000994:	2800      	cmp	r0, #0
 8000996:	d1f8      	bne.n	800098a <main+0x25a>
 8000998:	4601      	mov	r1, r0
 800099a:	2210      	movs	r2, #16
 800099c:	a807      	add	r0, sp, #28
 800099e:	4d3e      	ldr	r5, [pc, #248]	; (8000a98 <main+0x368>)
 80009a0:	4f3e      	ldr	r7, [pc, #248]	; (8000a9c <main+0x36c>)
 80009a2:	f004 fd17 	bl	80053d4 <memset>
 80009a6:	221c      	movs	r2, #28
 80009a8:	4621      	mov	r1, r4
 80009aa:	a80b      	add	r0, sp, #44	; 0x2c
 80009ac:	f04f 0908 	mov.w	r9, #8
 80009b0:	e9cd 4404 	strd	r4, r4, [sp, #16]
 80009b4:	9406      	str	r4, [sp, #24]
 80009b6:	f004 fd0d 	bl	80053d4 <memset>
 80009ba:	f04f 4380 	mov.w	r3, #1073741824	; 0x40000000
 80009be:	e9c5 3900 	strd	r3, r9, [r5]
 80009c2:	f04f 0880 	mov.w	r8, #128	; 0x80
 80009c6:	2338      	movs	r3, #56	; 0x38
 80009c8:	4628      	mov	r0, r5
 80009ca:	e9c5 3403 	strd	r3, r4, [r5, #12]
 80009ce:	60ac      	str	r4, [r5, #8]
 80009d0:	f8c5 8018 	str.w	r8, [r5, #24]
 80009d4:	f003 fe7a 	bl	80046cc <HAL_TIM_Base_Init>
 80009d8:	f44f 5380 	mov.w	r3, #4096	; 0x1000
 80009dc:	a907      	add	r1, sp, #28
 80009de:	4628      	mov	r0, r5
 80009e0:	9307      	str	r3, [sp, #28]
 80009e2:	f003 ff77 	bl	80048d4 <HAL_TIM_ConfigClockSource>
 80009e6:	4628      	mov	r0, r5
 80009e8:	f003 fea0 	bl	800472c <HAL_TIM_OC_Init>
 80009ec:	2320      	movs	r3, #32
 80009ee:	a904      	add	r1, sp, #16
 80009f0:	4628      	mov	r0, r5
 80009f2:	9304      	str	r3, [sp, #16]
 80009f4:	9406      	str	r4, [sp, #24]
 80009f6:	f04f 0a02 	mov.w	sl, #2
 80009fa:	f004 f8d5 	bl	8004ba8 <HAL_TIMEx_MasterConfigSynchronization>
 80009fe:	a90b      	add	r1, sp, #44	; 0x2c
 8000a00:	2330      	movs	r3, #48	; 0x30
 8000a02:	220c      	movs	r2, #12
 8000a04:	4628      	mov	r0, r5
 8000a06:	e9cd 340b 	strd	r3, r4, [sp, #44]	; 0x2c
 8000a0a:	940f      	str	r4, [sp, #60]	; 0x3c
 8000a0c:	f8cd a034 	str.w	sl, [sp, #52]	; 0x34
 8000a10:	f003 ff22 	bl	8004858 <HAL_TIM_OC_ConfigChannel>
 8000a14:	682a      	ldr	r2, [r5, #0]
 8000a16:	69d3      	ldr	r3, [r2, #28]
 8000a18:	f443 6300 	orr.w	r3, r3, #2048	; 0x800
 8000a1c:	61d3      	str	r3, [r2, #28]
 8000a1e:	4628      	mov	r0, r5
 8000a20:	f000 fd88 	bl	8001534 <HAL_TIM_MspPostInit>
 8000a24:	4b1e      	ldr	r3, [pc, #120]	; (8000aa0 <main+0x370>)
 8000a26:	60bc      	str	r4, [r7, #8]
 8000a28:	e9c7 3900 	strd	r3, r9, [r7]
 8000a2c:	4638      	mov	r0, r7
 8000a2e:	f247 5330 	movw	r3, #30000	; 0x7530
 8000a32:	e9c7 3403 	strd	r3, r4, [r7, #12]
 8000a36:	e9c7 4805 	strd	r4, r8, [r7, #20]
 8000a3a:	f003 fe47 	bl	80046cc <HAL_TIM_Base_Init>
 8000a3e:	4649      	mov	r1, r9
 8000a40:	4638      	mov	r0, r7
 8000a42:	f003 fea3 	bl	800478c <HAL_TIM_OnePulse_Init>
 8000a46:	4d17      	ldr	r5, [pc, #92]	; (8000aa4 <main+0x374>)
 8000a48:	4b17      	ldr	r3, [pc, #92]	; (8000aa8 <main+0x378>)
 8000a4a:	60ac      	str	r4, [r5, #8]
 8000a4c:	e9c5 3a00 	strd	r3, sl, [r5]
 8000a50:	4628      	mov	r0, r5
 8000a52:	f644 6320 	movw	r3, #20000	; 0x4e20
 8000a56:	60eb      	str	r3, [r5, #12]
 8000a58:	f8c5 8018 	str.w	r8, [r5, #24]
 8000a5c:	e9cd 440b 	strd	r4, r4, [sp, #44]	; 0x2c
 8000a60:	940d      	str	r4, [sp, #52]	; 0x34
 8000a62:	f003 fe33 	bl	80046cc <HAL_TIM_Base_Init>
 8000a66:	a90b      	add	r1, sp, #44	; 0x2c
 8000a68:	4628      	mov	r0, r5
 8000a6a:	e023      	b.n	8000ab4 <main+0x384>
 8000a6c:	40021000 	.word	0x40021000
 8000a70:	48000400 	.word	0x48000400
 8000a74:	20000094 	.word	0x20000094
 8000a78:	50040000 	.word	0x50040000
 8000a7c:	20000358 	.word	0x20000358
 8000a80:	40013800 	.word	0x40013800
 8000a84:	20000228 	.word	0x20000228
 8000a88:	40014000 	.word	0x40014000
 8000a8c:	200000f8 	.word	0x200000f8
 8000a90:	50040100 	.word	0x50040100
 8000a94:	43210000 	.word	0x43210000
 8000a98:	200002c0 	.word	0x200002c0
 8000a9c:	20000274 	.word	0x20000274
 8000aa0:	40014400 	.word	0x40014400
 8000aa4:	2000030c 	.word	0x2000030c
 8000aa8:	40001000 	.word	0x40001000
 8000aac:	32601000 	.word	0x32601000
 8000ab0:	c7520000 	.word	0xc7520000
 8000ab4:	940b      	str	r4, [sp, #44]	; 0x2c
 8000ab6:	4dc0      	ldr	r5, [pc, #768]	; (8000db8 <main+0x688>)
 8000ab8:	940d      	str	r4, [sp, #52]	; 0x34
 8000aba:	f004 f875 	bl	8004ba8 <HAL_TIMEx_MasterConfigSynchronization>
 8000abe:	4bbf      	ldr	r3, [pc, #764]	; (8000dbc <main+0x68c>)
 8000ac0:	60ac      	str	r4, [r5, #8]
 8000ac2:	e9c5 3400 	strd	r3, r4, [r5]
 8000ac6:	f64f 73ff 	movw	r3, #65535	; 0xffff
 8000aca:	616b      	str	r3, [r5, #20]
 8000acc:	4628      	mov	r0, r5
 8000ace:	f44f 0380 	mov.w	r3, #4194304	; 0x400000
 8000ad2:	e9c5 3409 	strd	r3, r4, [r5, #36]	; 0x24
 8000ad6:	e9c5 440b 	strd	r4, r4, [r5, #44]	; 0x2c
 8000ada:	622c      	str	r4, [r5, #32]
 8000adc:	636c      	str	r4, [r5, #52]	; 0x34
 8000ade:	f002 fd6d 	bl	80035bc <HAL_LPTIM_Init>
 8000ae2:	4628      	mov	r0, r5
 8000ae4:	f002 fe2e 	bl	8003744 <HAL_LPTIM_Counter_Stop_IT>
 8000ae8:	4bb5      	ldr	r3, [pc, #724]	; (8000dc0 <main+0x690>)
 8000aea:	eddf 6ab6 	vldr	s13, [pc, #728]	; 8000dc4 <main+0x694>
 8000aee:	881a      	ldrh	r2, [r3, #0]
 8000af0:	f8ad 2010 	strh.w	r2, [sp, #16]
 8000af4:	789b      	ldrb	r3, [r3, #2]
 8000af6:	4ab4      	ldr	r2, [pc, #720]	; (8000dc8 <main+0x698>)
 8000af8:	f88d 3012 	strb.w	r3, [sp, #18]
 8000afc:	f8b2 10a8 	ldrh.w	r1, [r2, #168]	; 0xa8
 8000b00:	f8b2 30ca 	ldrh.w	r3, [r2, #202]	; 0xca
 8000b04:	f8df 92d8 	ldr.w	r9, [pc, #728]	; 8000de0 <main+0x6b0>
 8000b08:	1a5b      	subs	r3, r3, r1
 8000b0a:	ee07 3a90 	vmov	s15, r3
 8000b0e:	eeb8 7ae7 	vcvt.f32.s32	s14, s15
 8000b12:	f8b2 30a8 	ldrh.w	r3, [r2, #168]	; 0xa8
 8000b16:	eec6 7a87 	vdiv.f32	s15, s13, s14
 8000b1a:	b29b      	uxth	r3, r3
 8000b1c:	ee07 3a10 	vmov	s14, r3
 8000b20:	eeb8 7a47 	vcvt.f32.u32	s14, s14
 8000b24:	eef3 6a0e 	vmov.f32	s13, #62	; 0x41f00000  30.0
 8000b28:	eee7 6ac7 	vfms.f32	s13, s15, s14
 8000b2c:	4ba7      	ldr	r3, [pc, #668]	; (8000dcc <main+0x69c>)
 8000b2e:	eeb1 7a00 	vmov.f32	s14, #16	; 0x40800000  4.0
 8000b32:	ee67 7a87 	vmul.f32	s15, s15, s14
 8000b36:	ed9f 7aa6 	vldr	s14, [pc, #664]	; 8000dd0 <main+0x6a0>
 8000b3a:	edc3 6a00 	vstr	s13, [r3]
 8000b3e:	ee67 7a87 	vmul.f32	s15, s15, s14
 8000b42:	eef0 6a08 	vmov.f32	s13, #8	; 0x40400000  3.0
 8000b46:	ee87 7aa6 	vdiv.f32	s14, s15, s13
 8000b4a:	4ba2      	ldr	r3, [pc, #648]	; (8000dd4 <main+0x6a4>)
 8000b4c:	ed83 7a00 	vstr	s14, [r3]
 8000b50:	f001 f816 	bl	8001b80 <HAL_GetTick>
 8000b54:	4ba0      	ldr	r3, [pc, #640]	; (8000dd8 <main+0x6a8>)
 8000b56:	1e02      	subs	r2, r0, #0
 8000b58:	6018      	str	r0, [r3, #0]
 8000b5a:	4ba0      	ldr	r3, [pc, #640]	; (8000ddc <main+0x6ac>)
 8000b5c:	bf18      	it	ne
 8000b5e:	2201      	movne	r2, #1
 8000b60:	701a      	strb	r2, [r3, #0]
 8000b62:	4b9f      	ldr	r3, [pc, #636]	; (8000de0 <main+0x6b0>)
 8000b64:	601c      	str	r4, [r3, #0]
 8000b66:	4b9f      	ldr	r3, [pc, #636]	; (8000de4 <main+0x6b4>)
 8000b68:	4680      	mov	r8, r0
 8000b6a:	4620      	mov	r0, r4
 8000b6c:	601c      	str	r4, [r3, #0]
 8000b6e:	f7ff fcdf 	bl	8000530 <rwFlash>
 8000b72:	4a9d      	ldr	r2, [pc, #628]	; (8000de8 <main+0x6b8>)
 8000b74:	489d      	ldr	r0, [pc, #628]	; (8000dec <main+0x6bc>)
 8000b76:	8813      	ldrh	r3, [r2, #0]
 8000b78:	3b01      	subs	r3, #1
 8000b7a:	b29b      	uxth	r3, r3
 8000b7c:	f640 71fe 	movw	r1, #4094	; 0xffe
 8000b80:	428b      	cmp	r3, r1
 8000b82:	bf84      	itt	hi
 8000b84:	233c      	movhi	r3, #60	; 0x3c
 8000b86:	8013      	strhhi	r3, [r2, #0]
 8000b88:	2108      	movs	r1, #8
 8000b8a:	2201      	movs	r2, #1
 8000b8c:	f002 fbb4 	bl	80032f8 <HAL_GPIO_WritePin>
 8000b90:	2201      	movs	r2, #1
 8000b92:	2140      	movs	r1, #64	; 0x40
 8000b94:	f04f 4090 	mov.w	r0, #1207959552	; 0x48000000
 8000b98:	f002 fbae 	bl	80032f8 <HAL_GPIO_WritePin>
 8000b9c:	6833      	ldr	r3, [r6, #0]
 8000b9e:	4894      	ldr	r0, [pc, #592]	; (8000df0 <main+0x6c0>)
 8000ba0:	f06f 0401 	mvn.w	r4, #1
 8000ba4:	611c      	str	r4, [r3, #16]
 8000ba6:	f003 fc5d 	bl	8004464 <HAL_TIM_Base_Start_IT>
 8000baa:	2108      	movs	r1, #8
 8000bac:	4891      	ldr	r0, [pc, #580]	; (8000df4 <main+0x6c4>)
 8000bae:	f003 ff3b 	bl	8004a28 <HAL_TIM_OC_Start>
 8000bb2:	210c      	movs	r1, #12
 8000bb4:	488f      	ldr	r0, [pc, #572]	; (8000df4 <main+0x6c4>)
 8000bb6:	f003 ff37 	bl	8004a28 <HAL_TIM_OC_Start>
 8000bba:	2201      	movs	r2, #1
 8000bbc:	2102      	movs	r1, #2
 8000bbe:	f04f 4090 	mov.w	r0, #1207959552	; 0x48000000
 8000bc2:	f002 fb99 	bl	80032f8 <HAL_GPIO_WritePin>
 8000bc6:	683b      	ldr	r3, [r7, #0]
 8000bc8:	488b      	ldr	r0, [pc, #556]	; (8000df8 <main+0x6c8>)
 8000bca:	611c      	str	r4, [r3, #16]
 8000bcc:	f003 fc4a 	bl	8004464 <HAL_TIM_Base_Start_IT>
 8000bd0:	4a8a      	ldr	r2, [pc, #552]	; (8000dfc <main+0x6cc>)
 8000bd2:	488b      	ldr	r0, [pc, #556]	; (8000e00 <main+0x6d0>)
 8000bd4:	2300      	movs	r3, #0
 8000bd6:	8013      	strh	r3, [r2, #0]
 8000bd8:	4a8a      	ldr	r2, [pc, #552]	; (8000e04 <main+0x6d4>)
 8000bda:	8013      	strh	r3, [r2, #0]
 8000bdc:	f003 fc42 	bl	8004464 <HAL_TIM_Base_Start_IT>
 8000be0:	4b89      	ldr	r3, [pc, #548]	; (8000e08 <main+0x6d8>)
 8000be2:	781b      	ldrb	r3, [r3, #0]
 8000be4:	b1ab      	cbz	r3, 8000c12 <main+0x4e2>
 8000be6:	f000 ffcb 	bl	8001b80 <HAL_GetTick>
 8000bea:	eba0 0008 	sub.w	r0, r0, r8
 8000bee:	f5b0 6ffa 	cmp.w	r0, #2000	; 0x7d0
 8000bf2:	d90e      	bls.n	8000c12 <main+0x4e2>
 8000bf4:	4a84      	ldr	r2, [pc, #528]	; (8000e08 <main+0x6d8>)
 8000bf6:	4885      	ldr	r0, [pc, #532]	; (8000e0c <main+0x6dc>)
 8000bf8:	2300      	movs	r3, #0
 8000bfa:	7013      	strb	r3, [r2, #0]
 8000bfc:	f001 fcc0 	bl	8002580 <HAL_ADC_Start_IT>
 8000c00:	f000 ffbe 	bl	8001b80 <HAL_GetTick>
 8000c04:	4b74      	ldr	r3, [pc, #464]	; (8000dd8 <main+0x6a8>)
 8000c06:	f44f 41fa 	mov.w	r1, #32000	; 0x7d00
 8000c0a:	6018      	str	r0, [r3, #0]
 8000c0c:	486a      	ldr	r0, [pc, #424]	; (8000db8 <main+0x688>)
 8000c0e:	f002 fd47 	bl	80036a0 <HAL_LPTIM_Counter_Start_IT>
 8000c12:	f44f 4100 	mov.w	r1, #32768	; 0x8000
 8000c16:	f04f 4090 	mov.w	r0, #1207959552	; 0x48000000
 8000c1a:	f002 fb67 	bl	80032ec <HAL_GPIO_ReadPin>
 8000c1e:	2801      	cmp	r0, #1
 8000c20:	f040 8311 	bne.w	8001246 <main+0xb16>
 8000c24:	4c7a      	ldr	r4, [pc, #488]	; (8000e10 <main+0x6e0>)
 8000c26:	7823      	ldrb	r3, [r4, #0]
 8000c28:	b14b      	cbz	r3, 8000c3e <main+0x50e>
 8000c2a:	487a      	ldr	r0, [pc, #488]	; (8000e14 <main+0x6e4>)
 8000c2c:	f004 fb05 	bl	800523a <HAL_UART_Init>
 8000c30:	4878      	ldr	r0, [pc, #480]	; (8000e14 <main+0x6e4>)
 8000c32:	2214      	movs	r2, #20
 8000c34:	a90b      	add	r1, sp, #44	; 0x2c
 8000c36:	f004 fb81 	bl	800533c <HAL_UART_Receive_DMA>
 8000c3a:	2300      	movs	r3, #0
 8000c3c:	7023      	strb	r3, [r4, #0]
 8000c3e:	4b76      	ldr	r3, [pc, #472]	; (8000e18 <main+0x6e8>)
 8000c40:	f893 3025 	ldrb.w	r3, [r3, #37]	; 0x25
 8000c44:	2b01      	cmp	r3, #1
 8000c46:	d14c      	bne.n	8000ce2 <main+0x5b2>
 8000c48:	4872      	ldr	r0, [pc, #456]	; (8000e14 <main+0x6e4>)
 8000c4a:	2214      	movs	r2, #20
 8000c4c:	a90b      	add	r1, sp, #44	; 0x2c
 8000c4e:	f004 fb75 	bl	800533c <HAL_UART_Receive_DMA>
 8000c52:	f89d 302c 	ldrb.w	r3, [sp, #44]	; 0x2c
 8000c56:	2b3c      	cmp	r3, #60	; 0x3c
 8000c58:	d143      	bne.n	8000ce2 <main+0x5b2>
 8000c5a:	f89d 302e 	ldrb.w	r3, [sp, #46]	; 0x2e
 8000c5e:	2b3e      	cmp	r3, #62	; 0x3e
 8000c60:	d13f      	bne.n	8000ce2 <main+0x5b2>
 8000c62:	2200      	movs	r2, #0
 8000c64:	a90b      	add	r1, sp, #44	; 0x2c
 8000c66:	4613      	mov	r3, r2
 8000c68:	f811 0b01 	ldrb.w	r0, [r1], #1
 8000c6c:	3201      	adds	r2, #1
 8000c6e:	4403      	add	r3, r0
 8000c70:	2a12      	cmp	r2, #18
 8000c72:	b29b      	uxth	r3, r3
 8000c74:	d1f8      	bne.n	8000c68 <main+0x538>
 8000c76:	f89d 103e 	ldrb.w	r1, [sp, #62]	; 0x3e
 8000c7a:	b2da      	uxtb	r2, r3
 8000c7c:	4291      	cmp	r1, r2
 8000c7e:	d130      	bne.n	8000ce2 <main+0x5b2>
 8000c80:	f89d 203f 	ldrb.w	r2, [sp, #63]	; 0x3f
 8000c84:	ebb2 2f13 	cmp.w	r2, r3, lsr #8
 8000c88:	d12b      	bne.n	8000ce2 <main+0x5b2>
 8000c8a:	f89d 302d 	ldrb.w	r3, [sp, #45]	; 0x2d
 8000c8e:	2b31      	cmp	r3, #49	; 0x31
 8000c90:	f040 8154 	bne.w	8000f3c <main+0x80c>
 8000c94:	4b61      	ldr	r3, [pc, #388]	; (8000e1c <main+0x6ec>)
 8000c96:	4d62      	ldr	r5, [pc, #392]	; (8000e20 <main+0x6f0>)
 8000c98:	4c62      	ldr	r4, [pc, #392]	; (8000e24 <main+0x6f4>)
 8000c9a:	781f      	ldrb	r7, [r3, #0]
 8000c9c:	4862      	ldr	r0, [pc, #392]	; (8000e28 <main+0x6f8>)
 8000c9e:	682e      	ldr	r6, [r5, #0]
 8000ca0:	6821      	ldr	r1, [r4, #0]
 8000ca2:	2300      	movs	r3, #0
 8000ca4:	eb00 0047 	add.w	r0, r0, r7, lsl #1
 8000ca8:	461a      	mov	r2, r3
 8000caa:	469e      	mov	lr, r3
 8000cac:	f640 0c02 	movw	ip, #2050	; 0x802
 8000cb0:	2f01      	cmp	r7, #1
 8000cb2:	bf08      	it	eq
 8000cb4:	2100      	moveq	r1, #0
 8000cb6:	f820 e022 	strh.w	lr, [r0, r2, lsl #2]
 8000cba:	f102 0201 	add.w	r2, r2, #1
 8000cbe:	bf04      	itt	eq
 8000cc0:	463b      	moveq	r3, r7
 8000cc2:	460e      	moveq	r6, r1
 8000cc4:	4562      	cmp	r2, ip
 8000cc6:	d1f3      	bne.n	8000cb0 <main+0x580>
 8000cc8:	2200      	movs	r2, #0
 8000cca:	f8c9 2000 	str.w	r2, [r9]
 8000cce:	b10b      	cbz	r3, 8000cd4 <main+0x5a4>
 8000cd0:	602e      	str	r6, [r5, #0]
 8000cd2:	6021      	str	r1, [r4, #0]
 8000cd4:	f000 ff54 	bl	8001b80 <HAL_GetTick>
 8000cd8:	4b3f      	ldr	r3, [pc, #252]	; (8000dd8 <main+0x6a8>)
 8000cda:	6018      	str	r0, [r3, #0]
 8000cdc:	4b53      	ldr	r3, [pc, #332]	; (8000e2c <main+0x6fc>)
 8000cde:	2200      	movs	r2, #0
 8000ce0:	601a      	str	r2, [r3, #0]
 8000ce2:	4b53      	ldr	r3, [pc, #332]	; (8000e30 <main+0x700>)
 8000ce4:	781b      	ldrb	r3, [r3, #0]
 8000ce6:	2b00      	cmp	r3, #0
 8000ce8:	f040 81a2 	bne.w	8001030 <main+0x900>
 8000cec:	4f4b      	ldr	r7, [pc, #300]	; (8000e1c <main+0x6ec>)
 8000cee:	4c4e      	ldr	r4, [pc, #312]	; (8000e28 <main+0x6f8>)
 8000cf0:	783b      	ldrb	r3, [r7, #0]
 8000cf2:	2b00      	cmp	r3, #0
 8000cf4:	f040 8295 	bne.w	8001222 <main+0xaf2>
 8000cf8:	2342      	movs	r3, #66	; 0x42
 8000cfa:	4e37      	ldr	r6, [pc, #220]	; (8000dd8 <main+0x6a8>)
 8000cfc:	f88d 3011 	strb.w	r3, [sp, #17]
 8000d00:	f000 ff3e 	bl	8001b80 <HAL_GetTick>
 8000d04:	783b      	ldrb	r3, [r7, #0]
 8000d06:	6832      	ldr	r2, [r6, #0]
 8000d08:	f44f 757a 	mov.w	r5, #1000	; 0x3e8
 8000d0c:	1a80      	subs	r0, r0, r2
 8000d0e:	fbb0 f0f5 	udiv	r0, r0, r5
 8000d12:	f824 0013 	strh.w	r0, [r4, r3, lsl #1]
 8000d16:	f000 ff33 	bl	8001b80 <HAL_GetTick>
 8000d1a:	783b      	ldrb	r3, [r7, #0]
 8000d1c:	6831      	ldr	r1, [r6, #0]
 8000d1e:	1c9a      	adds	r2, r3, #2
 8000d20:	1a40      	subs	r0, r0, r1
 8000d22:	fbb0 f0f5 	udiv	r0, r0, r5
 8000d26:	0c00      	lsrs	r0, r0, #16
 8000d28:	f824 0012 	strh.w	r0, [r4, r2, lsl #1]
 8000d2c:	4a3f      	ldr	r2, [pc, #252]	; (8000e2c <main+0x6fc>)
 8000d2e:	6812      	ldr	r2, [r2, #0]
 8000d30:	4838      	ldr	r0, [pc, #224]	; (8000e14 <main+0x6e4>)
 8000d32:	f8df a100 	ldr.w	sl, [pc, #256]	; 8000e34 <main+0x704>
 8000d36:	f8df b0dc 	ldr.w	fp, [pc, #220]	; 8000e14 <main+0x6e4>
 8000d3a:	1d19      	adds	r1, r3, #4
 8000d3c:	3306      	adds	r3, #6
 8000d3e:	f824 2011 	strh.w	r2, [r4, r1, lsl #1]
 8000d42:	0c12      	lsrs	r2, r2, #16
 8000d44:	f824 2013 	strh.w	r2, [r4, r3, lsl #1]
 8000d48:	a904      	add	r1, sp, #16
 8000d4a:	f44f 737a 	mov.w	r3, #1000	; 0x3e8
 8000d4e:	2203      	movs	r2, #3
 8000d50:	f004 f9e6 	bl	8005120 <HAL_UART_Transmit>
 8000d54:	2500      	movs	r5, #0
 8000d56:	2014      	movs	r0, #20
 8000d58:	f8aa 5000 	strh.w	r5, [sl]
 8000d5c:	f000 ff16 	bl	8001b8c <HAL_Delay>
 8000d60:	462e      	mov	r6, r5
 8000d62:	783b      	ldrb	r3, [r7, #0]
 8000d64:	eb03 0345 	add.w	r3, r3, r5, lsl #1
 8000d68:	f10d 0103 	add.w	r1, sp, #3
 8000d6c:	f834 3013 	ldrh.w	r3, [r4, r3, lsl #1]
 8000d70:	f88d 3002 	strb.w	r3, [sp, #2]
 8000d74:	0a1a      	lsrs	r2, r3, #8
 8000d76:	f88d 2003 	strb.w	r2, [sp, #3]
 8000d7a:	fa52 f383 	uxtab	r3, r2, r3
 8000d7e:	f8ba 2000 	ldrh.w	r2, [sl]
 8000d82:	4413      	add	r3, r2
 8000d84:	f8aa 3000 	strh.w	r3, [sl]
 8000d88:	2201      	movs	r2, #1
 8000d8a:	f44f 737a 	mov.w	r3, #1000	; 0x3e8
 8000d8e:	4658      	mov	r0, fp
 8000d90:	f004 f9c6 	bl	8005120 <HAL_UART_Transmit>
 8000d94:	f44f 737a 	mov.w	r3, #1000	; 0x3e8
 8000d98:	2201      	movs	r2, #1
 8000d9a:	f10d 0102 	add.w	r1, sp, #2
 8000d9e:	4658      	mov	r0, fp
 8000da0:	f004 f9be 	bl	8005120 <HAL_UART_Transmit>
 8000da4:	2e08      	cmp	r6, #8
 8000da6:	f300 8249 	bgt.w	800123c <main+0xb0c>
 8000daa:	3601      	adds	r6, #1
 8000dac:	3501      	adds	r5, #1
 8000dae:	f240 4312 	movw	r3, #1042	; 0x412
 8000db2:	429d      	cmp	r5, r3
 8000db4:	d1d5      	bne.n	8000d62 <main+0x632>
 8000db6:	e03f      	b.n	8000e38 <main+0x708>
 8000db8:	200001ec 	.word	0x200001ec
 8000dbc:	40009400 	.word	0x40009400
 8000dc0:	08005411 	.word	0x08005411
 8000dc4:	42c80000 	.word	0x42c80000
 8000dc8:	1fff7500 	.word	0x1fff7500
 8000dcc:	20004e40 	.word	0x20004e40
 8000dd0:	3fe66666 	.word	0x3fe66666
 8000dd4:	20004e3c 	.word	0x20004e3c
 8000dd8:	20000d48 	.word	0x20000d48
 8000ddc:	20000004 	.word	0x20000004
 8000de0:	20000070 	.word	0x20000070
 8000de4:	20000088 	.word	0x20000088
 8000de8:	20000d4c 	.word	0x20000d4c
 8000dec:	48000400 	.word	0x48000400
 8000df0:	20000228 	.word	0x20000228
 8000df4:	200002c0 	.word	0x200002c0
 8000df8:	20000274 	.word	0x20000274
 8000dfc:	20000064 	.word	0x20000064
 8000e00:	2000030c 	.word	0x2000030c
 8000e04:	20000062 	.word	0x20000062
 8000e08:	20000000 	.word	0x20000000
 8000e0c:	200000f8 	.word	0x200000f8
 8000e10:	20000001 	.word	0x20000001
 8000e14:	20000358 	.word	0x20000358
 8000e18:	200001a4 	.word	0x200001a4
 8000e1c:	20000e20 	.word	0x20000e20
 8000e20:	2000008c 	.word	0x2000008c
 8000e24:	20000068 	.word	0x20000068
 8000e28:	20000e24 	.word	0x20000e24
 8000e2c:	20000084 	.word	0x20000084
 8000e30:	20000d40 	.word	0x20000d40
 8000e34:	20000e22 	.word	0x20000e22
 8000e38:	2014      	movs	r0, #20
 8000e3a:	f000 fea7 	bl	8001b8c <HAL_Delay>
 8000e3e:	4b66      	ldr	r3, [pc, #408]	; (8000fd8 <main+0x8a8>)
 8000e40:	4866      	ldr	r0, [pc, #408]	; (8000fdc <main+0x8ac>)
 8000e42:	881b      	ldrh	r3, [r3, #0]
 8000e44:	f88d 3002 	strb.w	r3, [sp, #2]
 8000e48:	0a1b      	lsrs	r3, r3, #8
 8000e4a:	f88d 3003 	strb.w	r3, [sp, #3]
 8000e4e:	2201      	movs	r2, #1
 8000e50:	f44f 737a 	mov.w	r3, #1000	; 0x3e8
 8000e54:	f10d 0103 	add.w	r1, sp, #3
 8000e58:	f004 f962 	bl	8005120 <HAL_UART_Transmit>
 8000e5c:	f44f 737a 	mov.w	r3, #1000	; 0x3e8
 8000e60:	2201      	movs	r2, #1
 8000e62:	f10d 0102 	add.w	r1, sp, #2
 8000e66:	485d      	ldr	r0, [pc, #372]	; (8000fdc <main+0x8ac>)
 8000e68:	f004 f95a 	bl	8005120 <HAL_UART_Transmit>
 8000e6c:	f000 fe88 	bl	8001b80 <HAL_GetTick>
 8000e70:	4b5b      	ldr	r3, [pc, #364]	; (8000fe0 <main+0x8b0>)
 8000e72:	6018      	str	r0, [r3, #0]
 8000e74:	4b5b      	ldr	r3, [pc, #364]	; (8000fe4 <main+0x8b4>)
 8000e76:	2201      	movs	r2, #1
 8000e78:	701a      	strb	r2, [r3, #0]
 8000e7a:	f000 fe81 	bl	8001b80 <HAL_GetTick>
 8000e7e:	f8d9 3000 	ldr.w	r3, [r9]
 8000e82:	f644 6220 	movw	r2, #20000	; 0x4e20
 8000e86:	1ac0      	subs	r0, r0, r3
 8000e88:	4290      	cmp	r0, r2
 8000e8a:	d801      	bhi.n	8000e90 <main+0x760>
 8000e8c:	2b00      	cmp	r3, #0
 8000e8e:	d150      	bne.n	8000f32 <main+0x802>
 8000e90:	2200      	movs	r2, #0
 8000e92:	2140      	movs	r1, #64	; 0x40
 8000e94:	f04f 4090 	mov.w	r0, #1207959552	; 0x48000000
 8000e98:	f002 fa2e 	bl	80032f8 <HAL_GPIO_WritePin>
 8000e9c:	4952      	ldr	r1, [pc, #328]	; (8000fe8 <main+0x8b8>)
 8000e9e:	4853      	ldr	r0, [pc, #332]	; (8000fec <main+0x8bc>)
 8000ea0:	2202      	movs	r2, #2
 8000ea2:	f001 fc13 	bl	80026cc <HAL_ADC_Start_DMA>
 8000ea6:	f000 fe6b 	bl	8001b80 <HAL_GetTick>
 8000eaa:	4b51      	ldr	r3, [pc, #324]	; (8000ff0 <main+0x8c0>)
 8000eac:	4a51      	ldr	r2, [pc, #324]	; (8000ff4 <main+0x8c4>)
 8000eae:	881b      	ldrh	r3, [r3, #0]
 8000eb0:	8811      	ldrh	r1, [r2, #0]
 8000eb2:	f8c9 0000 	str.w	r0, [r9]
 8000eb6:	4299      	cmp	r1, r3
 8000eb8:	d03b      	beq.n	8000f32 <main+0x802>
 8000eba:	8013      	strh	r3, [r2, #0]
 8000ebc:	f44f 5180 	mov.w	r1, #4096	; 0x1000
 8000ec0:	2201      	movs	r2, #1
 8000ec2:	f04f 4090 	mov.w	r0, #1207959552	; 0x48000000
 8000ec6:	f443 4420 	orr.w	r4, r3, #40960	; 0xa000
 8000eca:	f002 fa15 	bl	80032f8 <HAL_GPIO_WritePin>
 8000ece:	484a      	ldr	r0, [pc, #296]	; (8000ff8 <main+0x8c8>)
 8000ed0:	4e49      	ldr	r6, [pc, #292]	; (8000ff8 <main+0x8c8>)
 8000ed2:	2201      	movs	r2, #1
 8000ed4:	2110      	movs	r1, #16
 8000ed6:	f002 fa0f 	bl	80032f8 <HAL_GPIO_WritePin>
 8000eda:	4847      	ldr	r0, [pc, #284]	; (8000ff8 <main+0x8c8>)
 8000edc:	2200      	movs	r2, #0
 8000ede:	2110      	movs	r1, #16
 8000ee0:	f002 fa0a 	bl	80032f8 <HAL_GPIO_WritePin>
 8000ee4:	2200      	movs	r2, #0
 8000ee6:	f44f 5180 	mov.w	r1, #4096	; 0x1000
 8000eea:	f04f 4090 	mov.w	r0, #1207959552	; 0x48000000
 8000eee:	f002 fa03 	bl	80032f8 <HAL_GPIO_WritePin>
 8000ef2:	250f      	movs	r5, #15
 8000ef4:	fa44 f205 	asr.w	r2, r4, r5
 8000ef8:	f012 0201 	ands.w	r2, r2, #1
 8000efc:	bf18      	it	ne
 8000efe:	2201      	movne	r2, #1
 8000f00:	f44f 7180 	mov.w	r1, #256	; 0x100
 8000f04:	f04f 4090 	mov.w	r0, #1207959552	; 0x48000000
 8000f08:	f002 f9f6 	bl	80032f8 <HAL_GPIO_WritePin>
 8000f0c:	2201      	movs	r2, #1
 8000f0e:	2110      	movs	r1, #16
 8000f10:	4630      	mov	r0, r6
 8000f12:	f002 f9f1 	bl	80032f8 <HAL_GPIO_WritePin>
 8000f16:	2200      	movs	r2, #0
 8000f18:	2110      	movs	r1, #16
 8000f1a:	4630      	mov	r0, r6
 8000f1c:	f002 f9ec 	bl	80032f8 <HAL_GPIO_WritePin>
 8000f20:	3d01      	subs	r5, #1
 8000f22:	d2e7      	bcs.n	8000ef4 <main+0x7c4>
 8000f24:	2201      	movs	r2, #1
 8000f26:	f44f 5180 	mov.w	r1, #4096	; 0x1000
 8000f2a:	f04f 4090 	mov.w	r0, #1207959552	; 0x48000000
 8000f2e:	f002 f9e3 	bl	80032f8 <HAL_GPIO_WritePin>
 8000f32:	f44f 70fa 	mov.w	r0, #500	; 0x1f4
 8000f36:	f000 fe29 	bl	8001b8c <HAL_Delay>
 8000f3a:	e651      	b.n	8000be0 <main+0x4b0>
 8000f3c:	2b32      	cmp	r3, #50	; 0x32
 8000f3e:	d171      	bne.n	8001024 <main+0x8f4>
 8000f40:	4a2e      	ldr	r2, [pc, #184]	; (8000ffc <main+0x8cc>)
 8000f42:	f8bd 302f 	ldrh.w	r3, [sp, #47]	; 0x2f
 8000f46:	8013      	strh	r3, [r2, #0]
 8000f48:	4a2d      	ldr	r2, [pc, #180]	; (8001000 <main+0x8d0>)
 8000f4a:	f8bd 0031 	ldrh.w	r0, [sp, #49]	; 0x31
 8000f4e:	f8bd 1033 	ldrh.w	r1, [sp, #51]	; 0x33
 8000f52:	4c2c      	ldr	r4, [pc, #176]	; (8001004 <main+0x8d4>)
 8000f54:	f8bd 503b 	ldrh.w	r5, [sp, #59]	; 0x3b
 8000f58:	f3c3 2301 	ubfx	r3, r3, #8, #2
 8000f5c:	7013      	strb	r3, [r2, #0]
 8000f5e:	4b2a      	ldr	r3, [pc, #168]	; (8001008 <main+0x8d8>)
 8000f60:	f8bd 2035 	ldrh.w	r2, [sp, #53]	; 0x35
 8000f64:	8018      	strh	r0, [r3, #0]
 8000f66:	4b29      	ldr	r3, [pc, #164]	; (800100c <main+0x8dc>)
 8000f68:	8019      	strh	r1, [r3, #0]
 8000f6a:	4b29      	ldr	r3, [pc, #164]	; (8001010 <main+0x8e0>)
 8000f6c:	801a      	strh	r2, [r3, #0]
 8000f6e:	f8dd 3037 	ldr.w	r3, [sp, #55]	; 0x37
 8000f72:	6023      	str	r3, [r4, #0]
 8000f74:	ee07 3a90 	vmov	s15, r3
 8000f78:	4c1d      	ldr	r4, [pc, #116]	; (8000ff0 <main+0x8c0>)
 8000f7a:	eef5 7ac0 	vcmpe.f32	s15, #0.0
 8000f7e:	eef1 fa10 	vmrs	APSR_nzcv, fpscr
 8000f82:	8025      	strh	r5, [r4, #0]
 8000f84:	dd24      	ble.n	8000fd0 <main+0x8a0>
 8000f86:	ed9f 7a23 	vldr	s14, [pc, #140]	; 8001014 <main+0x8e4>
 8000f8a:	4b23      	ldr	r3, [pc, #140]	; (8001018 <main+0x8e8>)
 8000f8c:	ee67 7a87 	vmul.f32	s15, s15, s14
 8000f90:	ee07 0a10 	vmov	s14, r0
 8000f94:	eeb8 7a47 	vcvt.f32.u32	s14, s14
 8000f98:	eec7 6a87 	vdiv.f32	s13, s15, s14
 8000f9c:	ee07 1a10 	vmov	s14, r1
 8000fa0:	eefc 6ae6 	vcvt.u32.f32	s13, s13
 8000fa4:	eeb8 7a47 	vcvt.f32.u32	s14, s14
 8000fa8:	edc3 6a00 	vstr	s13, [r3]
 8000fac:	eec7 6a87 	vdiv.f32	s13, s15, s14
 8000fb0:	4b1a      	ldr	r3, [pc, #104]	; (800101c <main+0x8ec>)
 8000fb2:	ee07 2a10 	vmov	s14, r2
 8000fb6:	eefc 6ae6 	vcvt.u32.f32	s13, s13
 8000fba:	eeb8 7a47 	vcvt.f32.u32	s14, s14
 8000fbe:	edc3 6a00 	vstr	s13, [r3]
 8000fc2:	eec7 6a87 	vdiv.f32	s13, s15, s14
 8000fc6:	4b16      	ldr	r3, [pc, #88]	; (8001020 <main+0x8f0>)
 8000fc8:	eefc 6ae6 	vcvt.u32.f32	s13, s13
 8000fcc:	edc3 6a00 	vstr	s13, [r3]
 8000fd0:	2001      	movs	r0, #1
 8000fd2:	f7ff faad 	bl	8000530 <rwFlash>
 8000fd6:	e684      	b.n	8000ce2 <main+0x5b2>
 8000fd8:	20000e22 	.word	0x20000e22
 8000fdc:	20000358 	.word	0x20000358
 8000fe0:	20000e1c 	.word	0x20000e1c
 8000fe4:	20000004 	.word	0x20000004
 8000fe8:	2000005c 	.word	0x2000005c
 8000fec:	20000094 	.word	0x20000094
 8000ff0:	20000d4c 	.word	0x20000d4c
 8000ff4:	20000090 	.word	0x20000090
 8000ff8:	48000400 	.word	0x48000400
 8000ffc:	20000074 	.word	0x20000074
 8001000:	20000e18 	.word	0x20000e18
 8001004:	20000078 	.word	0x20000078
 8001008:	2000007c 	.word	0x2000007c
 800100c:	2000007e 	.word	0x2000007e
 8001010:	20000080 	.word	0x20000080
 8001014:	447a0000 	.word	0x447a0000
 8001018:	20000050 	.word	0x20000050
 800101c:	20000054 	.word	0x20000054
 8001020:	20000058 	.word	0x20000058
 8001024:	2b33      	cmp	r3, #51	; 0x33
 8001026:	f040 80f0 	bne.w	800120a <main+0xada>
 800102a:	4b9e      	ldr	r3, [pc, #632]	; (80012a4 <main+0xb74>)
 800102c:	2201      	movs	r2, #1
 800102e:	701a      	strb	r2, [r3, #0]
 8001030:	f000 fda6 	bl	8001b80 <HAL_GetTick>
 8001034:	4a9b      	ldr	r2, [pc, #620]	; (80012a4 <main+0xb74>)
 8001036:	f8df a2a0 	ldr.w	sl, [pc, #672]	; 80012d8 <main+0xba8>
 800103a:	4c9b      	ldr	r4, [pc, #620]	; (80012a8 <main+0xb78>)
 800103c:	f8df b29c 	ldr.w	fp, [pc, #668]	; 80012dc <main+0xbac>
 8001040:	2500      	movs	r5, #0
 8001042:	7015      	strb	r5, [r2, #0]
 8001044:	224c      	movs	r2, #76	; 0x4c
 8001046:	f44f 737a 	mov.w	r3, #1000	; 0x3e8
 800104a:	f88d 2011 	strb.w	r2, [sp, #17]
 800104e:	fbb0 f6f3 	udiv	r6, r0, r3
 8001052:	2203      	movs	r2, #3
 8001054:	a904      	add	r1, sp, #16
 8001056:	4895      	ldr	r0, [pc, #596]	; (80012ac <main+0xb7c>)
 8001058:	9507      	str	r5, [sp, #28]
 800105a:	f88d 5020 	strb.w	r5, [sp, #32]
 800105e:	f004 f85f 	bl	8005120 <HAL_UART_Transmit>
 8001062:	f44f 737a 	mov.w	r3, #1000	; 0x3e8
 8001066:	2201      	movs	r2, #1
 8001068:	4651      	mov	r1, sl
 800106a:	4890      	ldr	r0, [pc, #576]	; (80012ac <main+0xb7c>)
 800106c:	f004 f858 	bl	8005120 <HAL_UART_Transmit>
 8001070:	f89a 2000 	ldrb.w	r2, [sl]
 8001074:	b2f0      	uxtb	r0, r6
 8001076:	f3c6 2107 	ubfx	r1, r6, #8, #8
 800107a:	4402      	add	r2, r0
 800107c:	440a      	add	r2, r1
 800107e:	f88d 0002 	strb.w	r0, [sp, #2]
 8001082:	f88d 1003 	strb.w	r1, [sp, #3]
 8001086:	8022      	strh	r2, [r4, #0]
 8001088:	f44f 737a 	mov.w	r3, #1000	; 0x3e8
 800108c:	2201      	movs	r2, #1
 800108e:	f10d 0103 	add.w	r1, sp, #3
 8001092:	4886      	ldr	r0, [pc, #536]	; (80012ac <main+0xb7c>)
 8001094:	f004 f844 	bl	8005120 <HAL_UART_Transmit>
 8001098:	f44f 737a 	mov.w	r3, #1000	; 0x3e8
 800109c:	2201      	movs	r2, #1
 800109e:	f10d 0102 	add.w	r1, sp, #2
 80010a2:	4882      	ldr	r0, [pc, #520]	; (80012ac <main+0xb7c>)
 80010a4:	f004 f83c 	bl	8005120 <HAL_UART_Transmit>
 80010a8:	8820      	ldrh	r0, [r4, #0]
 80010aa:	f88d 5003 	strb.w	r5, [sp, #3]
 80010ae:	0c36      	lsrs	r6, r6, #16
 80010b0:	f88d 6002 	strb.w	r6, [sp, #2]
 80010b4:	f44f 737a 	mov.w	r3, #1000	; 0x3e8
 80010b8:	4406      	add	r6, r0
 80010ba:	2201      	movs	r2, #1
 80010bc:	f10d 0103 	add.w	r1, sp, #3
 80010c0:	487a      	ldr	r0, [pc, #488]	; (80012ac <main+0xb7c>)
 80010c2:	8026      	strh	r6, [r4, #0]
 80010c4:	f004 f82c 	bl	8005120 <HAL_UART_Transmit>
 80010c8:	f44f 737a 	mov.w	r3, #1000	; 0x3e8
 80010cc:	2201      	movs	r2, #1
 80010ce:	f10d 0102 	add.w	r1, sp, #2
 80010d2:	4876      	ldr	r0, [pc, #472]	; (80012ac <main+0xb7c>)
 80010d4:	4e75      	ldr	r6, [pc, #468]	; (80012ac <main+0xb7c>)
 80010d6:	f004 f823 	bl	8005120 <HAL_UART_Transmit>
 80010da:	f44f 737a 	mov.w	r3, #1000	; 0x3e8
 80010de:	2205      	movs	r2, #5
 80010e0:	a907      	add	r1, sp, #28
 80010e2:	4872      	ldr	r0, [pc, #456]	; (80012ac <main+0xb7c>)
 80010e4:	f004 f81c 	bl	8005120 <HAL_UART_Transmit>
 80010e8:	2014      	movs	r0, #20
 80010ea:	f000 fd4f 	bl	8001b8c <HAL_Delay>
 80010ee:	f89a 3000 	ldrb.w	r3, [sl]
 80010f2:	42ab      	cmp	r3, r5
 80010f4:	f10b 070c 	add.w	r7, fp, #12
 80010f8:	f77f ae9e 	ble.w	8000e38 <main+0x708>
 80010fc:	f857 2c0c 	ldr.w	r2, [r7, #-12]
 8001100:	8821      	ldrh	r1, [r4, #0]
 8001102:	b2d3      	uxtb	r3, r2
 8001104:	f88d 3002 	strb.w	r3, [sp, #2]
 8001108:	f3c2 2207 	ubfx	r2, r2, #8, #8
 800110c:	440b      	add	r3, r1
 800110e:	4413      	add	r3, r2
 8001110:	f88d 2003 	strb.w	r2, [sp, #3]
 8001114:	8023      	strh	r3, [r4, #0]
 8001116:	2201      	movs	r2, #1
 8001118:	f44f 737a 	mov.w	r3, #1000	; 0x3e8
 800111c:	f10d 0103 	add.w	r1, sp, #3
 8001120:	4630      	mov	r0, r6
 8001122:	f003 fffd 	bl	8005120 <HAL_UART_Transmit>
 8001126:	f44f 737a 	mov.w	r3, #1000	; 0x3e8
 800112a:	2201      	movs	r2, #1
 800112c:	f10d 0102 	add.w	r1, sp, #2
 8001130:	4630      	mov	r0, r6
 8001132:	f003 fff5 	bl	8005120 <HAL_UART_Transmit>
 8001136:	f857 3c0c 	ldr.w	r3, [r7, #-12]
 800113a:	8821      	ldrh	r1, [r4, #0]
 800113c:	f3c3 4207 	ubfx	r2, r3, #16, #8
 8001140:	0e1b      	lsrs	r3, r3, #24
 8001142:	f88d 3003 	strb.w	r3, [sp, #3]
 8001146:	440b      	add	r3, r1
 8001148:	4413      	add	r3, r2
 800114a:	f88d 2002 	strb.w	r2, [sp, #2]
 800114e:	8023      	strh	r3, [r4, #0]
 8001150:	2201      	movs	r2, #1
 8001152:	f44f 737a 	mov.w	r3, #1000	; 0x3e8
 8001156:	f10d 0103 	add.w	r1, sp, #3
 800115a:	4630      	mov	r0, r6
 800115c:	f003 ffe0 	bl	8005120 <HAL_UART_Transmit>
 8001160:	f44f 737a 	mov.w	r3, #1000	; 0x3e8
 8001164:	2201      	movs	r2, #1
 8001166:	f10d 0102 	add.w	r1, sp, #2
 800116a:	4630      	mov	r0, r6
 800116c:	f003 ffd8 	bl	8005120 <HAL_UART_Transmit>
 8001170:	8822      	ldrh	r2, [r4, #0]
 8001172:	f817 3c08 	ldrb.w	r3, [r7, #-8]
 8001176:	4413      	add	r3, r2
 8001178:	f10b 0104 	add.w	r1, fp, #4
 800117c:	8023      	strh	r3, [r4, #0]
 800117e:	2201      	movs	r2, #1
 8001180:	f44f 737a 	mov.w	r3, #1000	; 0x3e8
 8001184:	4630      	mov	r0, r6
 8001186:	f003 ffcb 	bl	8005120 <HAL_UART_Transmit>
 800118a:	f857 2c04 	ldr.w	r2, [r7, #-4]
 800118e:	8821      	ldrh	r1, [r4, #0]
 8001190:	b2d3      	uxtb	r3, r2
 8001192:	f88d 3002 	strb.w	r3, [sp, #2]
 8001196:	f3c2 2207 	ubfx	r2, r2, #8, #8
 800119a:	440b      	add	r3, r1
 800119c:	4413      	add	r3, r2
 800119e:	f88d 2003 	strb.w	r2, [sp, #3]
 80011a2:	8023      	strh	r3, [r4, #0]
 80011a4:	2201      	movs	r2, #1
 80011a6:	f44f 737a 	mov.w	r3, #1000	; 0x3e8
 80011aa:	f10d 0103 	add.w	r1, sp, #3
 80011ae:	4630      	mov	r0, r6
 80011b0:	f003 ffb6 	bl	8005120 <HAL_UART_Transmit>
 80011b4:	f44f 737a 	mov.w	r3, #1000	; 0x3e8
 80011b8:	2201      	movs	r2, #1
 80011ba:	f10d 0102 	add.w	r1, sp, #2
 80011be:	4630      	mov	r0, r6
 80011c0:	f003 ffae 	bl	8005120 <HAL_UART_Transmit>
 80011c4:	f857 3c04 	ldr.w	r3, [r7, #-4]
 80011c8:	8821      	ldrh	r1, [r4, #0]
 80011ca:	f3c3 4207 	ubfx	r2, r3, #16, #8
 80011ce:	0e1b      	lsrs	r3, r3, #24
 80011d0:	f88d 3003 	strb.w	r3, [sp, #3]
 80011d4:	440b      	add	r3, r1
 80011d6:	4413      	add	r3, r2
 80011d8:	f88d 2002 	strb.w	r2, [sp, #2]
 80011dc:	8023      	strh	r3, [r4, #0]
 80011de:	2201      	movs	r2, #1
 80011e0:	f44f 737a 	mov.w	r3, #1000	; 0x3e8
 80011e4:	f10d 0103 	add.w	r1, sp, #3
 80011e8:	4630      	mov	r0, r6
 80011ea:	f003 ff99 	bl	8005120 <HAL_UART_Transmit>
 80011ee:	f44f 737a 	mov.w	r3, #1000	; 0x3e8
 80011f2:	2201      	movs	r2, #1
 80011f4:	f10d 0102 	add.w	r1, sp, #2
 80011f8:	4630      	mov	r0, r6
 80011fa:	f003 ff91 	bl	8005120 <HAL_UART_Transmit>
 80011fe:	2014      	movs	r0, #20
 8001200:	f000 fcc4 	bl	8001b8c <HAL_Delay>
 8001204:	3501      	adds	r5, #1
 8001206:	46bb      	mov	fp, r7
 8001208:	e771      	b.n	80010ee <main+0x9be>
 800120a:	2b34      	cmp	r3, #52	; 0x34
 800120c:	d103      	bne.n	8001216 <main+0xae6>
 800120e:	4b28      	ldr	r3, [pc, #160]	; (80012b0 <main+0xb80>)
 8001210:	2201      	movs	r2, #1
 8001212:	701a      	strb	r2, [r3, #0]
 8001214:	e565      	b.n	8000ce2 <main+0x5b2>
 8001216:	2b35      	cmp	r3, #53	; 0x35
 8001218:	f47f ad63 	bne.w	8000ce2 <main+0x5b2>
 800121c:	4b24      	ldr	r3, [pc, #144]	; (80012b0 <main+0xb80>)
 800121e:	2200      	movs	r2, #0
 8001220:	e7f7      	b.n	8001212 <main+0xae2>
 8001222:	2262      	movs	r2, #98	; 0x62
 8001224:	f88d 2011 	strb.w	r2, [sp, #17]
 8001228:	4a22      	ldr	r2, [pc, #136]	; (80012b4 <main+0xb84>)
 800122a:	6812      	ldr	r2, [r2, #0]
 800122c:	f824 2013 	strh.w	r2, [r4, r3, lsl #1]
 8001230:	1c99      	adds	r1, r3, #2
 8001232:	0c12      	lsrs	r2, r2, #16
 8001234:	f824 2011 	strh.w	r2, [r4, r1, lsl #1]
 8001238:	4a1f      	ldr	r2, [pc, #124]	; (80012b8 <main+0xb88>)
 800123a:	e578      	b.n	8000d2e <main+0x5fe>
 800123c:	2014      	movs	r0, #20
 800123e:	f000 fca5 	bl	8001b8c <HAL_Delay>
 8001242:	2600      	movs	r6, #0
 8001244:	e5b2      	b.n	8000dac <main+0x67c>
 8001246:	4c1d      	ldr	r4, [pc, #116]	; (80012bc <main+0xb8c>)
 8001248:	7823      	ldrb	r3, [r4, #0]
 800124a:	2b00      	cmp	r3, #0
 800124c:	f43f ae15 	beq.w	8000e7a <main+0x74a>
 8001250:	f000 fc96 	bl	8001b80 <HAL_GetTick>
 8001254:	4b1a      	ldr	r3, [pc, #104]	; (80012c0 <main+0xb90>)
 8001256:	681b      	ldr	r3, [r3, #0]
 8001258:	1ac0      	subs	r0, r0, r3
 800125a:	f5b0 7f7a 	cmp.w	r0, #1000	; 0x3e8
 800125e:	f67f ae0c 	bls.w	8000e7a <main+0x74a>
 8001262:	2300      	movs	r3, #0
 8001264:	4917      	ldr	r1, [pc, #92]	; (80012c4 <main+0xb94>)
 8001266:	7023      	strb	r3, [r4, #0]
 8001268:	2209      	movs	r2, #9
 800126a:	f44f 737a 	mov.w	r3, #1000	; 0x3e8
 800126e:	480f      	ldr	r0, [pc, #60]	; (80012ac <main+0xb7c>)
 8001270:	f003 ff56 	bl	8005120 <HAL_UART_Transmit>
 8001274:	20c8      	movs	r0, #200	; 0xc8
 8001276:	f000 fc89 	bl	8001b8c <HAL_Delay>
 800127a:	f44f 737a 	mov.w	r3, #1000	; 0x3e8
 800127e:	4912      	ldr	r1, [pc, #72]	; (80012c8 <main+0xb98>)
 8001280:	480a      	ldr	r0, [pc, #40]	; (80012ac <main+0xb7c>)
 8001282:	220a      	movs	r2, #10
 8001284:	f003 ff4c 	bl	8005120 <HAL_UART_Transmit>
 8001288:	2201      	movs	r2, #1
 800128a:	2108      	movs	r1, #8
 800128c:	480f      	ldr	r0, [pc, #60]	; (80012cc <main+0xb9c>)
 800128e:	f002 f833 	bl	80032f8 <HAL_GPIO_WritePin>
 8001292:	480f      	ldr	r0, [pc, #60]	; (80012d0 <main+0xba0>)
 8001294:	f003 f8e6 	bl	8004464 <HAL_TIM_Base_Start_IT>
 8001298:	4804      	ldr	r0, [pc, #16]	; (80012ac <main+0xb7c>)
 800129a:	f003 fce1 	bl	8004c60 <HAL_UART_DeInit>
 800129e:	4b0d      	ldr	r3, [pc, #52]	; (80012d4 <main+0xba4>)
 80012a0:	e5e9      	b.n	8000e76 <main+0x746>
 80012a2:	bf00      	nop
 80012a4:	20000d40 	.word	0x20000d40
 80012a8:	20000e22 	.word	0x20000e22
 80012ac:	20000358 	.word	0x20000358
 80012b0:	20000e20 	.word	0x20000e20
 80012b4:	20000068 	.word	0x20000068
 80012b8:	2000008c 	.word	0x2000008c
 80012bc:	20000004 	.word	0x20000004
 80012c0:	20000e1c 	.word	0x20000e1c
 80012c4:	080053fc 	.word	0x080053fc
 80012c8:	08005406 	.word	0x08005406
 80012cc:	48000400 	.word	0x48000400
 80012d0:	20000228 	.word	0x20000228
 80012d4:	20000001 	.word	0x20000001
 80012d8:	20000d42 	.word	0x20000d42
 80012dc:	200003e0 	.word	0x200003e0

080012e0 <Error_Handler>:
 80012e0:	4770      	bx	lr
	...

080012e4 <HAL_MspInit>:
 80012e4:	4b0a      	ldr	r3, [pc, #40]	; (8001310 <HAL_MspInit+0x2c>)
 80012e6:	6e1a      	ldr	r2, [r3, #96]	; 0x60
 80012e8:	f042 0201 	orr.w	r2, r2, #1
 80012ec:	661a      	str	r2, [r3, #96]	; 0x60
 80012ee:	6e1a      	ldr	r2, [r3, #96]	; 0x60
 80012f0:	b082      	sub	sp, #8
 80012f2:	f002 0201 	and.w	r2, r2, #1
 80012f6:	9200      	str	r2, [sp, #0]
 80012f8:	9a00      	ldr	r2, [sp, #0]
 80012fa:	6d9a      	ldr	r2, [r3, #88]	; 0x58
 80012fc:	f042 5280 	orr.w	r2, r2, #268435456	; 0x10000000
 8001300:	659a      	str	r2, [r3, #88]	; 0x58
 8001302:	6d9b      	ldr	r3, [r3, #88]	; 0x58
 8001304:	f003 5380 	and.w	r3, r3, #268435456	; 0x10000000
 8001308:	9301      	str	r3, [sp, #4]
 800130a:	9b01      	ldr	r3, [sp, #4]
 800130c:	b002      	add	sp, #8
 800130e:	4770      	bx	lr
 8001310:	40021000 	.word	0x40021000

08001314 <HAL_ADC_MspInit>:
 8001314:	b570      	push	{r4, r5, r6, lr}
 8001316:	2214      	movs	r2, #20
 8001318:	b08a      	sub	sp, #40	; 0x28
 800131a:	4605      	mov	r5, r0
 800131c:	2100      	movs	r1, #0
 800131e:	eb0d 0002 	add.w	r0, sp, r2
 8001322:	f004 f857 	bl	80053d4 <memset>
 8001326:	682b      	ldr	r3, [r5, #0]
 8001328:	4a35      	ldr	r2, [pc, #212]	; (8001400 <HAL_ADC_MspInit+0xec>)
 800132a:	4293      	cmp	r3, r2
 800132c:	d143      	bne.n	80013b6 <HAL_ADC_MspInit+0xa2>
 800132e:	4a35      	ldr	r2, [pc, #212]	; (8001404 <HAL_ADC_MspInit+0xf0>)
 8001330:	6813      	ldr	r3, [r2, #0]
 8001332:	3301      	adds	r3, #1
 8001334:	2b01      	cmp	r3, #1
 8001336:	6013      	str	r3, [r2, #0]
 8001338:	4b33      	ldr	r3, [pc, #204]	; (8001408 <HAL_ADC_MspInit+0xf4>)
 800133a:	d108      	bne.n	800134e <HAL_ADC_MspInit+0x3a>
 800133c:	6cda      	ldr	r2, [r3, #76]	; 0x4c
 800133e:	f442 5200 	orr.w	r2, r2, #8192	; 0x2000
 8001342:	64da      	str	r2, [r3, #76]	; 0x4c
 8001344:	6cda      	ldr	r2, [r3, #76]	; 0x4c
 8001346:	f402 5200 	and.w	r2, r2, #8192	; 0x2000
 800134a:	9201      	str	r2, [sp, #4]
 800134c:	9a01      	ldr	r2, [sp, #4]
 800134e:	6cda      	ldr	r2, [r3, #76]	; 0x4c
 8001350:	4c2e      	ldr	r4, [pc, #184]	; (800140c <HAL_ADC_MspInit+0xf8>)
 8001352:	f042 0201 	orr.w	r2, r2, #1
 8001356:	64da      	str	r2, [r3, #76]	; 0x4c
 8001358:	6cdb      	ldr	r3, [r3, #76]	; 0x4c
 800135a:	f003 0301 	and.w	r3, r3, #1
 800135e:	9302      	str	r3, [sp, #8]
 8001360:	9b02      	ldr	r3, [sp, #8]
 8001362:	2680      	movs	r6, #128	; 0x80
 8001364:	230b      	movs	r3, #11
 8001366:	a905      	add	r1, sp, #20
 8001368:	f04f 4090 	mov.w	r0, #1207959552	; 0x48000000
 800136c:	e9cd 6305 	strd	r6, r3, [sp, #20]
 8001370:	f001 fe8a 	bl	8003088 <HAL_GPIO_Init>
 8001374:	f44f 7080 	mov.w	r0, #256	; 0x100
 8001378:	4925      	ldr	r1, [pc, #148]	; (8001410 <HAL_ADC_MspInit+0xfc>)
 800137a:	6126      	str	r6, [r4, #16]
 800137c:	f44f 6280 	mov.w	r2, #1024	; 0x400
 8001380:	2300      	movs	r3, #0
 8001382:	e9c4 0205 	strd	r0, r2, [r4, #20]
 8001386:	4620      	mov	r0, r4
 8001388:	e9c4 1300 	strd	r1, r3, [r4]
 800138c:	e9c4 3302 	strd	r3, r3, [r4, #8]
 8001390:	e9c4 3307 	strd	r3, r3, [r4, #28]
 8001394:	f001 fba2 	bl	8002adc <HAL_DMA_Init>
 8001398:	b108      	cbz	r0, 800139e <HAL_ADC_MspInit+0x8a>
 800139a:	f7ff ffa1 	bl	80012e0 <Error_Handler>
 800139e:	64ec      	str	r4, [r5, #76]	; 0x4c
 80013a0:	62a5      	str	r5, [r4, #40]	; 0x28
 80013a2:	2200      	movs	r2, #0
 80013a4:	2012      	movs	r0, #18
 80013a6:	4611      	mov	r1, r2
 80013a8:	f001 fb44 	bl	8002a34 <HAL_NVIC_SetPriority>
 80013ac:	2012      	movs	r0, #18
 80013ae:	f001 fb73 	bl	8002a98 <HAL_NVIC_EnableIRQ>
 80013b2:	b00a      	add	sp, #40	; 0x28
 80013b4:	bd70      	pop	{r4, r5, r6, pc}
 80013b6:	4a17      	ldr	r2, [pc, #92]	; (8001414 <HAL_ADC_MspInit+0x100>)
 80013b8:	4293      	cmp	r3, r2
 80013ba:	d1fa      	bne.n	80013b2 <HAL_ADC_MspInit+0x9e>
 80013bc:	4a11      	ldr	r2, [pc, #68]	; (8001404 <HAL_ADC_MspInit+0xf0>)
 80013be:	6813      	ldr	r3, [r2, #0]
 80013c0:	3301      	adds	r3, #1
 80013c2:	2b01      	cmp	r3, #1
 80013c4:	6013      	str	r3, [r2, #0]
 80013c6:	4b10      	ldr	r3, [pc, #64]	; (8001408 <HAL_ADC_MspInit+0xf4>)
 80013c8:	d108      	bne.n	80013dc <HAL_ADC_MspInit+0xc8>
 80013ca:	6cda      	ldr	r2, [r3, #76]	; 0x4c
 80013cc:	f442 5200 	orr.w	r2, r2, #8192	; 0x2000
 80013d0:	64da      	str	r2, [r3, #76]	; 0x4c
 80013d2:	6cda      	ldr	r2, [r3, #76]	; 0x4c
 80013d4:	f402 5200 	and.w	r2, r2, #8192	; 0x2000
 80013d8:	9203      	str	r2, [sp, #12]
 80013da:	9a03      	ldr	r2, [sp, #12]
 80013dc:	6cda      	ldr	r2, [r3, #76]	; 0x4c
 80013de:	480e      	ldr	r0, [pc, #56]	; (8001418 <HAL_ADC_MspInit+0x104>)
 80013e0:	f042 0202 	orr.w	r2, r2, #2
 80013e4:	64da      	str	r2, [r3, #76]	; 0x4c
 80013e6:	6cdb      	ldr	r3, [r3, #76]	; 0x4c
 80013e8:	f003 0302 	and.w	r3, r3, #2
 80013ec:	9304      	str	r3, [sp, #16]
 80013ee:	9b04      	ldr	r3, [sp, #16]
 80013f0:	2202      	movs	r2, #2
 80013f2:	230b      	movs	r3, #11
 80013f4:	a905      	add	r1, sp, #20
 80013f6:	e9cd 2305 	strd	r2, r3, [sp, #20]
 80013fa:	f001 fe45 	bl	8003088 <HAL_GPIO_Init>
 80013fe:	e7d0      	b.n	80013a2 <HAL_ADC_MspInit+0x8e>
 8001400:	50040000 	.word	0x50040000
 8001404:	20004e44 	.word	0x20004e44
 8001408:	40021000 	.word	0x40021000
 800140c:	2000015c 	.word	0x2000015c
 8001410:	40020008 	.word	0x40020008
 8001414:	50040100 	.word	0x50040100
 8001418:	48000400 	.word	0x48000400

0800141c <HAL_LPTIM_MspInit>:
 800141c:	b510      	push	{r4, lr}
 800141e:	4604      	mov	r4, r0
 8001420:	b08e      	sub	sp, #56	; 0x38
 8001422:	2234      	movs	r2, #52	; 0x34
 8001424:	2100      	movs	r1, #0
 8001426:	a801      	add	r0, sp, #4
 8001428:	f003 ffd4 	bl	80053d4 <memset>
 800142c:	6822      	ldr	r2, [r4, #0]
 800142e:	4b11      	ldr	r3, [pc, #68]	; (8001474 <HAL_LPTIM_MspInit+0x58>)
 8001430:	429a      	cmp	r2, r3
 8001432:	d11d      	bne.n	8001470 <HAL_LPTIM_MspInit+0x54>
 8001434:	f44f 6380 	mov.w	r3, #1024	; 0x400
 8001438:	9301      	str	r3, [sp, #4]
 800143a:	a801      	add	r0, sp, #4
 800143c:	f44f 1380 	mov.w	r3, #1048576	; 0x100000
 8001440:	930a      	str	r3, [sp, #40]	; 0x28
 8001442:	f002 fe21 	bl	8004088 <HAL_RCCEx_PeriphCLKConfig>
 8001446:	b108      	cbz	r0, 800144c <HAL_LPTIM_MspInit+0x30>
 8001448:	f7ff ff4a 	bl	80012e0 <Error_Handler>
 800144c:	4b0a      	ldr	r3, [pc, #40]	; (8001478 <HAL_LPTIM_MspInit+0x5c>)
 800144e:	6dda      	ldr	r2, [r3, #92]	; 0x5c
 8001450:	f042 0220 	orr.w	r2, r2, #32
 8001454:	65da      	str	r2, [r3, #92]	; 0x5c
 8001456:	6ddb      	ldr	r3, [r3, #92]	; 0x5c
 8001458:	2200      	movs	r2, #0
 800145a:	f003 0320 	and.w	r3, r3, #32
 800145e:	9300      	str	r3, [sp, #0]
 8001460:	2042      	movs	r0, #66	; 0x42
 8001462:	4611      	mov	r1, r2
 8001464:	9b00      	ldr	r3, [sp, #0]
 8001466:	f001 fae5 	bl	8002a34 <HAL_NVIC_SetPriority>
 800146a:	2042      	movs	r0, #66	; 0x42
 800146c:	f001 fb14 	bl	8002a98 <HAL_NVIC_EnableIRQ>
 8001470:	b00e      	add	sp, #56	; 0x38
 8001472:	bd10      	pop	{r4, pc}
 8001474:	40009400 	.word	0x40009400
 8001478:	40021000 	.word	0x40021000

0800147c <HAL_TIM_Base_MspInit>:
 800147c:	b51f      	push	{r0, r1, r2, r3, r4, lr}
 800147e:	6803      	ldr	r3, [r0, #0]
 8001480:	f1b3 4f80 	cmp.w	r3, #1073741824	; 0x40000000
 8001484:	d10d      	bne.n	80014a2 <HAL_TIM_Base_MspInit+0x26>
 8001486:	f503 3304 	add.w	r3, r3, #135168	; 0x21000
 800148a:	6d9a      	ldr	r2, [r3, #88]	; 0x58
 800148c:	f042 0201 	orr.w	r2, r2, #1
 8001490:	659a      	str	r2, [r3, #88]	; 0x58
 8001492:	6d9b      	ldr	r3, [r3, #88]	; 0x58
 8001494:	f003 0301 	and.w	r3, r3, #1
 8001498:	9300      	str	r3, [sp, #0]
 800149a:	9b00      	ldr	r3, [sp, #0]
 800149c:	b005      	add	sp, #20
 800149e:	f85d fb04 	ldr.w	pc, [sp], #4
 80014a2:	4a20      	ldr	r2, [pc, #128]	; (8001524 <HAL_TIM_Base_MspInit+0xa8>)
 80014a4:	4293      	cmp	r3, r2
 80014a6:	d114      	bne.n	80014d2 <HAL_TIM_Base_MspInit+0x56>
 80014a8:	4b1f      	ldr	r3, [pc, #124]	; (8001528 <HAL_TIM_Base_MspInit+0xac>)
 80014aa:	6d9a      	ldr	r2, [r3, #88]	; 0x58
 80014ac:	f042 0210 	orr.w	r2, r2, #16
 80014b0:	659a      	str	r2, [r3, #88]	; 0x58
 80014b2:	6d9b      	ldr	r3, [r3, #88]	; 0x58
 80014b4:	2200      	movs	r2, #0
 80014b6:	f003 0310 	and.w	r3, r3, #16
 80014ba:	9301      	str	r3, [sp, #4]
 80014bc:	2036      	movs	r0, #54	; 0x36
 80014be:	4611      	mov	r1, r2
 80014c0:	9b01      	ldr	r3, [sp, #4]
 80014c2:	f001 fab7 	bl	8002a34 <HAL_NVIC_SetPriority>
 80014c6:	2036      	movs	r0, #54	; 0x36
 80014c8:	b005      	add	sp, #20
 80014ca:	f85d eb04 	ldr.w	lr, [sp], #4
 80014ce:	f001 bae3 	b.w	8002a98 <HAL_NVIC_EnableIRQ>
 80014d2:	4a16      	ldr	r2, [pc, #88]	; (800152c <HAL_TIM_Base_MspInit+0xb0>)
 80014d4:	4293      	cmp	r3, r2
 80014d6:	d110      	bne.n	80014fa <HAL_TIM_Base_MspInit+0x7e>
 80014d8:	4b13      	ldr	r3, [pc, #76]	; (8001528 <HAL_TIM_Base_MspInit+0xac>)
 80014da:	6e1a      	ldr	r2, [r3, #96]	; 0x60
 80014dc:	f442 3280 	orr.w	r2, r2, #65536	; 0x10000
 80014e0:	661a      	str	r2, [r3, #96]	; 0x60
 80014e2:	6e1b      	ldr	r3, [r3, #96]	; 0x60
 80014e4:	2200      	movs	r2, #0
 80014e6:	f403 3380 	and.w	r3, r3, #65536	; 0x10000
 80014ea:	9302      	str	r3, [sp, #8]
 80014ec:	2018      	movs	r0, #24
 80014ee:	4611      	mov	r1, r2
 80014f0:	9b02      	ldr	r3, [sp, #8]
 80014f2:	f001 fa9f 	bl	8002a34 <HAL_NVIC_SetPriority>
 80014f6:	2018      	movs	r0, #24
 80014f8:	e7e6      	b.n	80014c8 <HAL_TIM_Base_MspInit+0x4c>
 80014fa:	4a0d      	ldr	r2, [pc, #52]	; (8001530 <HAL_TIM_Base_MspInit+0xb4>)
 80014fc:	4293      	cmp	r3, r2
 80014fe:	d1cd      	bne.n	800149c <HAL_TIM_Base_MspInit+0x20>
 8001500:	4b09      	ldr	r3, [pc, #36]	; (8001528 <HAL_TIM_Base_MspInit+0xac>)
 8001502:	6e1a      	ldr	r2, [r3, #96]	; 0x60
 8001504:	f442 3200 	orr.w	r2, r2, #131072	; 0x20000
 8001508:	661a      	str	r2, [r3, #96]	; 0x60
 800150a:	6e1b      	ldr	r3, [r3, #96]	; 0x60
 800150c:	2200      	movs	r2, #0
 800150e:	f403 3300 	and.w	r3, r3, #131072	; 0x20000
 8001512:	9303      	str	r3, [sp, #12]
 8001514:	2019      	movs	r0, #25
 8001516:	4611      	mov	r1, r2
 8001518:	9b03      	ldr	r3, [sp, #12]
 800151a:	f001 fa8b 	bl	8002a34 <HAL_NVIC_SetPriority>
 800151e:	2019      	movs	r0, #25
 8001520:	e7d2      	b.n	80014c8 <HAL_TIM_Base_MspInit+0x4c>
 8001522:	bf00      	nop
 8001524:	40001000 	.word	0x40001000
 8001528:	40021000 	.word	0x40021000
 800152c:	40014000 	.word	0x40014000
 8001530:	40014400 	.word	0x40014400

08001534 <HAL_TIM_MspPostInit>:
 8001534:	b510      	push	{r4, lr}
 8001536:	4604      	mov	r4, r0
 8001538:	b086      	sub	sp, #24
 800153a:	2214      	movs	r2, #20
 800153c:	2100      	movs	r1, #0
 800153e:	a801      	add	r0, sp, #4
 8001540:	f003 ff48 	bl	80053d4 <memset>
 8001544:	6823      	ldr	r3, [r4, #0]
 8001546:	f1b3 4f80 	cmp.w	r3, #1073741824	; 0x40000000
 800154a:	d115      	bne.n	8001578 <HAL_TIM_MspPostInit+0x44>
 800154c:	f503 3304 	add.w	r3, r3, #135168	; 0x21000
 8001550:	a901      	add	r1, sp, #4
 8001552:	6cda      	ldr	r2, [r3, #76]	; 0x4c
 8001554:	f042 0201 	orr.w	r2, r2, #1
 8001558:	64da      	str	r2, [r3, #76]	; 0x4c
 800155a:	6cdb      	ldr	r3, [r3, #76]	; 0x4c
 800155c:	f003 0301 	and.w	r3, r3, #1
 8001560:	9300      	str	r3, [sp, #0]
 8001562:	9b00      	ldr	r3, [sp, #0]
 8001564:	2208      	movs	r2, #8
 8001566:	2302      	movs	r3, #2
 8001568:	e9cd 2301 	strd	r2, r3, [sp, #4]
 800156c:	f04f 4090 	mov.w	r0, #1207959552	; 0x48000000
 8001570:	2301      	movs	r3, #1
 8001572:	9305      	str	r3, [sp, #20]
 8001574:	f001 fd88 	bl	8003088 <HAL_GPIO_Init>
 8001578:	b006      	add	sp, #24
 800157a:	bd10      	pop	{r4, pc}

0800157c <HAL_UART_MspInit>:
 800157c:	b5f0      	push	{r4, r5, r6, r7, lr}
 800157e:	b095      	sub	sp, #84	; 0x54
 8001580:	4606      	mov	r6, r0
 8001582:	2214      	movs	r2, #20
 8001584:	2100      	movs	r1, #0
 8001586:	a802      	add	r0, sp, #8
 8001588:	f003 ff24 	bl	80053d4 <memset>
 800158c:	2234      	movs	r2, #52	; 0x34
 800158e:	2100      	movs	r1, #0
 8001590:	a807      	add	r0, sp, #28
 8001592:	f003 ff1f 	bl	80053d4 <memset>
 8001596:	6832      	ldr	r2, [r6, #0]
 8001598:	4b22      	ldr	r3, [pc, #136]	; (8001624 <HAL_UART_MspInit+0xa8>)
 800159a:	429a      	cmp	r2, r3
 800159c:	d13f      	bne.n	800161e <HAL_UART_MspInit+0xa2>
 800159e:	2301      	movs	r3, #1
 80015a0:	a807      	add	r0, sp, #28
 80015a2:	e9cd 3307 	strd	r3, r3, [sp, #28]
 80015a6:	f002 fd6f 	bl	8004088 <HAL_RCCEx_PeriphCLKConfig>
 80015aa:	b108      	cbz	r0, 80015b0 <HAL_UART_MspInit+0x34>
 80015ac:	f7ff fe98 	bl	80012e0 <Error_Handler>
 80015b0:	4b1d      	ldr	r3, [pc, #116]	; (8001628 <HAL_UART_MspInit+0xac>)
 80015b2:	4c1e      	ldr	r4, [pc, #120]	; (800162c <HAL_UART_MspInit+0xb0>)
 80015b4:	6e1a      	ldr	r2, [r3, #96]	; 0x60
 80015b6:	f442 4280 	orr.w	r2, r2, #16384	; 0x4000
 80015ba:	661a      	str	r2, [r3, #96]	; 0x60
 80015bc:	6e1a      	ldr	r2, [r3, #96]	; 0x60
 80015be:	f402 4280 	and.w	r2, r2, #16384	; 0x4000
 80015c2:	9200      	str	r2, [sp, #0]
 80015c4:	9a00      	ldr	r2, [sp, #0]
 80015c6:	6cda      	ldr	r2, [r3, #76]	; 0x4c
 80015c8:	f042 0201 	orr.w	r2, r2, #1
 80015cc:	64da      	str	r2, [r3, #76]	; 0x4c
 80015ce:	6cdb      	ldr	r3, [r3, #76]	; 0x4c
 80015d0:	f003 0301 	and.w	r3, r3, #1
 80015d4:	9301      	str	r3, [sp, #4]
 80015d6:	9b01      	ldr	r3, [sp, #4]
 80015d8:	2702      	movs	r7, #2
 80015da:	f44f 63c0 	mov.w	r3, #1536	; 0x600
 80015de:	2500      	movs	r5, #0
 80015e0:	e9cd 3702 	strd	r3, r7, [sp, #8]
 80015e4:	2303      	movs	r3, #3
 80015e6:	e9cd 5304 	strd	r5, r3, [sp, #16]
 80015ea:	f04f 4090 	mov.w	r0, #1207959552	; 0x48000000
 80015ee:	2307      	movs	r3, #7
 80015f0:	a902      	add	r1, sp, #8
 80015f2:	9306      	str	r3, [sp, #24]
 80015f4:	f001 fd48 	bl	8003088 <HAL_GPIO_Init>
 80015f8:	4b0d      	ldr	r3, [pc, #52]	; (8001630 <HAL_UART_MspInit+0xb4>)
 80015fa:	6225      	str	r5, [r4, #32]
 80015fc:	e9c4 3700 	strd	r3, r7, [r4]
 8001600:	4620      	mov	r0, r4
 8001602:	2380      	movs	r3, #128	; 0x80
 8001604:	e9c4 5502 	strd	r5, r5, [r4, #8]
 8001608:	e9c4 3504 	strd	r3, r5, [r4, #16]
 800160c:	e9c4 5506 	strd	r5, r5, [r4, #24]
 8001610:	f001 fa64 	bl	8002adc <HAL_DMA_Init>
 8001614:	b108      	cbz	r0, 800161a <HAL_UART_MspInit+0x9e>
 8001616:	f7ff fe63 	bl	80012e0 <Error_Handler>
 800161a:	6734      	str	r4, [r6, #112]	; 0x70
 800161c:	62a6      	str	r6, [r4, #40]	; 0x28
 800161e:	b015      	add	sp, #84	; 0x54
 8001620:	bdf0      	pop	{r4, r5, r6, r7, pc}
 8001622:	bf00      	nop
 8001624:	40013800 	.word	0x40013800
 8001628:	40021000 	.word	0x40021000
 800162c:	200001a4 	.word	0x200001a4
 8001630:	40020058 	.word	0x40020058

08001634 <HAL_UART_MspDeInit>:
 8001634:	6802      	ldr	r2, [r0, #0]
 8001636:	4b0b      	ldr	r3, [pc, #44]	; (8001664 <HAL_UART_MspDeInit+0x30>)
 8001638:	429a      	cmp	r2, r3
 800163a:	b510      	push	{r4, lr}
 800163c:	4604      	mov	r4, r0
 800163e:	d10f      	bne.n	8001660 <HAL_UART_MspDeInit+0x2c>
 8001640:	4a09      	ldr	r2, [pc, #36]	; (8001668 <HAL_UART_MspDeInit+0x34>)
 8001642:	6e13      	ldr	r3, [r2, #96]	; 0x60
 8001644:	f423 4380 	bic.w	r3, r3, #16384	; 0x4000
 8001648:	f04f 4090 	mov.w	r0, #1207959552	; 0x48000000
 800164c:	6613      	str	r3, [r2, #96]	; 0x60
 800164e:	f44f 61c0 	mov.w	r1, #1536	; 0x600
 8001652:	f001 fdd7 	bl	8003204 <HAL_GPIO_DeInit>
 8001656:	6f20      	ldr	r0, [r4, #112]	; 0x70
 8001658:	e8bd 4010 	ldmia.w	sp!, {r4, lr}
 800165c:	f001 baaa 	b.w	8002bb4 <HAL_DMA_DeInit>
 8001660:	bd10      	pop	{r4, pc}
 8001662:	bf00      	nop
 8001664:	40013800 	.word	0x40013800
 8001668:	40021000 	.word	0x40021000

0800166c <NMI_Handler>:
 800166c:	4770      	bx	lr

0800166e <HardFault_Handler>:
 800166e:	e7fe      	b.n	800166e <HardFault_Handler>

08001670 <MemManage_Handler>:
 8001670:	e7fe      	b.n	8001670 <MemManage_Handler>

08001672 <BusFault_Handler>:
 8001672:	e7fe      	b.n	8001672 <BusFault_Handler>

08001674 <UsageFault_Handler>:
 8001674:	e7fe      	b.n	8001674 <UsageFault_Handler>

08001676 <SVC_Handler>:
 8001676:	4770      	bx	lr

08001678 <DebugMon_Handler>:
 8001678:	4770      	bx	lr

0800167a <PendSV_Handler>:
 800167a:	4770      	bx	lr

0800167c <SysTick_Handler>:
 800167c:	f000 ba74 	b.w	8001b68 <HAL_IncTick>

08001680 <DMA1_Channel1_IRQHandler>:
 8001680:	b508      	push	{r3, lr}
 8001682:	4819      	ldr	r0, [pc, #100]	; (80016e8 <DMA1_Channel1_IRQHandler+0x68>)
 8001684:	f001 f8d0 	bl	8002828 <HAL_ADC_Stop_DMA>
 8001688:	2140      	movs	r1, #64	; 0x40
 800168a:	2201      	movs	r2, #1
 800168c:	f04f 4090 	mov.w	r0, #1207959552	; 0x48000000
 8001690:	f001 fe32 	bl	80032f8 <HAL_GPIO_WritePin>
 8001694:	4b15      	ldr	r3, [pc, #84]	; (80016ec <DMA1_Channel1_IRQHandler+0x6c>)
 8001696:	4816      	ldr	r0, [pc, #88]	; (80016f0 <DMA1_Channel1_IRQHandler+0x70>)
 8001698:	881a      	ldrh	r2, [r3, #0]
 800169a:	885b      	ldrh	r3, [r3, #2]
 800169c:	ee07 3a10 	vmov	s14, r3
 80016a0:	4b14      	ldr	r3, [pc, #80]	; (80016f4 <DMA1_Channel1_IRQHandler+0x74>)
 80016a2:	edd3 6a00 	vldr	s13, [r3]
 80016a6:	4b14      	ldr	r3, [pc, #80]	; (80016f8 <DMA1_Channel1_IRQHandler+0x78>)
 80016a8:	eeb8 7a47 	vcvt.f32.u32	s14, s14
 80016ac:	edd3 7a00 	vldr	s15, [r3]
 80016b0:	eee7 7a26 	vfma.f32	s15, s14, s13
 80016b4:	f5b2 7f44 	cmp.w	r2, #784	; 0x310
 80016b8:	bf84      	itt	hi
 80016ba:	f46f 7144 	mvnhi.w	r1, #784	; 0x310
 80016be:	1852      	addhi	r2, r2, r1
 80016c0:	eefc 7ae7 	vcvt.u32.f32	s15, s15
 80016c4:	bf88      	it	hi
 80016c6:	b292      	uxthhi	r2, r2
 80016c8:	ee17 3a90 	vmov	r3, s15
 80016cc:	bf98      	it	ls
 80016ce:	2200      	movls	r2, #0
 80016d0:	b299      	uxth	r1, r3
 80016d2:	b2d3      	uxtb	r3, r2
 80016d4:	ea43 2301 	orr.w	r3, r3, r1, lsl #8
 80016d8:	4a08      	ldr	r2, [pc, #32]	; (80016fc <DMA1_Channel1_IRQHandler+0x7c>)
 80016da:	b29b      	uxth	r3, r3
 80016dc:	8213      	strh	r3, [r2, #16]
 80016de:	8253      	strh	r3, [r2, #18]
 80016e0:	e8bd 4008 	ldmia.w	sp!, {r3, lr}
 80016e4:	f001 bb18 	b.w	8002d18 <HAL_DMA_IRQHandler>
 80016e8:	20000094 	.word	0x20000094
 80016ec:	2000005c 	.word	0x2000005c
 80016f0:	2000015c 	.word	0x2000015c
 80016f4:	20004e3c 	.word	0x20004e3c
 80016f8:	20004e40 	.word	0x20004e40
 80016fc:	20000e24 	.word	0x20000e24

08001700 <DMA1_Channel5_IRQHandler>:
 8001700:	4801      	ldr	r0, [pc, #4]	; (8001708 <DMA1_Channel5_IRQHandler+0x8>)
 8001702:	f001 bb09 	b.w	8002d18 <HAL_DMA_IRQHandler>
 8001706:	bf00      	nop
 8001708:	200001a4 	.word	0x200001a4

0800170c <ADC1_2_IRQHandler>:
 800170c:	4833      	ldr	r0, [pc, #204]	; (80017dc <ADC1_2_IRQHandler+0xd0>)
 800170e:	6803      	ldr	r3, [r0, #0]
 8001710:	681b      	ldr	r3, [r3, #0]
 8001712:	075a      	lsls	r2, r3, #29
 8001714:	b570      	push	{r4, r5, r6, lr}
 8001716:	d505      	bpl.n	8001724 <ADC1_2_IRQHandler+0x18>
 8001718:	f000 fb38 	bl	8001d8c <HAL_ADC_GetValue>
 800171c:	b280      	uxth	r0, r0
 800171e:	4a30      	ldr	r2, [pc, #192]	; (80017e0 <ADC1_2_IRQHandler+0xd4>)
 8001720:	b940      	cbnz	r0, 8001734 <ADC1_2_IRQHandler+0x28>
 8001722:	8010      	strh	r0, [r2, #0]
 8001724:	482f      	ldr	r0, [pc, #188]	; (80017e4 <ADC1_2_IRQHandler+0xd8>)
 8001726:	f000 fb3d 	bl	8001da4 <HAL_ADC_IRQHandler>
 800172a:	e8bd 4070 	ldmia.w	sp!, {r4, r5, r6, lr}
 800172e:	482b      	ldr	r0, [pc, #172]	; (80017dc <ADC1_2_IRQHandler+0xd0>)
 8001730:	f000 bb38 	b.w	8001da4 <HAL_ADC_IRQHandler>
 8001734:	4b2c      	ldr	r3, [pc, #176]	; (80017e8 <ADC1_2_IRQHandler+0xdc>)
 8001736:	781b      	ldrb	r3, [r3, #0]
 8001738:	f3c0 000b 	ubfx	r0, r0, #0, #12
 800173c:	2b01      	cmp	r3, #1
 800173e:	8010      	strh	r0, [r2, #0]
 8001740:	d148      	bne.n	80017d4 <ADC1_2_IRQHandler+0xc8>
 8001742:	0880      	lsrs	r0, r0, #2
 8001744:	8010      	strh	r0, [r2, #0]
 8001746:	8813      	ldrh	r3, [r2, #0]
 8001748:	3306      	adds	r3, #6
 800174a:	b29b      	uxth	r3, r3
 800174c:	8013      	strh	r3, [r2, #0]
 800174e:	4a27      	ldr	r2, [pc, #156]	; (80017ec <ADC1_2_IRQHandler+0xe0>)
 8001750:	f832 1023 	ldrh.w	r1, [r2, r3, lsl #2]
 8001754:	f64f 70ff 	movw	r0, #65535	; 0xffff
 8001758:	4281      	cmp	r1, r0
 800175a:	bf1c      	itt	ne
 800175c:	3101      	addne	r1, #1
 800175e:	f822 1023 	strhne.w	r1, [r2, r3, lsl #2]
 8001762:	4923      	ldr	r1, [pc, #140]	; (80017f0 <ADC1_2_IRQHandler+0xe4>)
 8001764:	8809      	ldrh	r1, [r1, #0]
 8001766:	b161      	cbz	r1, 8001782 <ADC1_2_IRQHandler+0x76>
 8001768:	eb02 0383 	add.w	r3, r2, r3, lsl #2
 800176c:	f64f 71ff 	movw	r1, #65535	; 0xffff
 8001770:	885a      	ldrh	r2, [r3, #2]
 8001772:	428a      	cmp	r2, r1
 8001774:	bf1c      	itt	ne
 8001776:	3201      	addne	r2, #1
 8001778:	805a      	strhne	r2, [r3, #2]
 800177a:	4a1e      	ldr	r2, [pc, #120]	; (80017f4 <ADC1_2_IRQHandler+0xe8>)
 800177c:	6813      	ldr	r3, [r2, #0]
 800177e:	3301      	adds	r3, #1
 8001780:	6013      	str	r3, [r2, #0]
 8001782:	4a1d      	ldr	r2, [pc, #116]	; (80017f8 <ADC1_2_IRQHandler+0xec>)
 8001784:	4c1d      	ldr	r4, [pc, #116]	; (80017fc <ADC1_2_IRQHandler+0xf0>)
 8001786:	6813      	ldr	r3, [r2, #0]
 8001788:	3301      	adds	r3, #1
 800178a:	6013      	str	r3, [r2, #0]
 800178c:	4a1c      	ldr	r2, [pc, #112]	; (8001800 <ADC1_2_IRQHandler+0xf4>)
 800178e:	6813      	ldr	r3, [r2, #0]
 8001790:	3301      	adds	r3, #1
 8001792:	6013      	str	r3, [r2, #0]
 8001794:	f000 f9f4 	bl	8001b80 <HAL_GetTick>
 8001798:	6822      	ldr	r2, [r4, #0]
 800179a:	b16a      	cbz	r2, 80017b8 <ADC1_2_IRQHandler+0xac>
 800179c:	4919      	ldr	r1, [pc, #100]	; (8001804 <ADC1_2_IRQHandler+0xf8>)
 800179e:	4e1a      	ldr	r6, [pc, #104]	; (8001808 <ADC1_2_IRQHandler+0xfc>)
 80017a0:	780d      	ldrb	r5, [r1, #0]
 80017a2:	1c6b      	adds	r3, r5, #1
 80017a4:	b2db      	uxtb	r3, r3
 80017a6:	2b31      	cmp	r3, #49	; 0x31
 80017a8:	eba0 0202 	sub.w	r2, r0, r2
 80017ac:	700b      	strb	r3, [r1, #0]
 80017ae:	f846 2025 	str.w	r2, [r6, r5, lsl #2]
 80017b2:	bf84      	itt	hi
 80017b4:	2300      	movhi	r3, #0
 80017b6:	700b      	strbhi	r3, [r1, #0]
 80017b8:	4b14      	ldr	r3, [pc, #80]	; (800180c <ADC1_2_IRQHandler+0x100>)
 80017ba:	6020      	str	r0, [r4, #0]
 80017bc:	881b      	ldrh	r3, [r3, #0]
 80017be:	065b      	lsls	r3, r3, #25
 80017c0:	d5b0      	bpl.n	8001724 <ADC1_2_IRQHandler+0x18>
 80017c2:	4813      	ldr	r0, [pc, #76]	; (8001810 <ADC1_2_IRQHandler+0x104>)
 80017c4:	2201      	movs	r2, #1
 80017c6:	2108      	movs	r1, #8
 80017c8:	f001 fd96 	bl	80032f8 <HAL_GPIO_WritePin>
 80017cc:	4811      	ldr	r0, [pc, #68]	; (8001814 <ADC1_2_IRQHandler+0x108>)
 80017ce:	f002 fe49 	bl	8004464 <HAL_TIM_Base_Start_IT>
 80017d2:	e7a7      	b.n	8001724 <ADC1_2_IRQHandler+0x18>
 80017d4:	2b02      	cmp	r3, #2
 80017d6:	d1b6      	bne.n	8001746 <ADC1_2_IRQHandler+0x3a>
 80017d8:	0840      	lsrs	r0, r0, #1
 80017da:	e7b3      	b.n	8001744 <ADC1_2_IRQHandler+0x38>
 80017dc:	200000f8 	.word	0x200000f8
 80017e0:	20000060 	.word	0x20000060
 80017e4:	20000094 	.word	0x20000094
 80017e8:	20000e18 	.word	0x20000e18
 80017ec:	20000e24 	.word	0x20000e24
 80017f0:	20000064 	.word	0x20000064
 80017f4:	2000008c 	.word	0x2000008c
 80017f8:	20000088 	.word	0x20000088
 80017fc:	20000d44 	.word	0x20000d44
 8001800:	20000084 	.word	0x20000084
 8001804:	200003dc 	.word	0x200003dc
 8001808:	20000d50 	.word	0x20000d50
 800180c:	20000074 	.word	0x20000074
 8001810:	48000400 	.word	0x48000400
 8001814:	20000228 	.word	0x20000228

08001818 <TIM1_BRK_TIM15_IRQHandler>:
 8001818:	b508      	push	{r3, lr}
 800181a:	4806      	ldr	r0, [pc, #24]	; (8001834 <TIM1_BRK_TIM15_IRQHandler+0x1c>)
 800181c:	2200      	movs	r2, #0
 800181e:	2108      	movs	r1, #8
 8001820:	f001 fd6a 	bl	80032f8 <HAL_GPIO_WritePin>
 8001824:	4804      	ldr	r0, [pc, #16]	; (8001838 <TIM1_BRK_TIM15_IRQHandler+0x20>)
 8001826:	f002 fe66 	bl	80044f6 <HAL_TIM_IRQHandler>
 800182a:	e8bd 4008 	ldmia.w	sp!, {r3, lr}
 800182e:	4802      	ldr	r0, [pc, #8]	; (8001838 <TIM1_BRK_TIM15_IRQHandler+0x20>)
 8001830:	f002 be42 	b.w	80044b8 <HAL_TIM_Base_Stop_IT>
 8001834:	48000400 	.word	0x48000400
 8001838:	20000228 	.word	0x20000228

0800183c <TIM1_UP_TIM16_IRQHandler>:
 800183c:	b510      	push	{r4, lr}
 800183e:	4c0b      	ldr	r4, [pc, #44]	; (800186c <TIM1_UP_TIM16_IRQHandler+0x30>)
 8001840:	2108      	movs	r1, #8
 8001842:	4620      	mov	r0, r4
 8001844:	f003 f962 	bl	8004b0c <HAL_TIM_OC_Stop>
 8001848:	210c      	movs	r1, #12
 800184a:	4620      	mov	r0, r4
 800184c:	f003 f95e 	bl	8004b0c <HAL_TIM_OC_Stop>
 8001850:	2200      	movs	r2, #0
 8001852:	2102      	movs	r1, #2
 8001854:	f04f 4090 	mov.w	r0, #1207959552	; 0x48000000
 8001858:	f001 fd4e 	bl	80032f8 <HAL_GPIO_WritePin>
 800185c:	4804      	ldr	r0, [pc, #16]	; (8001870 <TIM1_UP_TIM16_IRQHandler+0x34>)
 800185e:	f002 fe4a 	bl	80044f6 <HAL_TIM_IRQHandler>
 8001862:	e8bd 4010 	ldmia.w	sp!, {r4, lr}
 8001866:	4802      	ldr	r0, [pc, #8]	; (8001870 <TIM1_UP_TIM16_IRQHandler+0x34>)
 8001868:	f002 be26 	b.w	80044b8 <HAL_TIM_Base_Stop_IT>
 800186c:	200002c0 	.word	0x200002c0
 8001870:	20000274 	.word	0x20000274

08001874 <TIM6_IRQHandler>:
 8001874:	b510      	push	{r4, lr}
 8001876:	4c38      	ldr	r4, [pc, #224]	; (8001958 <TIM6_IRQHandler+0xe4>)
 8001878:	4838      	ldr	r0, [pc, #224]	; (800195c <TIM6_IRQHandler+0xe8>)
 800187a:	f002 fe3c 	bl	80044f6 <HAL_TIM_IRQHandler>
 800187e:	8823      	ldrh	r3, [r4, #0]
 8001880:	0698      	lsls	r0, r3, #26
 8001882:	d00a      	beq.n	800189a <TIM6_IRQHandler+0x26>
 8001884:	4a36      	ldr	r2, [pc, #216]	; (8001960 <TIM6_IRQHandler+0xec>)
 8001886:	8812      	ldrh	r2, [r2, #0]
 8001888:	2a03      	cmp	r2, #3
 800188a:	d806      	bhi.n	800189a <TIM6_IRQHandler+0x26>
 800188c:	e8df f002 	tbb	[pc, r2]
 8001890:	482d0602 	.word	0x482d0602
 8001894:	4b33      	ldr	r3, [pc, #204]	; (8001964 <TIM6_IRQHandler+0xf0>)
 8001896:	2200      	movs	r2, #0
 8001898:	801a      	strh	r2, [r3, #0]
 800189a:	bd10      	pop	{r4, pc}
 800189c:	4931      	ldr	r1, [pc, #196]	; (8001964 <TIM6_IRQHandler+0xf0>)
 800189e:	8808      	ldrh	r0, [r1, #0]
 80018a0:	1e42      	subs	r2, r0, #1
 80018a2:	b292      	uxth	r2, r2
 80018a4:	800a      	strh	r2, [r1, #0]
 80018a6:	b910      	cbnz	r0, 80018ae <TIM6_IRQHandler+0x3a>
 80018a8:	2304      	movs	r3, #4
 80018aa:	800b      	strh	r3, [r1, #0]
 80018ac:	e7f5      	b.n	800189a <TIM6_IRQHandler+0x26>
 80018ae:	2a02      	cmp	r2, #2
 80018b0:	d9f3      	bls.n	800189a <TIM6_IRQHandler+0x26>
 80018b2:	07d9      	lsls	r1, r3, #31
 80018b4:	d50a      	bpl.n	80018cc <TIM6_IRQHandler+0x58>
 80018b6:	2108      	movs	r1, #8
 80018b8:	482b      	ldr	r0, [pc, #172]	; (8001968 <TIM6_IRQHandler+0xf4>)
 80018ba:	f003 f8b5 	bl	8004a28 <HAL_TIM_OC_Start>
 80018be:	482a      	ldr	r0, [pc, #168]	; (8001968 <TIM6_IRQHandler+0xf4>)
 80018c0:	210c      	movs	r1, #12
 80018c2:	f003 f8b1 	bl	8004a28 <HAL_TIM_OC_Start>
 80018c6:	4829      	ldr	r0, [pc, #164]	; (800196c <TIM6_IRQHandler+0xf8>)
 80018c8:	f002 fdcc 	bl	8004464 <HAL_TIM_Base_Start_IT>
 80018cc:	8823      	ldrh	r3, [r4, #0]
 80018ce:	f013 0f02 	tst.w	r3, #2
 80018d2:	d0e2      	beq.n	800189a <TIM6_IRQHandler+0x26>
 80018d4:	f04f 4090 	mov.w	r0, #1207959552	; 0x48000000
 80018d8:	2201      	movs	r2, #1
 80018da:	2102      	movs	r1, #2
 80018dc:	f001 fd0c 	bl	80032f8 <HAL_GPIO_WritePin>
 80018e0:	e8bd 4010 	ldmia.w	sp!, {r4, lr}
 80018e4:	4821      	ldr	r0, [pc, #132]	; (800196c <TIM6_IRQHandler+0xf8>)
 80018e6:	f002 bdbd 	b.w	8004464 <HAL_TIM_Base_Start_IT>
 80018ea:	491e      	ldr	r1, [pc, #120]	; (8001964 <TIM6_IRQHandler+0xf0>)
 80018ec:	8808      	ldrh	r0, [r1, #0]
 80018ee:	1e42      	subs	r2, r0, #1
 80018f0:	b292      	uxth	r2, r2
 80018f2:	800a      	strh	r2, [r1, #0]
 80018f4:	b908      	cbnz	r0, 80018fa <TIM6_IRQHandler+0x86>
 80018f6:	2305      	movs	r3, #5
 80018f8:	e7d7      	b.n	80018aa <TIM6_IRQHandler+0x36>
 80018fa:	2a02      	cmp	r2, #2
 80018fc:	d9cd      	bls.n	800189a <TIM6_IRQHandler+0x26>
 80018fe:	075a      	lsls	r2, r3, #29
 8001900:	d50a      	bpl.n	8001918 <TIM6_IRQHandler+0xa4>
 8001902:	2108      	movs	r1, #8
 8001904:	4818      	ldr	r0, [pc, #96]	; (8001968 <TIM6_IRQHandler+0xf4>)
 8001906:	f003 f88f 	bl	8004a28 <HAL_TIM_OC_Start>
 800190a:	4817      	ldr	r0, [pc, #92]	; (8001968 <TIM6_IRQHandler+0xf4>)
 800190c:	210c      	movs	r1, #12
 800190e:	f003 f88b 	bl	8004a28 <HAL_TIM_OC_Start>
 8001912:	4816      	ldr	r0, [pc, #88]	; (800196c <TIM6_IRQHandler+0xf8>)
 8001914:	f002 fda6 	bl	8004464 <HAL_TIM_Base_Start_IT>
 8001918:	8823      	ldrh	r3, [r4, #0]
 800191a:	f013 0f08 	tst.w	r3, #8
 800191e:	e7d8      	b.n	80018d2 <TIM6_IRQHandler+0x5e>
 8001920:	4910      	ldr	r1, [pc, #64]	; (8001964 <TIM6_IRQHandler+0xf0>)
 8001922:	8808      	ldrh	r0, [r1, #0]
 8001924:	1e42      	subs	r2, r0, #1
 8001926:	b292      	uxth	r2, r2
 8001928:	800a      	strh	r2, [r1, #0]
 800192a:	b908      	cbnz	r0, 8001930 <TIM6_IRQHandler+0xbc>
 800192c:	2306      	movs	r3, #6
 800192e:	e7bc      	b.n	80018aa <TIM6_IRQHandler+0x36>
 8001930:	2a02      	cmp	r2, #2
 8001932:	d9b2      	bls.n	800189a <TIM6_IRQHandler+0x26>
 8001934:	06db      	lsls	r3, r3, #27
 8001936:	d50a      	bpl.n	800194e <TIM6_IRQHandler+0xda>
 8001938:	2108      	movs	r1, #8
 800193a:	480b      	ldr	r0, [pc, #44]	; (8001968 <TIM6_IRQHandler+0xf4>)
 800193c:	f003 f874 	bl	8004a28 <HAL_TIM_OC_Start>
 8001940:	4809      	ldr	r0, [pc, #36]	; (8001968 <TIM6_IRQHandler+0xf4>)
 8001942:	210c      	movs	r1, #12
 8001944:	f003 f870 	bl	8004a28 <HAL_TIM_OC_Start>
 8001948:	4808      	ldr	r0, [pc, #32]	; (800196c <TIM6_IRQHandler+0xf8>)
 800194a:	f002 fd8b 	bl	8004464 <HAL_TIM_Base_Start_IT>
 800194e:	8823      	ldrh	r3, [r4, #0]
 8001950:	f013 0f20 	tst.w	r3, #32
 8001954:	e7bd      	b.n	80018d2 <TIM6_IRQHandler+0x5e>
 8001956:	bf00      	nop
 8001958:	20000074 	.word	0x20000074
 800195c:	2000030c 	.word	0x2000030c
 8001960:	20000064 	.word	0x20000064
 8001964:	20000062 	.word	0x20000062
 8001968:	200002c0 	.word	0x200002c0
 800196c:	20000274 	.word	0x20000274

08001970 <LPTIM2_IRQHandler>:
 8001970:	b5f8      	push	{r3, r4, r5, r6, r7, lr}
 8001972:	482f      	ldr	r0, [pc, #188]	; (8001a30 <LPTIM2_IRQHandler+0xc0>)
 8001974:	4d2f      	ldr	r5, [pc, #188]	; (8001a34 <LPTIM2_IRQHandler+0xc4>)
 8001976:	4c30      	ldr	r4, [pc, #192]	; (8001a38 <LPTIM2_IRQHandler+0xc8>)
 8001978:	f001 fce5 	bl	8003346 <HAL_LPTIM_IRQHandler>
 800197c:	2300      	movs	r3, #0
 800197e:	602b      	str	r3, [r5, #0]
 8001980:	4619      	mov	r1, r3
 8001982:	4618      	mov	r0, r3
 8001984:	461a      	mov	r2, r3
 8001986:	f854 6b04 	ldr.w	r6, [r4], #4
 800198a:	b116      	cbz	r6, 8001992 <LPTIM2_IRQHandler+0x22>
 800198c:	3201      	adds	r2, #1
 800198e:	4431      	add	r1, r6
 8001990:	2301      	movs	r3, #1
 8001992:	3001      	adds	r0, #1
 8001994:	2832      	cmp	r0, #50	; 0x32
 8001996:	d1f6      	bne.n	8001986 <LPTIM2_IRQHandler+0x16>
 8001998:	b103      	cbz	r3, 800199c <LPTIM2_IRQHandler+0x2c>
 800199a:	6029      	str	r1, [r5, #0]
 800199c:	4c27      	ldr	r4, [pc, #156]	; (8001a3c <LPTIM2_IRQHandler+0xcc>)
 800199e:	b16a      	cbz	r2, 80019bc <LPTIM2_IRQHandler+0x4c>
 80019a0:	682b      	ldr	r3, [r5, #0]
 80019a2:	fbb3 f3f2 	udiv	r3, r3, r2
 80019a6:	4a26      	ldr	r2, [pc, #152]	; (8001a40 <LPTIM2_IRQHandler+0xd0>)
 80019a8:	602b      	str	r3, [r5, #0]
 80019aa:	6812      	ldr	r2, [r2, #0]
 80019ac:	4293      	cmp	r3, r2
 80019ae:	d22f      	bcs.n	8001a10 <LPTIM2_IRQHandler+0xa0>
 80019b0:	2303      	movs	r3, #3
 80019b2:	4a24      	ldr	r2, [pc, #144]	; (8001a44 <LPTIM2_IRQHandler+0xd4>)
 80019b4:	8023      	strh	r3, [r4, #0]
 80019b6:	6813      	ldr	r3, [r2, #0]
 80019b8:	3301      	adds	r3, #1
 80019ba:	6013      	str	r3, [r2, #0]
 80019bc:	4e22      	ldr	r6, [pc, #136]	; (8001a48 <LPTIM2_IRQHandler+0xd8>)
 80019be:	8823      	ldrh	r3, [r4, #0]
 80019c0:	8832      	ldrh	r2, [r6, #0]
 80019c2:	429a      	cmp	r2, r3
 80019c4:	d023      	beq.n	8001a0e <LPTIM2_IRQHandler+0x9e>
 80019c6:	4f21      	ldr	r7, [pc, #132]	; (8001a4c <LPTIM2_IRQHandler+0xdc>)
 80019c8:	f000 f8da 	bl	8001b80 <HAL_GetTick>
 80019cc:	783b      	ldrb	r3, [r7, #0]
 80019ce:	4920      	ldr	r1, [pc, #128]	; (8001a50 <LPTIM2_IRQHandler+0xe0>)
 80019d0:	220c      	movs	r2, #12
 80019d2:	435a      	muls	r2, r3
 80019d4:	eb01 0c02 	add.w	ip, r1, r2
 80019d8:	2bc6      	cmp	r3, #198	; 0xc6
 80019da:	f44f 7e7a 	mov.w	lr, #1000	; 0x3e8
 80019de:	fbb0 f0fe 	udiv	r0, r0, lr
 80019e2:	5088      	str	r0, [r1, r2]
 80019e4:	682a      	ldr	r2, [r5, #0]
 80019e6:	f8cc 2008 	str.w	r2, [ip, #8]
 80019ea:	bf98      	it	ls
 80019ec:	3301      	addls	r3, #1
 80019ee:	4a19      	ldr	r2, [pc, #100]	; (8001a54 <LPTIM2_IRQHandler+0xe4>)
 80019f0:	8821      	ldrh	r1, [r4, #0]
 80019f2:	f88c 1004 	strb.w	r1, [ip, #4]
 80019f6:	bf94      	ite	ls
 80019f8:	b2db      	uxtbls	r3, r3
 80019fa:	2300      	movhi	r3, #0
 80019fc:	703b      	strb	r3, [r7, #0]
 80019fe:	7813      	ldrb	r3, [r2, #0]
 8001a00:	8031      	strh	r1, [r6, #0]
 8001a02:	3301      	adds	r3, #1
 8001a04:	b2db      	uxtb	r3, r3
 8001a06:	2bc8      	cmp	r3, #200	; 0xc8
 8001a08:	bf88      	it	hi
 8001a0a:	23c8      	movhi	r3, #200	; 0xc8
 8001a0c:	7013      	strb	r3, [r2, #0]
 8001a0e:	bdf8      	pop	{r3, r4, r5, r6, r7, pc}
 8001a10:	4a11      	ldr	r2, [pc, #68]	; (8001a58 <LPTIM2_IRQHandler+0xe8>)
 8001a12:	6812      	ldr	r2, [r2, #0]
 8001a14:	4293      	cmp	r3, r2
 8001a16:	d201      	bcs.n	8001a1c <LPTIM2_IRQHandler+0xac>
 8001a18:	2302      	movs	r3, #2
 8001a1a:	e7ca      	b.n	80019b2 <LPTIM2_IRQHandler+0x42>
 8001a1c:	4a0f      	ldr	r2, [pc, #60]	; (8001a5c <LPTIM2_IRQHandler+0xec>)
 8001a1e:	6812      	ldr	r2, [r2, #0]
 8001a20:	4293      	cmp	r3, r2
 8001a22:	d201      	bcs.n	8001a28 <LPTIM2_IRQHandler+0xb8>
 8001a24:	2301      	movs	r3, #1
 8001a26:	e7c4      	b.n	80019b2 <LPTIM2_IRQHandler+0x42>
 8001a28:	2300      	movs	r3, #0
 8001a2a:	8023      	strh	r3, [r4, #0]
 8001a2c:	e7c6      	b.n	80019bc <LPTIM2_IRQHandler+0x4c>
 8001a2e:	bf00      	nop
 8001a30:	200001ec 	.word	0x200001ec
 8001a34:	2000006c 	.word	0x2000006c
 8001a38:	20000d50 	.word	0x20000d50
 8001a3c:	20000064 	.word	0x20000064
 8001a40:	20000058 	.word	0x20000058
 8001a44:	20000068 	.word	0x20000068
 8001a48:	20000002 	.word	0x20000002
 8001a4c:	20000d41 	.word	0x20000d41
 8001a50:	200003e0 	.word	0x200003e0
 8001a54:	20000d42 	.word	0x20000d42
 8001a58:	20000054 	.word	0x20000054
 8001a5c:	20000050 	.word	0x20000050

08001a60 <SystemInit>:
 8001a60:	490f      	ldr	r1, [pc, #60]	; (8001aa0 <SystemInit+0x40>)
 8001a62:	f8d1 3088 	ldr.w	r3, [r1, #136]	; 0x88
 8001a66:	f443 0370 	orr.w	r3, r3, #15728640	; 0xf00000
 8001a6a:	f8c1 3088 	str.w	r3, [r1, #136]	; 0x88
 8001a6e:	4b0d      	ldr	r3, [pc, #52]	; (8001aa4 <SystemInit+0x44>)
 8001a70:	681a      	ldr	r2, [r3, #0]
 8001a72:	2000      	movs	r0, #0
 8001a74:	f042 0201 	orr.w	r2, r2, #1
 8001a78:	601a      	str	r2, [r3, #0]
 8001a7a:	6098      	str	r0, [r3, #8]
 8001a7c:	681a      	ldr	r2, [r3, #0]
 8001a7e:	f022 52a8 	bic.w	r2, r2, #352321536	; 0x15000000
 8001a82:	f422 2210 	bic.w	r2, r2, #589824	; 0x90000
 8001a86:	601a      	str	r2, [r3, #0]
 8001a88:	f44f 5280 	mov.w	r2, #4096	; 0x1000
 8001a8c:	60da      	str	r2, [r3, #12]
 8001a8e:	681a      	ldr	r2, [r3, #0]
 8001a90:	f422 2280 	bic.w	r2, r2, #262144	; 0x40000
 8001a94:	601a      	str	r2, [r3, #0]
 8001a96:	6198      	str	r0, [r3, #24]
 8001a98:	f04f 6300 	mov.w	r3, #134217728	; 0x8000000
 8001a9c:	608b      	str	r3, [r1, #8]
 8001a9e:	4770      	bx	lr
 8001aa0:	e000ed00 	.word	0xe000ed00
 8001aa4:	40021000 	.word	0x40021000

08001aa8 <Reset_Handler>:
 8001aa8:	f8df d034 	ldr.w	sp, [pc, #52]	; 8001ae0 <LoopForever+0x2>
 8001aac:	f7ff ffd8 	bl	8001a60 <SystemInit>
 8001ab0:	2100      	movs	r1, #0
 8001ab2:	e003      	b.n	8001abc <LoopCopyDataInit>

08001ab4 <CopyDataInit>:
 8001ab4:	4b0b      	ldr	r3, [pc, #44]	; (8001ae4 <LoopForever+0x6>)
 8001ab6:	585b      	ldr	r3, [r3, r1]
 8001ab8:	5043      	str	r3, [r0, r1]
 8001aba:	3104      	adds	r1, #4

08001abc <LoopCopyDataInit>:
 8001abc:	480a      	ldr	r0, [pc, #40]	; (8001ae8 <LoopForever+0xa>)
 8001abe:	4b0b      	ldr	r3, [pc, #44]	; (8001aec <LoopForever+0xe>)
 8001ac0:	1842      	adds	r2, r0, r1
 8001ac2:	429a      	cmp	r2, r3
 8001ac4:	d3f6      	bcc.n	8001ab4 <CopyDataInit>
 8001ac6:	4a0a      	ldr	r2, [pc, #40]	; (8001af0 <LoopForever+0x12>)
 8001ac8:	e002      	b.n	8001ad0 <LoopFillZerobss>

08001aca <FillZerobss>:
 8001aca:	2300      	movs	r3, #0
 8001acc:	f842 3b04 	str.w	r3, [r2], #4

08001ad0 <LoopFillZerobss>:
 8001ad0:	4b08      	ldr	r3, [pc, #32]	; (8001af4 <LoopForever+0x16>)
 8001ad2:	429a      	cmp	r2, r3
 8001ad4:	d3f9      	bcc.n	8001aca <FillZerobss>
 8001ad6:	f003 fc59 	bl	800538c <__libc_init_array>
 8001ada:	f7fe fe29 	bl	8000730 <main>

08001ade <LoopForever>:
 8001ade:	e7fe      	b.n	8001ade <LoopForever>
 8001ae0:	2000a000 	.word	0x2000a000
 8001ae4:	08005480 	.word	0x08005480
 8001ae8:	20000000 	.word	0x20000000
 8001aec:	20000034 	.word	0x20000034
 8001af0:	20000034 	.word	0x20000034
 8001af4:	20004e4c 	.word	0x20004e4c

08001af8 <COMP_IRQHandler>:
 8001af8:	e7fe      	b.n	8001af8 <COMP_IRQHandler>
	...

08001afc <HAL_InitTick>:
 8001afc:	b538      	push	{r3, r4, r5, lr}
 8001afe:	4b0f      	ldr	r3, [pc, #60]	; (8001b3c <HAL_InitTick+0x40>)
 8001b00:	4605      	mov	r5, r0
 8001b02:	7818      	ldrb	r0, [r3, #0]
 8001b04:	b908      	cbnz	r0, 8001b0a <HAL_InitTick+0xe>
 8001b06:	2001      	movs	r0, #1
 8001b08:	bd38      	pop	{r3, r4, r5, pc}
 8001b0a:	4a0d      	ldr	r2, [pc, #52]	; (8001b40 <HAL_InitTick+0x44>)
 8001b0c:	f44f 737a 	mov.w	r3, #1000	; 0x3e8
 8001b10:	fbb3 f3f0 	udiv	r3, r3, r0
 8001b14:	6810      	ldr	r0, [r2, #0]
 8001b16:	fbb0 f0f3 	udiv	r0, r0, r3
 8001b1a:	f000 ffcb 	bl	8002ab4 <HAL_SYSTICK_Config>
 8001b1e:	4604      	mov	r4, r0
 8001b20:	2800      	cmp	r0, #0
 8001b22:	d1f0      	bne.n	8001b06 <HAL_InitTick+0xa>
 8001b24:	2d0f      	cmp	r5, #15
 8001b26:	d8ee      	bhi.n	8001b06 <HAL_InitTick+0xa>
 8001b28:	4602      	mov	r2, r0
 8001b2a:	4629      	mov	r1, r5
 8001b2c:	f04f 30ff 	mov.w	r0, #4294967295	; 0xffffffff
 8001b30:	f000 ff80 	bl	8002a34 <HAL_NVIC_SetPriority>
 8001b34:	4b03      	ldr	r3, [pc, #12]	; (8001b44 <HAL_InitTick+0x48>)
 8001b36:	4620      	mov	r0, r4
 8001b38:	601d      	str	r5, [r3, #0]
 8001b3a:	e7e5      	b.n	8001b08 <HAL_InitTick+0xc>
 8001b3c:	2000000c 	.word	0x2000000c
 8001b40:	20000008 	.word	0x20000008
 8001b44:	20000010 	.word	0x20000010

08001b48 <HAL_Init>:
 8001b48:	b510      	push	{r4, lr}
 8001b4a:	2003      	movs	r0, #3
 8001b4c:	f000 ff60 	bl	8002a10 <HAL_NVIC_SetPriorityGrouping>
 8001b50:	2000      	movs	r0, #0
 8001b52:	f7ff ffd3 	bl	8001afc <HAL_InitTick>
 8001b56:	4604      	mov	r4, r0
 8001b58:	b918      	cbnz	r0, 8001b62 <HAL_Init+0x1a>
 8001b5a:	f7ff fbc3 	bl	80012e4 <HAL_MspInit>
 8001b5e:	4620      	mov	r0, r4
 8001b60:	bd10      	pop	{r4, pc}
 8001b62:	2401      	movs	r4, #1
 8001b64:	e7fb      	b.n	8001b5e <HAL_Init+0x16>
	...

08001b68 <HAL_IncTick>:
 8001b68:	4a03      	ldr	r2, [pc, #12]	; (8001b78 <HAL_IncTick+0x10>)
 8001b6a:	4b04      	ldr	r3, [pc, #16]	; (8001b7c <HAL_IncTick+0x14>)
 8001b6c:	6811      	ldr	r1, [r2, #0]
 8001b6e:	781b      	ldrb	r3, [r3, #0]
 8001b70:	440b      	add	r3, r1
 8001b72:	6013      	str	r3, [r2, #0]
 8001b74:	4770      	bx	lr
 8001b76:	bf00      	nop
 8001b78:	20004e48 	.word	0x20004e48
 8001b7c:	2000000c 	.word	0x2000000c

08001b80 <HAL_GetTick>:
 8001b80:	4b01      	ldr	r3, [pc, #4]	; (8001b88 <HAL_GetTick+0x8>)
 8001b82:	6818      	ldr	r0, [r3, #0]
 8001b84:	4770      	bx	lr
 8001b86:	bf00      	nop
 8001b88:	20004e48 	.word	0x20004e48

08001b8c <HAL_Delay>:
 8001b8c:	b538      	push	{r3, r4, r5, lr}
 8001b8e:	4604      	mov	r4, r0
 8001b90:	f7ff fff6 	bl	8001b80 <HAL_GetTick>
 8001b94:	1c63      	adds	r3, r4, #1
 8001b96:	bf1c      	itt	ne
 8001b98:	4b05      	ldrne	r3, [pc, #20]	; (8001bb0 <HAL_Delay+0x24>)
 8001b9a:	781b      	ldrbne	r3, [r3, #0]
 8001b9c:	4605      	mov	r5, r0
 8001b9e:	bf18      	it	ne
 8001ba0:	18e4      	addne	r4, r4, r3
 8001ba2:	f7ff ffed 	bl	8001b80 <HAL_GetTick>
 8001ba6:	1b43      	subs	r3, r0, r5
 8001ba8:	42a3      	cmp	r3, r4
 8001baa:	d3fa      	bcc.n	8001ba2 <HAL_Delay+0x16>
 8001bac:	bd38      	pop	{r3, r4, r5, pc}
 8001bae:	bf00      	nop
 8001bb0:	2000000c 	.word	0x2000000c

08001bb4 <LL_ADC_SetChannelSamplingTime>:
 8001bb4:	b530      	push	{r4, r5, lr}
 8001bb6:	0dcc      	lsrs	r4, r1, #23
 8001bb8:	f004 0404 	and.w	r4, r4, #4
 8001bbc:	3014      	adds	r0, #20
 8001bbe:	f3c1 5104 	ubfx	r1, r1, #20, #5
 8001bc2:	5823      	ldr	r3, [r4, r0]
 8001bc4:	2507      	movs	r5, #7
 8001bc6:	408d      	lsls	r5, r1
 8001bc8:	ea23 0305 	bic.w	r3, r3, r5
 8001bcc:	fa02 f101 	lsl.w	r1, r2, r1
 8001bd0:	430b      	orrs	r3, r1
 8001bd2:	5023      	str	r3, [r4, r0]
 8001bd4:	bd30      	pop	{r4, r5, pc}

08001bd6 <LL_ADC_REG_IsConversionOngoing>:
 8001bd6:	6880      	ldr	r0, [r0, #8]
 8001bd8:	f3c0 0080 	ubfx	r0, r0, #2, #1
 8001bdc:	4770      	bx	lr
	...

08001be0 <HAL_ADC_Init>:
 8001be0:	b537      	push	{r0, r1, r2, r4, r5, lr}
 8001be2:	2300      	movs	r3, #0
 8001be4:	9301      	str	r3, [sp, #4]
 8001be6:	4604      	mov	r4, r0
 8001be8:	2800      	cmp	r0, #0
 8001bea:	f000 80c3 	beq.w	8001d74 <HAL_ADC_Init+0x194>
 8001bee:	6d45      	ldr	r5, [r0, #84]	; 0x54
 8001bf0:	b925      	cbnz	r5, 8001bfc <HAL_ADC_Init+0x1c>
 8001bf2:	f7ff fb8f 	bl	8001314 <HAL_ADC_MspInit>
 8001bf6:	65a5      	str	r5, [r4, #88]	; 0x58
 8001bf8:	f884 5050 	strb.w	r5, [r4, #80]	; 0x50
 8001bfc:	6820      	ldr	r0, [r4, #0]
 8001bfe:	6883      	ldr	r3, [r0, #8]
 8001c00:	009b      	lsls	r3, r3, #2
 8001c02:	bf41      	itttt	mi
 8001c04:	6883      	ldrmi	r3, [r0, #8]
 8001c06:	f023 4320 	bicmi.w	r3, r3, #2684354560	; 0xa0000000
 8001c0a:	f023 033f 	bicmi.w	r3, r3, #63	; 0x3f
 8001c0e:	6083      	strmi	r3, [r0, #8]
 8001c10:	6883      	ldr	r3, [r0, #8]
 8001c12:	00dd      	lsls	r5, r3, #3
 8001c14:	f140 808e 	bpl.w	8001d34 <HAL_ADC_Init+0x154>
 8001c18:	6883      	ldr	r3, [r0, #8]
 8001c1a:	00d9      	lsls	r1, r3, #3
 8001c1c:	f100 80a1 	bmi.w	8001d62 <HAL_ADC_Init+0x182>
 8001c20:	6d63      	ldr	r3, [r4, #84]	; 0x54
 8001c22:	f043 0310 	orr.w	r3, r3, #16
 8001c26:	6563      	str	r3, [r4, #84]	; 0x54
 8001c28:	6da3      	ldr	r3, [r4, #88]	; 0x58
 8001c2a:	f043 0301 	orr.w	r3, r3, #1
 8001c2e:	65a3      	str	r3, [r4, #88]	; 0x58
 8001c30:	2101      	movs	r1, #1
 8001c32:	f7ff ffd0 	bl	8001bd6 <LL_ADC_REG_IsConversionOngoing>
 8001c36:	6d63      	ldr	r3, [r4, #84]	; 0x54
 8001c38:	f003 0310 	and.w	r3, r3, #16
 8001c3c:	4303      	orrs	r3, r0
 8001c3e:	6d63      	ldr	r3, [r4, #84]	; 0x54
 8001c40:	f040 8095 	bne.w	8001d6e <HAL_ADC_Init+0x18e>
 8001c44:	f423 7381 	bic.w	r3, r3, #258	; 0x102
 8001c48:	f043 0302 	orr.w	r3, r3, #2
 8001c4c:	6820      	ldr	r0, [r4, #0]
 8001c4e:	6563      	str	r3, [r4, #84]	; 0x54
 8001c50:	6883      	ldr	r3, [r0, #8]
 8001c52:	07da      	lsls	r2, r3, #31
 8001c54:	d40e      	bmi.n	8001c74 <HAL_ADC_Init+0x94>
 8001c56:	4b48      	ldr	r3, [pc, #288]	; (8001d78 <HAL_ADC_Init+0x198>)
 8001c58:	689a      	ldr	r2, [r3, #8]
 8001c5a:	f503 7380 	add.w	r3, r3, #256	; 0x100
 8001c5e:	689b      	ldr	r3, [r3, #8]
 8001c60:	4313      	orrs	r3, r2
 8001c62:	07db      	lsls	r3, r3, #31
 8001c64:	d406      	bmi.n	8001c74 <HAL_ADC_Init+0x94>
 8001c66:	4a45      	ldr	r2, [pc, #276]	; (8001d7c <HAL_ADC_Init+0x19c>)
 8001c68:	6865      	ldr	r5, [r4, #4]
 8001c6a:	6893      	ldr	r3, [r2, #8]
 8001c6c:	f423 137c 	bic.w	r3, r3, #4128768	; 0x3f0000
 8001c70:	432b      	orrs	r3, r5
 8001c72:	6093      	str	r3, [r2, #8]
 8001c74:	68e5      	ldr	r5, [r4, #12]
 8001c76:	6b63      	ldr	r3, [r4, #52]	; 0x34
 8001c78:	f894 2020 	ldrb.w	r2, [r4, #32]
 8001c7c:	432b      	orrs	r3, r5
 8001c7e:	68a5      	ldr	r5, [r4, #8]
 8001c80:	432b      	orrs	r3, r5
 8001c82:	7e65      	ldrb	r5, [r4, #25]
 8001c84:	2a01      	cmp	r2, #1
 8001c86:	ea43 3345 	orr.w	r3, r3, r5, lsl #13
 8001c8a:	ea43 4302 	orr.w	r3, r3, r2, lsl #16
 8001c8e:	bf02      	ittt	eq
 8001c90:	6a62      	ldreq	r2, [r4, #36]	; 0x24
 8001c92:	f102 32ff 	addeq.w	r2, r2, #4294967295	; 0xffffffff
 8001c96:	ea43 4342 	orreq.w	r3, r3, r2, lsl #17
 8001c9a:	6aa2      	ldr	r2, [r4, #40]	; 0x28
 8001c9c:	b122      	cbz	r2, 8001ca8 <HAL_ADC_Init+0xc8>
 8001c9e:	6ae5      	ldr	r5, [r4, #44]	; 0x2c
 8001ca0:	f402 7270 	and.w	r2, r2, #960	; 0x3c0
 8001ca4:	432a      	orrs	r2, r5
 8001ca6:	4313      	orrs	r3, r2
 8001ca8:	68c5      	ldr	r5, [r0, #12]
 8001caa:	4a35      	ldr	r2, [pc, #212]	; (8001d80 <HAL_ADC_Init+0x1a0>)
 8001cac:	402a      	ands	r2, r5
 8001cae:	4313      	orrs	r3, r2
 8001cb0:	60c3      	str	r3, [r0, #12]
 8001cb2:	f7ff ff90 	bl	8001bd6 <LL_ADC_REG_IsConversionOngoing>
 8001cb6:	6823      	ldr	r3, [r4, #0]
 8001cb8:	689a      	ldr	r2, [r3, #8]
 8001cba:	f002 0208 	and.w	r2, r2, #8
 8001cbe:	4302      	orrs	r2, r0
 8001cc0:	d120      	bne.n	8001d04 <HAL_ADC_Init+0x124>
 8001cc2:	68d8      	ldr	r0, [r3, #12]
 8001cc4:	f894 2030 	ldrb.w	r2, [r4, #48]	; 0x30
 8001cc8:	7e25      	ldrb	r5, [r4, #24]
 8001cca:	0052      	lsls	r2, r2, #1
 8001ccc:	f420 4080 	bic.w	r0, r0, #16384	; 0x4000
 8001cd0:	ea42 3285 	orr.w	r2, r2, r5, lsl #14
 8001cd4:	f020 0002 	bic.w	r0, r0, #2
 8001cd8:	4302      	orrs	r2, r0
 8001cda:	60da      	str	r2, [r3, #12]
 8001cdc:	f894 2038 	ldrb.w	r2, [r4, #56]	; 0x38
 8001ce0:	2a01      	cmp	r2, #1
 8001ce2:	d140      	bne.n	8001d66 <HAL_ADC_Init+0x186>
 8001ce4:	e9d4 250f 	ldrd	r2, r5, [r4, #60]	; 0x3c
 8001ce8:	6918      	ldr	r0, [r3, #16]
 8001cea:	f420 60ff 	bic.w	r0, r0, #2040	; 0x7f8
 8001cee:	f020 0004 	bic.w	r0, r0, #4
 8001cf2:	432a      	orrs	r2, r5
 8001cf4:	4302      	orrs	r2, r0
 8001cf6:	6c60      	ldr	r0, [r4, #68]	; 0x44
 8001cf8:	4302      	orrs	r2, r0
 8001cfa:	6ca0      	ldr	r0, [r4, #72]	; 0x48
 8001cfc:	4302      	orrs	r2, r0
 8001cfe:	f042 0201 	orr.w	r2, r2, #1
 8001d02:	611a      	str	r2, [r3, #16]
 8001d04:	6922      	ldr	r2, [r4, #16]
 8001d06:	2a01      	cmp	r2, #1
 8001d08:	bf05      	ittet	eq
 8001d0a:	6b18      	ldreq	r0, [r3, #48]	; 0x30
 8001d0c:	69e2      	ldreq	r2, [r4, #28]
 8001d0e:	6b1a      	ldrne	r2, [r3, #48]	; 0x30
 8001d10:	f102 32ff 	addeq.w	r2, r2, #4294967295	; 0xffffffff
 8001d14:	bf06      	itte	eq
 8001d16:	f020 000f 	biceq.w	r0, r0, #15
 8001d1a:	4302      	orreq	r2, r0
 8001d1c:	f022 020f 	bicne.w	r2, r2, #15
 8001d20:	631a      	str	r2, [r3, #48]	; 0x30
 8001d22:	6d63      	ldr	r3, [r4, #84]	; 0x54
 8001d24:	f023 0303 	bic.w	r3, r3, #3
 8001d28:	f043 0301 	orr.w	r3, r3, #1
 8001d2c:	6563      	str	r3, [r4, #84]	; 0x54
 8001d2e:	4608      	mov	r0, r1
 8001d30:	b003      	add	sp, #12
 8001d32:	bd30      	pop	{r4, r5, pc}
 8001d34:	6883      	ldr	r3, [r0, #8]
 8001d36:	4a13      	ldr	r2, [pc, #76]	; (8001d84 <HAL_ADC_Init+0x1a4>)
 8001d38:	f023 4310 	bic.w	r3, r3, #2415919104	; 0x90000000
 8001d3c:	f023 033f 	bic.w	r3, r3, #63	; 0x3f
 8001d40:	f043 5380 	orr.w	r3, r3, #268435456	; 0x10000000
 8001d44:	6083      	str	r3, [r0, #8]
 8001d46:	4b10      	ldr	r3, [pc, #64]	; (8001d88 <HAL_ADC_Init+0x1a8>)
 8001d48:	681b      	ldr	r3, [r3, #0]
 8001d4a:	fbb3 f3f2 	udiv	r3, r3, r2
 8001d4e:	3301      	adds	r3, #1
 8001d50:	005b      	lsls	r3, r3, #1
 8001d52:	9301      	str	r3, [sp, #4]
 8001d54:	9b01      	ldr	r3, [sp, #4]
 8001d56:	2b00      	cmp	r3, #0
 8001d58:	f43f af5e 	beq.w	8001c18 <HAL_ADC_Init+0x38>
 8001d5c:	9b01      	ldr	r3, [sp, #4]
 8001d5e:	3b01      	subs	r3, #1
 8001d60:	e7f7      	b.n	8001d52 <HAL_ADC_Init+0x172>
 8001d62:	2100      	movs	r1, #0
 8001d64:	e765      	b.n	8001c32 <HAL_ADC_Init+0x52>
 8001d66:	691a      	ldr	r2, [r3, #16]
 8001d68:	f022 0201 	bic.w	r2, r2, #1
 8001d6c:	e7c9      	b.n	8001d02 <HAL_ADC_Init+0x122>
 8001d6e:	f043 0310 	orr.w	r3, r3, #16
 8001d72:	6563      	str	r3, [r4, #84]	; 0x54
 8001d74:	2101      	movs	r1, #1
 8001d76:	e7da      	b.n	8001d2e <HAL_ADC_Init+0x14e>
 8001d78:	50040000 	.word	0x50040000
 8001d7c:	50040300 	.word	0x50040300
 8001d80:	fff0c007 	.word	0xfff0c007
 8001d84:	00030d40 	.word	0x00030d40
 8001d88:	20000008 	.word	0x20000008

08001d8c <HAL_ADC_GetValue>:
 8001d8c:	6803      	ldr	r3, [r0, #0]
 8001d8e:	6c18      	ldr	r0, [r3, #64]	; 0x40
 8001d90:	4770      	bx	lr

08001d92 <HAL_ADC_ConvCpltCallback>:
 8001d92:	4770      	bx	lr

08001d94 <HAL_ADC_ConvHalfCpltCallback>:
 8001d94:	4770      	bx	lr

08001d96 <ADC_DMAHalfConvCplt>:
 8001d96:	b508      	push	{r3, lr}
 8001d98:	6a80      	ldr	r0, [r0, #40]	; 0x28
 8001d9a:	f7ff fffb 	bl	8001d94 <HAL_ADC_ConvHalfCpltCallback>
 8001d9e:	bd08      	pop	{r3, pc}

08001da0 <HAL_ADC_LevelOutOfWindowCallback>:
 8001da0:	4770      	bx	lr

08001da2 <HAL_ADC_ErrorCallback>:
 8001da2:	4770      	bx	lr

08001da4 <HAL_ADC_IRQHandler>:
 8001da4:	6803      	ldr	r3, [r0, #0]
 8001da6:	e92d 41f0 	stmdb	sp!, {r4, r5, r6, r7, r8, lr}
 8001daa:	f8df 823c 	ldr.w	r8, [pc, #572]	; 8001fe8 <HAL_ADC_IRQHandler+0x244>
 8001dae:	681d      	ldr	r5, [r3, #0]
 8001db0:	685e      	ldr	r6, [r3, #4]
 8001db2:	f8d8 7008 	ldr.w	r7, [r8, #8]
 8001db6:	07ab      	lsls	r3, r5, #30
 8001db8:	4604      	mov	r4, r0
 8001dba:	f007 071f 	and.w	r7, r7, #31
 8001dbe:	d50e      	bpl.n	8001dde <HAL_ADC_IRQHandler+0x3a>
 8001dc0:	07b0      	lsls	r0, r6, #30
 8001dc2:	d50c      	bpl.n	8001dde <HAL_ADC_IRQHandler+0x3a>
 8001dc4:	6d63      	ldr	r3, [r4, #84]	; 0x54
 8001dc6:	06d9      	lsls	r1, r3, #27
 8001dc8:	bf5e      	ittt	pl
 8001dca:	6d63      	ldrpl	r3, [r4, #84]	; 0x54
 8001dcc:	f443 6300 	orrpl.w	r3, r3, #2048	; 0x800
 8001dd0:	6563      	strpl	r3, [r4, #84]	; 0x54
 8001dd2:	4620      	mov	r0, r4
 8001dd4:	f000 fdb8 	bl	8002948 <HAL_ADCEx_EndOfSamplingCallback>
 8001dd8:	6823      	ldr	r3, [r4, #0]
 8001dda:	2202      	movs	r2, #2
 8001ddc:	601a      	str	r2, [r3, #0]
 8001dde:	076a      	lsls	r2, r5, #29
 8001de0:	d501      	bpl.n	8001de6 <HAL_ADC_IRQHandler+0x42>
 8001de2:	0773      	lsls	r3, r6, #29
 8001de4:	d403      	bmi.n	8001dee <HAL_ADC_IRQHandler+0x4a>
 8001de6:	0728      	lsls	r0, r5, #28
 8001de8:	d532      	bpl.n	8001e50 <HAL_ADC_IRQHandler+0xac>
 8001dea:	0731      	lsls	r1, r6, #28
 8001dec:	d530      	bpl.n	8001e50 <HAL_ADC_IRQHandler+0xac>
 8001dee:	6d63      	ldr	r3, [r4, #84]	; 0x54
 8001df0:	6820      	ldr	r0, [r4, #0]
 8001df2:	06da      	lsls	r2, r3, #27
 8001df4:	bf5e      	ittt	pl
 8001df6:	6d63      	ldrpl	r3, [r4, #84]	; 0x54
 8001df8:	f443 7300 	orrpl.w	r3, r3, #512	; 0x200
 8001dfc:	6563      	strpl	r3, [r4, #84]	; 0x54
 8001dfe:	68c3      	ldr	r3, [r0, #12]
 8001e00:	f413 6f40 	tst.w	r3, #3072	; 0xc00
 8001e04:	d11e      	bne.n	8001e44 <HAL_ADC_IRQHandler+0xa0>
 8001e06:	4b76      	ldr	r3, [pc, #472]	; (8001fe0 <HAL_ADC_IRQHandler+0x23c>)
 8001e08:	4298      	cmp	r0, r3
 8001e0a:	f000 80db 	beq.w	8001fc4 <HAL_ADC_IRQHandler+0x220>
 8001e0e:	68c3      	ldr	r3, [r0, #12]
 8001e10:	049b      	lsls	r3, r3, #18
 8001e12:	d417      	bmi.n	8001e44 <HAL_ADC_IRQHandler+0xa0>
 8001e14:	6803      	ldr	r3, [r0, #0]
 8001e16:	0719      	lsls	r1, r3, #28
 8001e18:	d514      	bpl.n	8001e44 <HAL_ADC_IRQHandler+0xa0>
 8001e1a:	f7ff fedc 	bl	8001bd6 <LL_ADC_REG_IsConversionOngoing>
 8001e1e:	2800      	cmp	r0, #0
 8001e20:	f040 80b1 	bne.w	8001f86 <HAL_ADC_IRQHandler+0x1e2>
 8001e24:	6822      	ldr	r2, [r4, #0]
 8001e26:	6853      	ldr	r3, [r2, #4]
 8001e28:	f023 030c 	bic.w	r3, r3, #12
 8001e2c:	6053      	str	r3, [r2, #4]
 8001e2e:	6d63      	ldr	r3, [r4, #84]	; 0x54
 8001e30:	f423 7380 	bic.w	r3, r3, #256	; 0x100
 8001e34:	6563      	str	r3, [r4, #84]	; 0x54
 8001e36:	6d63      	ldr	r3, [r4, #84]	; 0x54
 8001e38:	04da      	lsls	r2, r3, #19
 8001e3a:	d403      	bmi.n	8001e44 <HAL_ADC_IRQHandler+0xa0>
 8001e3c:	6d63      	ldr	r3, [r4, #84]	; 0x54
 8001e3e:	f043 0301 	orr.w	r3, r3, #1
 8001e42:	6563      	str	r3, [r4, #84]	; 0x54
 8001e44:	4620      	mov	r0, r4
 8001e46:	f7ff ffa4 	bl	8001d92 <HAL_ADC_ConvCpltCallback>
 8001e4a:	6823      	ldr	r3, [r4, #0]
 8001e4c:	220c      	movs	r2, #12
 8001e4e:	601a      	str	r2, [r3, #0]
 8001e50:	06ab      	lsls	r3, r5, #26
 8001e52:	d501      	bpl.n	8001e58 <HAL_ADC_IRQHandler+0xb4>
 8001e54:	06b0      	lsls	r0, r6, #26
 8001e56:	d403      	bmi.n	8001e60 <HAL_ADC_IRQHandler+0xbc>
 8001e58:	0669      	lsls	r1, r5, #25
 8001e5a:	d538      	bpl.n	8001ece <HAL_ADC_IRQHandler+0x12a>
 8001e5c:	0672      	lsls	r2, r6, #25
 8001e5e:	d536      	bpl.n	8001ece <HAL_ADC_IRQHandler+0x12a>
 8001e60:	6d63      	ldr	r3, [r4, #84]	; 0x54
 8001e62:	4a5f      	ldr	r2, [pc, #380]	; (8001fe0 <HAL_ADC_IRQHandler+0x23c>)
 8001e64:	06db      	lsls	r3, r3, #27
 8001e66:	bf5e      	ittt	pl
 8001e68:	6d63      	ldrpl	r3, [r4, #84]	; 0x54
 8001e6a:	f443 5300 	orrpl.w	r3, r3, #8192	; 0x2000
 8001e6e:	6563      	strpl	r3, [r4, #84]	; 0x54
 8001e70:	6823      	ldr	r3, [r4, #0]
 8001e72:	6cd8      	ldr	r0, [r3, #76]	; 0x4c
 8001e74:	68d9      	ldr	r1, [r3, #12]
 8001e76:	4293      	cmp	r3, r2
 8001e78:	f000 00c0 	and.w	r0, r0, #192	; 0xc0
 8001e7c:	d104      	bne.n	8001e88 <HAL_ADC_IRQHandler+0xe4>
 8001e7e:	b11f      	cbz	r7, 8001e88 <HAL_ADC_IRQHandler+0xe4>
 8001e80:	1fba      	subs	r2, r7, #6
 8001e82:	2a01      	cmp	r2, #1
 8001e84:	f200 8088 	bhi.w	8001f98 <HAL_ADC_IRQHandler+0x1f4>
 8001e88:	68da      	ldr	r2, [r3, #12]
 8001e8a:	b9d0      	cbnz	r0, 8001ec2 <HAL_ADC_IRQHandler+0x11e>
 8001e8c:	0190      	lsls	r0, r2, #6
 8001e8e:	d505      	bpl.n	8001e9c <HAL_ADC_IRQHandler+0xf8>
 8001e90:	f402 5000 	and.w	r0, r2, #8192	; 0x2000
 8001e94:	f401 6140 	and.w	r1, r1, #3072	; 0xc00
 8001e98:	4301      	orrs	r1, r0
 8001e9a:	d112      	bne.n	8001ec2 <HAL_ADC_IRQHandler+0x11e>
 8001e9c:	6819      	ldr	r1, [r3, #0]
 8001e9e:	0648      	lsls	r0, r1, #25
 8001ea0:	d50f      	bpl.n	8001ec2 <HAL_ADC_IRQHandler+0x11e>
 8001ea2:	0291      	lsls	r1, r2, #10
 8001ea4:	d40d      	bmi.n	8001ec2 <HAL_ADC_IRQHandler+0x11e>
 8001ea6:	689a      	ldr	r2, [r3, #8]
 8001ea8:	0712      	lsls	r2, r2, #28
 8001eaa:	d478      	bmi.n	8001f9e <HAL_ADC_IRQHandler+0x1fa>
 8001eac:	685a      	ldr	r2, [r3, #4]
 8001eae:	f022 0260 	bic.w	r2, r2, #96	; 0x60
 8001eb2:	605a      	str	r2, [r3, #4]
 8001eb4:	6d63      	ldr	r3, [r4, #84]	; 0x54
 8001eb6:	f423 5380 	bic.w	r3, r3, #4096	; 0x1000
 8001eba:	6563      	str	r3, [r4, #84]	; 0x54
 8001ebc:	6d63      	ldr	r3, [r4, #84]	; 0x54
 8001ebe:	05d8      	lsls	r0, r3, #23
 8001ec0:	d576      	bpl.n	8001fb0 <HAL_ADC_IRQHandler+0x20c>
 8001ec2:	4620      	mov	r0, r4
 8001ec4:	f000 fd3c 	bl	8002940 <HAL_ADCEx_InjectedConvCpltCallback>
 8001ec8:	6823      	ldr	r3, [r4, #0]
 8001eca:	2260      	movs	r2, #96	; 0x60
 8001ecc:	601a      	str	r2, [r3, #0]
 8001ece:	0629      	lsls	r1, r5, #24
 8001ed0:	d50b      	bpl.n	8001eea <HAL_ADC_IRQHandler+0x146>
 8001ed2:	0632      	lsls	r2, r6, #24
 8001ed4:	d509      	bpl.n	8001eea <HAL_ADC_IRQHandler+0x146>
 8001ed6:	6d63      	ldr	r3, [r4, #84]	; 0x54
 8001ed8:	f443 3380 	orr.w	r3, r3, #65536	; 0x10000
 8001edc:	6563      	str	r3, [r4, #84]	; 0x54
 8001ede:	4620      	mov	r0, r4
 8001ee0:	f7ff ff5e 	bl	8001da0 <HAL_ADC_LevelOutOfWindowCallback>
 8001ee4:	6823      	ldr	r3, [r4, #0]
 8001ee6:	2280      	movs	r2, #128	; 0x80
 8001ee8:	601a      	str	r2, [r3, #0]
 8001eea:	05eb      	lsls	r3, r5, #23
 8001eec:	d50c      	bpl.n	8001f08 <HAL_ADC_IRQHandler+0x164>
 8001eee:	05f0      	lsls	r0, r6, #23
 8001ef0:	d50a      	bpl.n	8001f08 <HAL_ADC_IRQHandler+0x164>
 8001ef2:	6d63      	ldr	r3, [r4, #84]	; 0x54
 8001ef4:	f443 3300 	orr.w	r3, r3, #131072	; 0x20000
 8001ef8:	6563      	str	r3, [r4, #84]	; 0x54
 8001efa:	4620      	mov	r0, r4
 8001efc:	f000 fd22 	bl	8002944 <HAL_ADCEx_LevelOutOfWindow2Callback>
 8001f00:	6823      	ldr	r3, [r4, #0]
 8001f02:	f44f 7280 	mov.w	r2, #256	; 0x100
 8001f06:	601a      	str	r2, [r3, #0]
 8001f08:	05a9      	lsls	r1, r5, #22
 8001f0a:	d50c      	bpl.n	8001f26 <HAL_ADC_IRQHandler+0x182>
 8001f0c:	05b2      	lsls	r2, r6, #22
 8001f0e:	d50a      	bpl.n	8001f26 <HAL_ADC_IRQHandler+0x182>
 8001f10:	6d63      	ldr	r3, [r4, #84]	; 0x54
 8001f12:	f443 2380 	orr.w	r3, r3, #262144	; 0x40000
 8001f16:	6563      	str	r3, [r4, #84]	; 0x54
 8001f18:	4620      	mov	r0, r4
 8001f1a:	f000 fd14 	bl	8002946 <HAL_ADCEx_LevelOutOfWindow3Callback>
 8001f1e:	6823      	ldr	r3, [r4, #0]
 8001f20:	f44f 7200 	mov.w	r2, #512	; 0x200
 8001f24:	601a      	str	r2, [r3, #0]
 8001f26:	06eb      	lsls	r3, r5, #27
 8001f28:	d518      	bpl.n	8001f5c <HAL_ADC_IRQHandler+0x1b8>
 8001f2a:	06f0      	lsls	r0, r6, #27
 8001f2c:	d516      	bpl.n	8001f5c <HAL_ADC_IRQHandler+0x1b8>
 8001f2e:	6b63      	ldr	r3, [r4, #52]	; 0x34
 8001f30:	b133      	cbz	r3, 8001f40 <HAL_ADC_IRQHandler+0x19c>
 8001f32:	2f00      	cmp	r7, #0
 8001f34:	d041      	beq.n	8001fba <HAL_ADC_IRQHandler+0x216>
 8001f36:	f8d8 3008 	ldr.w	r3, [r8, #8]
 8001f3a:	f413 4f60 	tst.w	r3, #57344	; 0xe000
 8001f3e:	d00a      	beq.n	8001f56 <HAL_ADC_IRQHandler+0x1b2>
 8001f40:	6d63      	ldr	r3, [r4, #84]	; 0x54
 8001f42:	f443 6380 	orr.w	r3, r3, #1024	; 0x400
 8001f46:	6563      	str	r3, [r4, #84]	; 0x54
 8001f48:	6da3      	ldr	r3, [r4, #88]	; 0x58
 8001f4a:	f043 0302 	orr.w	r3, r3, #2
 8001f4e:	65a3      	str	r3, [r4, #88]	; 0x58
 8001f50:	4620      	mov	r0, r4
 8001f52:	f7ff ff26 	bl	8001da2 <HAL_ADC_ErrorCallback>
 8001f56:	6823      	ldr	r3, [r4, #0]
 8001f58:	2210      	movs	r2, #16
 8001f5a:	601a      	str	r2, [r3, #0]
 8001f5c:	0569      	lsls	r1, r5, #21
 8001f5e:	d53c      	bpl.n	8001fda <HAL_ADC_IRQHandler+0x236>
 8001f60:	0572      	lsls	r2, r6, #21
 8001f62:	d53a      	bpl.n	8001fda <HAL_ADC_IRQHandler+0x236>
 8001f64:	6d63      	ldr	r3, [r4, #84]	; 0x54
 8001f66:	f443 4380 	orr.w	r3, r3, #16384	; 0x4000
 8001f6a:	6563      	str	r3, [r4, #84]	; 0x54
 8001f6c:	6da3      	ldr	r3, [r4, #88]	; 0x58
 8001f6e:	f043 0308 	orr.w	r3, r3, #8
 8001f72:	65a3      	str	r3, [r4, #88]	; 0x58
 8001f74:	6823      	ldr	r3, [r4, #0]
 8001f76:	f44f 6280 	mov.w	r2, #1024	; 0x400
 8001f7a:	4620      	mov	r0, r4
 8001f7c:	601a      	str	r2, [r3, #0]
 8001f7e:	e8bd 41f0 	ldmia.w	sp!, {r4, r5, r6, r7, r8, lr}
 8001f82:	f000 bcde 	b.w	8002942 <HAL_ADCEx_InjectedQueueOverflowCallback>
 8001f86:	6d63      	ldr	r3, [r4, #84]	; 0x54
 8001f88:	f043 0310 	orr.w	r3, r3, #16
 8001f8c:	6563      	str	r3, [r4, #84]	; 0x54
 8001f8e:	6da3      	ldr	r3, [r4, #88]	; 0x58
 8001f90:	f043 0301 	orr.w	r3, r3, #1
 8001f94:	65a3      	str	r3, [r4, #88]	; 0x58
 8001f96:	e755      	b.n	8001e44 <HAL_ADC_IRQHandler+0xa0>
 8001f98:	4a12      	ldr	r2, [pc, #72]	; (8001fe4 <HAL_ADC_IRQHandler+0x240>)
 8001f9a:	68d2      	ldr	r2, [r2, #12]
 8001f9c:	e775      	b.n	8001e8a <HAL_ADC_IRQHandler+0xe6>
 8001f9e:	6d63      	ldr	r3, [r4, #84]	; 0x54
 8001fa0:	f043 0310 	orr.w	r3, r3, #16
 8001fa4:	6563      	str	r3, [r4, #84]	; 0x54
 8001fa6:	6da3      	ldr	r3, [r4, #88]	; 0x58
 8001fa8:	f043 0301 	orr.w	r3, r3, #1
 8001fac:	65a3      	str	r3, [r4, #88]	; 0x58
 8001fae:	e788      	b.n	8001ec2 <HAL_ADC_IRQHandler+0x11e>
 8001fb0:	6d63      	ldr	r3, [r4, #84]	; 0x54
 8001fb2:	f043 0301 	orr.w	r3, r3, #1
 8001fb6:	6563      	str	r3, [r4, #84]	; 0x54
 8001fb8:	e783      	b.n	8001ec2 <HAL_ADC_IRQHandler+0x11e>
 8001fba:	6823      	ldr	r3, [r4, #0]
 8001fbc:	68db      	ldr	r3, [r3, #12]
 8001fbe:	f013 0f01 	tst.w	r3, #1
 8001fc2:	e7bc      	b.n	8001f3e <HAL_ADC_IRQHandler+0x19a>
 8001fc4:	2f09      	cmp	r7, #9
 8001fc6:	d805      	bhi.n	8001fd4 <HAL_ADC_IRQHandler+0x230>
 8001fc8:	f240 2321 	movw	r3, #545	; 0x221
 8001fcc:	40fb      	lsrs	r3, r7
 8001fce:	07db      	lsls	r3, r3, #31
 8001fd0:	f53f af1d 	bmi.w	8001e0e <HAL_ADC_IRQHandler+0x6a>
 8001fd4:	4b03      	ldr	r3, [pc, #12]	; (8001fe4 <HAL_ADC_IRQHandler+0x240>)
 8001fd6:	68db      	ldr	r3, [r3, #12]
 8001fd8:	e71a      	b.n	8001e10 <HAL_ADC_IRQHandler+0x6c>
 8001fda:	e8bd 81f0 	ldmia.w	sp!, {r4, r5, r6, r7, r8, pc}
 8001fde:	bf00      	nop
 8001fe0:	50040100 	.word	0x50040100
 8001fe4:	50040000 	.word	0x50040000
 8001fe8:	50040300 	.word	0x50040300

08001fec <ADC_DMAConvCplt>:
 8001fec:	6a83      	ldr	r3, [r0, #40]	; 0x28
 8001fee:	6d5a      	ldr	r2, [r3, #84]	; 0x54
 8001ff0:	f012 0f50 	tst.w	r2, #80	; 0x50
 8001ff4:	b510      	push	{r4, lr}
 8001ff6:	6d5a      	ldr	r2, [r3, #84]	; 0x54
 8001ff8:	d121      	bne.n	800203e <ADC_DMAConvCplt+0x52>
 8001ffa:	f442 7200 	orr.w	r2, r2, #512	; 0x200
 8001ffe:	655a      	str	r2, [r3, #84]	; 0x54
 8002000:	681a      	ldr	r2, [r3, #0]
 8002002:	6811      	ldr	r1, [r2, #0]
 8002004:	0708      	lsls	r0, r1, #28
 8002006:	d516      	bpl.n	8002036 <ADC_DMAConvCplt+0x4a>
 8002008:	68d1      	ldr	r1, [r2, #12]
 800200a:	f411 6f40 	tst.w	r1, #3072	; 0xc00
 800200e:	d10e      	bne.n	800202e <ADC_DMAConvCplt+0x42>
 8002010:	68d2      	ldr	r2, [r2, #12]
 8002012:	f412 5f00 	tst.w	r2, #8192	; 0x2000
 8002016:	d10a      	bne.n	800202e <ADC_DMAConvCplt+0x42>
 8002018:	6d5a      	ldr	r2, [r3, #84]	; 0x54
 800201a:	f422 7280 	bic.w	r2, r2, #256	; 0x100
 800201e:	655a      	str	r2, [r3, #84]	; 0x54
 8002020:	6d5a      	ldr	r2, [r3, #84]	; 0x54
 8002022:	04d1      	lsls	r1, r2, #19
 8002024:	bf5e      	ittt	pl
 8002026:	6d5a      	ldrpl	r2, [r3, #84]	; 0x54
 8002028:	f042 0201 	orrpl.w	r2, r2, #1
 800202c:	655a      	strpl	r2, [r3, #84]	; 0x54
 800202e:	4618      	mov	r0, r3
 8002030:	f7ff feaf 	bl	8001d92 <HAL_ADC_ConvCpltCallback>
 8002034:	bd10      	pop	{r4, pc}
 8002036:	68d2      	ldr	r2, [r2, #12]
 8002038:	f012 0f02 	tst.w	r2, #2
 800203c:	e7eb      	b.n	8002016 <ADC_DMAConvCplt+0x2a>
 800203e:	06d2      	lsls	r2, r2, #27
 8002040:	d503      	bpl.n	800204a <ADC_DMAConvCplt+0x5e>
 8002042:	4618      	mov	r0, r3
 8002044:	f7ff fead 	bl	8001da2 <HAL_ADC_ErrorCallback>
 8002048:	e7f4      	b.n	8002034 <ADC_DMAConvCplt+0x48>
 800204a:	6cdb      	ldr	r3, [r3, #76]	; 0x4c
 800204c:	e8bd 4010 	ldmia.w	sp!, {r4, lr}
 8002050:	6b5b      	ldr	r3, [r3, #52]	; 0x34
 8002052:	4718      	bx	r3

08002054 <ADC_DMAError>:
 8002054:	6a80      	ldr	r0, [r0, #40]	; 0x28
 8002056:	b508      	push	{r3, lr}
 8002058:	6d43      	ldr	r3, [r0, #84]	; 0x54
 800205a:	f043 0340 	orr.w	r3, r3, #64	; 0x40
 800205e:	6543      	str	r3, [r0, #84]	; 0x54
 8002060:	6d83      	ldr	r3, [r0, #88]	; 0x58
 8002062:	f043 0304 	orr.w	r3, r3, #4
 8002066:	6583      	str	r3, [r0, #88]	; 0x58
 8002068:	f7ff fe9b 	bl	8001da2 <HAL_ADC_ErrorCallback>
 800206c:	bd08      	pop	{r3, pc}
	...

08002070 <HAL_ADC_ConfigChannel>:
 8002070:	b5f7      	push	{r0, r1, r2, r4, r5, r6, r7, lr}
 8002072:	2300      	movs	r3, #0
 8002074:	9301      	str	r3, [sp, #4]
 8002076:	f890 3050 	ldrb.w	r3, [r0, #80]	; 0x50
 800207a:	2b01      	cmp	r3, #1
 800207c:	4605      	mov	r5, r0
 800207e:	460c      	mov	r4, r1
 8002080:	f000 81a5 	beq.w	80023ce <HAL_ADC_ConfigChannel+0x35e>
 8002084:	2301      	movs	r3, #1
 8002086:	f880 3050 	strb.w	r3, [r0, #80]	; 0x50
 800208a:	6800      	ldr	r0, [r0, #0]
 800208c:	f7ff fda3 	bl	8001bd6 <LL_ADC_REG_IsConversionOngoing>
 8002090:	2800      	cmp	r0, #0
 8002092:	f040 8196 	bne.w	80023c2 <HAL_ADC_ConfigChannel+0x352>
 8002096:	684b      	ldr	r3, [r1, #4]
 8002098:	2b05      	cmp	r3, #5
 800209a:	d809      	bhi.n	80020b0 <HAL_ADC_ConfigChannel+0x40>
 800209c:	3b02      	subs	r3, #2
 800209e:	2b03      	cmp	r3, #3
 80020a0:	f200 8094 	bhi.w	80021cc <HAL_ADC_ConfigChannel+0x15c>
 80020a4:	e8df f003 	tbb	[pc, r3]
 80020a8:	8f8d8b02 	.word	0x8f8d8b02
 80020ac:	230c      	movs	r3, #12
 80020ae:	6063      	str	r3, [r4, #4]
 80020b0:	6862      	ldr	r2, [r4, #4]
 80020b2:	6828      	ldr	r0, [r5, #0]
 80020b4:	6823      	ldr	r3, [r4, #0]
 80020b6:	0991      	lsrs	r1, r2, #6
 80020b8:	f001 010c 	and.w	r1, r1, #12
 80020bc:	f100 0730 	add.w	r7, r0, #48	; 0x30
 80020c0:	f002 021f 	and.w	r2, r2, #31
 80020c4:	59ce      	ldr	r6, [r1, r7]
 80020c6:	f04f 0c1f 	mov.w	ip, #31
 80020ca:	f3c3 6384 	ubfx	r3, r3, #26, #5
 80020ce:	4093      	lsls	r3, r2
 80020d0:	fa0c f202 	lsl.w	r2, ip, r2
 80020d4:	ea26 0202 	bic.w	r2, r6, r2
 80020d8:	4313      	orrs	r3, r2
 80020da:	51cb      	str	r3, [r1, r7]
 80020dc:	f7ff fd7b 	bl	8001bd6 <LL_ADC_REG_IsConversionOngoing>
 80020e0:	4601      	mov	r1, r0
 80020e2:	6828      	ldr	r0, [r5, #0]
 80020e4:	6882      	ldr	r2, [r0, #8]
 80020e6:	f002 0208 	and.w	r2, r2, #8
 80020ea:	430a      	orrs	r2, r1
 80020ec:	d124      	bne.n	8002138 <HAL_ADC_ConfigChannel+0xc8>
 80020ee:	68a3      	ldr	r3, [r4, #8]
 80020f0:	6821      	ldr	r1, [r4, #0]
 80020f2:	f1b3 4f00 	cmp.w	r3, #2147483648	; 0x80000000
 80020f6:	d16b      	bne.n	80021d0 <HAL_ADC_ConfigChannel+0x160>
 80020f8:	f7ff fd5c 	bl	8001bb4 <LL_ADC_SetChannelSamplingTime>
 80020fc:	682a      	ldr	r2, [r5, #0]
 80020fe:	6953      	ldr	r3, [r2, #20]
 8002100:	f043 4300 	orr.w	r3, r3, #2147483648	; 0x80000000
 8002104:	6153      	str	r3, [r2, #20]
 8002106:	6926      	ldr	r6, [r4, #16]
 8002108:	6828      	ldr	r0, [r5, #0]
 800210a:	6822      	ldr	r2, [r4, #0]
 800210c:	68c1      	ldr	r1, [r0, #12]
 800210e:	2e04      	cmp	r6, #4
 8002110:	f100 0360 	add.w	r3, r0, #96	; 0x60
 8002114:	d064      	beq.n	80021e0 <HAL_ADC_ConfigChannel+0x170>
 8002116:	f3c1 01c1 	ubfx	r1, r1, #3, #2
 800211a:	0048      	lsls	r0, r1, #1
 800211c:	6961      	ldr	r1, [r4, #20]
 800211e:	f853 7026 	ldr.w	r7, [r3, r6, lsl #2]
 8002122:	4081      	lsls	r1, r0
 8002124:	48ab      	ldr	r0, [pc, #684]	; (80023d4 <HAL_ADC_ConfigChannel+0x364>)
 8002126:	f002 42f8 	and.w	r2, r2, #2080374784	; 0x7c000000
 800212a:	4038      	ands	r0, r7
 800212c:	4310      	orrs	r0, r2
 800212e:	4301      	orrs	r1, r0
 8002130:	f041 4100 	orr.w	r1, r1, #2147483648	; 0x80000000
 8002134:	f843 1026 	str.w	r1, [r3, r6, lsl #2]
 8002138:	6828      	ldr	r0, [r5, #0]
 800213a:	6883      	ldr	r3, [r0, #8]
 800213c:	07d9      	lsls	r1, r3, #31
 800213e:	d433      	bmi.n	80021a8 <HAL_ADC_ConfigChannel+0x138>
 8002140:	68e7      	ldr	r7, [r4, #12]
 8002142:	6823      	ldr	r3, [r4, #0]
 8002144:	4aa4      	ldr	r2, [pc, #656]	; (80023d8 <HAL_ADC_ConfigChannel+0x368>)
 8002146:	f8d0 10b0 	ldr.w	r1, [r0, #176]	; 0xb0
 800214a:	f007 0c18 	and.w	ip, r7, #24
 800214e:	f3c3 0612 	ubfx	r6, r3, #0, #19
 8002152:	fa22 f20c 	lsr.w	r2, r2, ip
 8002156:	401a      	ands	r2, r3
 8002158:	ea21 0106 	bic.w	r1, r1, r6
 800215c:	430a      	orrs	r2, r1
 800215e:	f8c0 20b0 	str.w	r2, [r0, #176]	; 0xb0
 8002162:	4a9e      	ldr	r2, [pc, #632]	; (80023dc <HAL_ADC_ConfigChannel+0x36c>)
 8002164:	4297      	cmp	r7, r2
 8002166:	d11f      	bne.n	80021a8 <HAL_ADC_ConfigChannel+0x138>
 8002168:	2e00      	cmp	r6, #0
 800216a:	f040 808e 	bne.w	800228a <HAL_ADC_ConfigChannel+0x21a>
 800216e:	0e9a      	lsrs	r2, r3, #26
 8002170:	3201      	adds	r2, #1
 8002172:	f002 071f 	and.w	r7, r2, #31
 8002176:	2101      	movs	r1, #1
 8002178:	0692      	lsls	r2, r2, #26
 800217a:	2f09      	cmp	r7, #9
 800217c:	f002 42f8 	and.w	r2, r2, #2080374784	; 0x7c000000
 8002180:	fa01 f107 	lsl.w	r1, r1, r7
 8002184:	f200 80b3 	bhi.w	80022ee <HAL_ADC_ConfigChannel+0x27e>
 8002188:	430a      	orrs	r2, r1
 800218a:	2e00      	cmp	r6, #0
 800218c:	f040 8099 	bne.w	80022c2 <HAL_ADC_ConfigChannel+0x252>
 8002190:	0e9b      	lsrs	r3, r3, #26
 8002192:	3301      	adds	r3, #1
 8002194:	f003 031f 	and.w	r3, r3, #31
 8002198:	eb03 0343 	add.w	r3, r3, r3, lsl #1
 800219c:	051b      	lsls	r3, r3, #20
 800219e:	ea42 0103 	orr.w	r1, r2, r3
 80021a2:	68a2      	ldr	r2, [r4, #8]
 80021a4:	f7ff fd06 	bl	8001bb4 <LL_ADC_SetChannelSamplingTime>
 80021a8:	6821      	ldr	r1, [r4, #0]
 80021aa:	4b8d      	ldr	r3, [pc, #564]	; (80023e0 <HAL_ADC_ConfigChannel+0x370>)
 80021ac:	4219      	tst	r1, r3
 80021ae:	f040 80b9 	bne.w	8002324 <HAL_ADC_ConfigChannel+0x2b4>
 80021b2:	2000      	movs	r0, #0
 80021b4:	2300      	movs	r3, #0
 80021b6:	f885 3050 	strb.w	r3, [r5, #80]	; 0x50
 80021ba:	b003      	add	sp, #12
 80021bc:	bdf0      	pop	{r4, r5, r6, r7, pc}
 80021be:	2312      	movs	r3, #18
 80021c0:	e775      	b.n	80020ae <HAL_ADC_ConfigChannel+0x3e>
 80021c2:	2318      	movs	r3, #24
 80021c4:	e773      	b.n	80020ae <HAL_ADC_ConfigChannel+0x3e>
 80021c6:	f44f 7380 	mov.w	r3, #256	; 0x100
 80021ca:	e770      	b.n	80020ae <HAL_ADC_ConfigChannel+0x3e>
 80021cc:	2306      	movs	r3, #6
 80021ce:	e76e      	b.n	80020ae <HAL_ADC_ConfigChannel+0x3e>
 80021d0:	461a      	mov	r2, r3
 80021d2:	f7ff fcef 	bl	8001bb4 <LL_ADC_SetChannelSamplingTime>
 80021d6:	682a      	ldr	r2, [r5, #0]
 80021d8:	6953      	ldr	r3, [r2, #20]
 80021da:	f023 4300 	bic.w	r3, r3, #2147483648	; 0x80000000
 80021de:	e791      	b.n	8002104 <HAL_ADC_ConfigChannel+0x94>
 80021e0:	6e01      	ldr	r1, [r0, #96]	; 0x60
 80021e2:	6e01      	ldr	r1, [r0, #96]	; 0x60
 80021e4:	f3c2 0612 	ubfx	r6, r2, #0, #19
 80021e8:	f3c1 6184 	ubfx	r1, r1, #26, #5
 80021ec:	2e00      	cmp	r6, #0
 80021ee:	d138      	bne.n	8002262 <HAL_ADC_ConfigChannel+0x1f2>
 80021f0:	f3c2 6284 	ubfx	r2, r2, #26, #5
 80021f4:	4291      	cmp	r1, r2
 80021f6:	bf02      	ittt	eq
 80021f8:	6e02      	ldreq	r2, [r0, #96]	; 0x60
 80021fa:	f022 4200 	biceq.w	r2, r2, #2147483648	; 0x80000000
 80021fe:	6602      	streq	r2, [r0, #96]	; 0x60
 8002200:	685a      	ldr	r2, [r3, #4]
 8002202:	6822      	ldr	r2, [r4, #0]
 8002204:	6859      	ldr	r1, [r3, #4]
 8002206:	f3c2 0012 	ubfx	r0, r2, #0, #19
 800220a:	f3c1 6184 	ubfx	r1, r1, #26, #5
 800220e:	bb68      	cbnz	r0, 800226c <HAL_ADC_ConfigChannel+0x1fc>
 8002210:	f3c2 6284 	ubfx	r2, r2, #26, #5
 8002214:	4291      	cmp	r1, r2
 8002216:	bf02      	ittt	eq
 8002218:	685a      	ldreq	r2, [r3, #4]
 800221a:	f022 4200 	biceq.w	r2, r2, #2147483648	; 0x80000000
 800221e:	605a      	streq	r2, [r3, #4]
 8002220:	689a      	ldr	r2, [r3, #8]
 8002222:	6822      	ldr	r2, [r4, #0]
 8002224:	6899      	ldr	r1, [r3, #8]
 8002226:	f3c2 0012 	ubfx	r0, r2, #0, #19
 800222a:	f3c1 6184 	ubfx	r1, r1, #26, #5
 800222e:	bb10      	cbnz	r0, 8002276 <HAL_ADC_ConfigChannel+0x206>
 8002230:	f3c2 6284 	ubfx	r2, r2, #26, #5
 8002234:	4291      	cmp	r1, r2
 8002236:	bf02      	ittt	eq
 8002238:	689a      	ldreq	r2, [r3, #8]
 800223a:	f022 4200 	biceq.w	r2, r2, #2147483648	; 0x80000000
 800223e:	609a      	streq	r2, [r3, #8]
 8002240:	68da      	ldr	r2, [r3, #12]
 8002242:	6822      	ldr	r2, [r4, #0]
 8002244:	68d9      	ldr	r1, [r3, #12]
 8002246:	f3c2 0012 	ubfx	r0, r2, #0, #19
 800224a:	f3c1 6184 	ubfx	r1, r1, #26, #5
 800224e:	b9b8      	cbnz	r0, 8002280 <HAL_ADC_ConfigChannel+0x210>
 8002250:	f3c2 6284 	ubfx	r2, r2, #26, #5
 8002254:	4291      	cmp	r1, r2
 8002256:	bf02      	ittt	eq
 8002258:	68da      	ldreq	r2, [r3, #12]
 800225a:	f022 4200 	biceq.w	r2, r2, #2147483648	; 0x80000000
 800225e:	60da      	streq	r2, [r3, #12]
 8002260:	e76a      	b.n	8002138 <HAL_ADC_ConfigChannel+0xc8>
 8002262:	fa92 f2a2 	rbit	r2, r2
 8002266:	fab2 f282 	clz	r2, r2
 800226a:	e7c3      	b.n	80021f4 <HAL_ADC_ConfigChannel+0x184>
 800226c:	fa92 f2a2 	rbit	r2, r2
 8002270:	fab2 f282 	clz	r2, r2
 8002274:	e7ce      	b.n	8002214 <HAL_ADC_ConfigChannel+0x1a4>
 8002276:	fa92 f2a2 	rbit	r2, r2
 800227a:	fab2 f282 	clz	r2, r2
 800227e:	e7d9      	b.n	8002234 <HAL_ADC_ConfigChannel+0x1c4>
 8002280:	fa92 f2a2 	rbit	r2, r2
 8002284:	fab2 f282 	clz	r2, r2
 8002288:	e7e4      	b.n	8002254 <HAL_ADC_ConfigChannel+0x1e4>
 800228a:	fa93 f2a3 	rbit	r2, r3
 800228e:	b132      	cbz	r2, 800229e <HAL_ADC_ConfigChannel+0x22e>
 8002290:	fab2 f282 	clz	r2, r2
 8002294:	3201      	adds	r2, #1
 8002296:	f002 021f 	and.w	r2, r2, #31
 800229a:	2a09      	cmp	r2, #9
 800229c:	d816      	bhi.n	80022cc <HAL_ADC_ConfigChannel+0x25c>
 800229e:	fa93 f2a3 	rbit	r2, r3
 80022a2:	fab2 f282 	clz	r2, r2
 80022a6:	3201      	adds	r2, #1
 80022a8:	0692      	lsls	r2, r2, #26
 80022aa:	f002 42f8 	and.w	r2, r2, #2080374784	; 0x7c000000
 80022ae:	fa93 f1a3 	rbit	r1, r3
 80022b2:	fab1 f181 	clz	r1, r1
 80022b6:	3101      	adds	r1, #1
 80022b8:	f001 071f 	and.w	r7, r1, #31
 80022bc:	2101      	movs	r1, #1
 80022be:	40b9      	lsls	r1, r7
 80022c0:	e762      	b.n	8002188 <HAL_ADC_ConfigChannel+0x118>
 80022c2:	fa93 f3a3 	rbit	r3, r3
 80022c6:	fab3 f383 	clz	r3, r3
 80022ca:	e762      	b.n	8002192 <HAL_ADC_ConfigChannel+0x122>
 80022cc:	fa93 f2a3 	rbit	r2, r3
 80022d0:	fab2 f282 	clz	r2, r2
 80022d4:	3201      	adds	r2, #1
 80022d6:	0692      	lsls	r2, r2, #26
 80022d8:	f002 42f8 	and.w	r2, r2, #2080374784	; 0x7c000000
 80022dc:	fa93 f1a3 	rbit	r1, r3
 80022e0:	fab1 f181 	clz	r1, r1
 80022e4:	3101      	adds	r1, #1
 80022e6:	f001 071f 	and.w	r7, r1, #31
 80022ea:	2101      	movs	r1, #1
 80022ec:	40b9      	lsls	r1, r7
 80022ee:	430a      	orrs	r2, r1
 80022f0:	b95e      	cbnz	r6, 800230a <HAL_ADC_ConfigChannel+0x29a>
 80022f2:	0e9e      	lsrs	r6, r3, #26
 80022f4:	3601      	adds	r6, #1
 80022f6:	f006 061f 	and.w	r6, r6, #31
 80022fa:	eb06 0146 	add.w	r1, r6, r6, lsl #1
 80022fe:	391e      	subs	r1, #30
 8002300:	0509      	lsls	r1, r1, #20
 8002302:	f041 7100 	orr.w	r1, r1, #33554432	; 0x2000000
 8002306:	4311      	orrs	r1, r2
 8002308:	e74b      	b.n	80021a2 <HAL_ADC_ConfigChannel+0x132>
 800230a:	fa93 f1a3 	rbit	r1, r3
 800230e:	fab1 f181 	clz	r1, r1
 8002312:	3101      	adds	r1, #1
 8002314:	f001 031f 	and.w	r3, r1, #31
 8002318:	f06f 061d 	mvn.w	r6, #29
 800231c:	2103      	movs	r1, #3
 800231e:	fb11 6103 	smlabb	r1, r1, r3, r6
 8002322:	e7ed      	b.n	8002300 <HAL_ADC_ConfigChannel+0x290>
 8002324:	4b2f      	ldr	r3, [pc, #188]	; (80023e4 <HAL_ADC_ConfigChannel+0x374>)
 8002326:	4a30      	ldr	r2, [pc, #192]	; (80023e8 <HAL_ADC_ConfigChannel+0x378>)
 8002328:	6898      	ldr	r0, [r3, #8]
 800232a:	4291      	cmp	r1, r2
 800232c:	f000 74e0 	and.w	r4, r0, #29360128	; 0x1c00000
 8002330:	d11e      	bne.n	8002370 <HAL_ADC_ConfigChannel+0x300>
 8002332:	0202      	lsls	r2, r0, #8
 8002334:	f53f af3d 	bmi.w	80021b2 <HAL_ADC_ConfigChannel+0x142>
 8002338:	6829      	ldr	r1, [r5, #0]
 800233a:	4a2c      	ldr	r2, [pc, #176]	; (80023ec <HAL_ADC_ConfigChannel+0x37c>)
 800233c:	4291      	cmp	r1, r2
 800233e:	f47f af38 	bne.w	80021b2 <HAL_ADC_ConfigChannel+0x142>
 8002342:	689a      	ldr	r2, [r3, #8]
 8002344:	f022 72e0 	bic.w	r2, r2, #29360128	; 0x1c00000
 8002348:	4322      	orrs	r2, r4
 800234a:	f442 0200 	orr.w	r2, r2, #8388608	; 0x800000
 800234e:	609a      	str	r2, [r3, #8]
 8002350:	4b27      	ldr	r3, [pc, #156]	; (80023f0 <HAL_ADC_ConfigChannel+0x380>)
 8002352:	4a28      	ldr	r2, [pc, #160]	; (80023f4 <HAL_ADC_ConfigChannel+0x384>)
 8002354:	681b      	ldr	r3, [r3, #0]
 8002356:	fbb3 f2f2 	udiv	r2, r3, r2
 800235a:	230c      	movs	r3, #12
 800235c:	fb02 3303 	mla	r3, r2, r3, r3
 8002360:	9301      	str	r3, [sp, #4]
 8002362:	9b01      	ldr	r3, [sp, #4]
 8002364:	2b00      	cmp	r3, #0
 8002366:	f43f af24 	beq.w	80021b2 <HAL_ADC_ConfigChannel+0x142>
 800236a:	9b01      	ldr	r3, [sp, #4]
 800236c:	3b01      	subs	r3, #1
 800236e:	e7f7      	b.n	8002360 <HAL_ADC_ConfigChannel+0x2f0>
 8002370:	4a21      	ldr	r2, [pc, #132]	; (80023f8 <HAL_ADC_ConfigChannel+0x388>)
 8002372:	4291      	cmp	r1, r2
 8002374:	d111      	bne.n	800239a <HAL_ADC_ConfigChannel+0x32a>
 8002376:	f010 7080 	ands.w	r0, r0, #16777216	; 0x1000000
 800237a:	f47f af1a 	bne.w	80021b2 <HAL_ADC_ConfigChannel+0x142>
 800237e:	6829      	ldr	r1, [r5, #0]
 8002380:	f1a2 42f7 	sub.w	r2, r2, #2071986176	; 0x7b800000
 8002384:	4291      	cmp	r1, r2
 8002386:	f47f af14 	bne.w	80021b2 <HAL_ADC_ConfigChannel+0x142>
 800238a:	689a      	ldr	r2, [r3, #8]
 800238c:	f022 72e0 	bic.w	r2, r2, #29360128	; 0x1c00000
 8002390:	4322      	orrs	r2, r4
 8002392:	f042 7280 	orr.w	r2, r2, #16777216	; 0x1000000
 8002396:	609a      	str	r2, [r3, #8]
 8002398:	e70c      	b.n	80021b4 <HAL_ADC_ConfigChannel+0x144>
 800239a:	4a18      	ldr	r2, [pc, #96]	; (80023fc <HAL_ADC_ConfigChannel+0x38c>)
 800239c:	4291      	cmp	r1, r2
 800239e:	f47f af08 	bne.w	80021b2 <HAL_ADC_ConfigChannel+0x142>
 80023a2:	f410 0080 	ands.w	r0, r0, #4194304	; 0x400000
 80023a6:	f47f af04 	bne.w	80021b2 <HAL_ADC_ConfigChannel+0x142>
 80023aa:	6829      	ldr	r1, [r5, #0]
 80023ac:	4a0f      	ldr	r2, [pc, #60]	; (80023ec <HAL_ADC_ConfigChannel+0x37c>)
 80023ae:	4291      	cmp	r1, r2
 80023b0:	f47f aeff 	bne.w	80021b2 <HAL_ADC_ConfigChannel+0x142>
 80023b4:	689a      	ldr	r2, [r3, #8]
 80023b6:	f022 72e0 	bic.w	r2, r2, #29360128	; 0x1c00000
 80023ba:	4322      	orrs	r2, r4
 80023bc:	f442 0280 	orr.w	r2, r2, #4194304	; 0x400000
 80023c0:	e7e9      	b.n	8002396 <HAL_ADC_ConfigChannel+0x326>
 80023c2:	6d6a      	ldr	r2, [r5, #84]	; 0x54
 80023c4:	f042 0220 	orr.w	r2, r2, #32
 80023c8:	656a      	str	r2, [r5, #84]	; 0x54
 80023ca:	4618      	mov	r0, r3
 80023cc:	e6f2      	b.n	80021b4 <HAL_ADC_ConfigChannel+0x144>
 80023ce:	2002      	movs	r0, #2
 80023d0:	e6f3      	b.n	80021ba <HAL_ADC_ConfigChannel+0x14a>
 80023d2:	bf00      	nop
 80023d4:	03fff000 	.word	0x03fff000
 80023d8:	0007ffff 	.word	0x0007ffff
 80023dc:	407f0000 	.word	0x407f0000
 80023e0:	80080000 	.word	0x80080000
 80023e4:	50040300 	.word	0x50040300
 80023e8:	c7520000 	.word	0xc7520000
 80023ec:	50040000 	.word	0x50040000
 80023f0:	20000008 	.word	0x20000008
 80023f4:	00030d40 	.word	0x00030d40
 80023f8:	cb840000 	.word	0xcb840000
 80023fc:	80000001 	.word	0x80000001

08002400 <ADC_ConversionStop>:
 8002400:	b570      	push	{r4, r5, r6, lr}
 8002402:	4604      	mov	r4, r0
 8002404:	6800      	ldr	r0, [r0, #0]
 8002406:	f7ff fbe6 	bl	8001bd6 <LL_ADC_REG_IsConversionOngoing>
 800240a:	6823      	ldr	r3, [r4, #0]
 800240c:	689a      	ldr	r2, [r3, #8]
 800240e:	f002 0208 	and.w	r2, r2, #8
 8002412:	4302      	orrs	r2, r0
 8002414:	d101      	bne.n	800241a <ADC_ConversionStop+0x1a>
 8002416:	2000      	movs	r0, #0
 8002418:	bd70      	pop	{r4, r5, r6, pc}
 800241a:	68da      	ldr	r2, [r3, #12]
 800241c:	0190      	lsls	r0, r2, #6
 800241e:	d52b      	bpl.n	8002478 <ADC_ConversionStop+0x78>
 8002420:	8b20      	ldrh	r0, [r4, #24]
 8002422:	f240 1201 	movw	r2, #257	; 0x101
 8002426:	4290      	cmp	r0, r2
 8002428:	d126      	bne.n	8002478 <ADC_ConversionStop+0x78>
 800242a:	4a28      	ldr	r2, [pc, #160]	; (80024cc <ADC_ConversionStop+0xcc>)
 800242c:	6819      	ldr	r1, [r3, #0]
 800242e:	0649      	lsls	r1, r1, #25
 8002430:	d516      	bpl.n	8002460 <ADC_ConversionStop+0x60>
 8002432:	2240      	movs	r2, #64	; 0x40
 8002434:	601a      	str	r2, [r3, #0]
 8002436:	2101      	movs	r1, #1
 8002438:	4618      	mov	r0, r3
 800243a:	f7ff fbcc 	bl	8001bd6 <LL_ADC_REG_IsConversionOngoing>
 800243e:	b158      	cbz	r0, 8002458 <ADC_ConversionStop+0x58>
 8002440:	6822      	ldr	r2, [r4, #0]
 8002442:	6893      	ldr	r3, [r2, #8]
 8002444:	079e      	lsls	r6, r3, #30
 8002446:	d407      	bmi.n	8002458 <ADC_ConversionStop+0x58>
 8002448:	6893      	ldr	r3, [r2, #8]
 800244a:	f023 4300 	bic.w	r3, r3, #2147483648	; 0x80000000
 800244e:	f023 033f 	bic.w	r3, r3, #63	; 0x3f
 8002452:	f043 0310 	orr.w	r3, r3, #16
 8002456:	6093      	str	r3, [r2, #8]
 8002458:	2901      	cmp	r1, #1
 800245a:	d10f      	bne.n	800247c <ADC_ConversionStop+0x7c>
 800245c:	2504      	movs	r5, #4
 800245e:	e022      	b.n	80024a6 <ADC_ConversionStop+0xa6>
 8002460:	3a01      	subs	r2, #1
 8002462:	d1e3      	bne.n	800242c <ADC_ConversionStop+0x2c>
 8002464:	6d63      	ldr	r3, [r4, #84]	; 0x54
 8002466:	f043 0310 	orr.w	r3, r3, #16
 800246a:	6563      	str	r3, [r4, #84]	; 0x54
 800246c:	6da3      	ldr	r3, [r4, #88]	; 0x58
 800246e:	f043 0301 	orr.w	r3, r3, #1
 8002472:	65a3      	str	r3, [r4, #88]	; 0x58
 8002474:	2001      	movs	r0, #1
 8002476:	e7cf      	b.n	8002418 <ADC_ConversionStop+0x18>
 8002478:	2902      	cmp	r1, #2
 800247a:	d1dd      	bne.n	8002438 <ADC_ConversionStop+0x38>
 800247c:	6822      	ldr	r2, [r4, #0]
 800247e:	6893      	ldr	r3, [r2, #8]
 8002480:	0718      	lsls	r0, r3, #28
 8002482:	d50a      	bpl.n	800249a <ADC_ConversionStop+0x9a>
 8002484:	6893      	ldr	r3, [r2, #8]
 8002486:	079b      	lsls	r3, r3, #30
 8002488:	d407      	bmi.n	800249a <ADC_ConversionStop+0x9a>
 800248a:	6893      	ldr	r3, [r2, #8]
 800248c:	f023 4300 	bic.w	r3, r3, #2147483648	; 0x80000000
 8002490:	f023 033f 	bic.w	r3, r3, #63	; 0x3f
 8002494:	f043 0320 	orr.w	r3, r3, #32
 8002498:	6093      	str	r3, [r2, #8]
 800249a:	2902      	cmp	r1, #2
 800249c:	d014      	beq.n	80024c8 <ADC_ConversionStop+0xc8>
 800249e:	2903      	cmp	r1, #3
 80024a0:	bf14      	ite	ne
 80024a2:	2504      	movne	r5, #4
 80024a4:	250c      	moveq	r5, #12
 80024a6:	f7ff fb6b 	bl	8001b80 <HAL_GetTick>
 80024aa:	4606      	mov	r6, r0
 80024ac:	6823      	ldr	r3, [r4, #0]
 80024ae:	689b      	ldr	r3, [r3, #8]
 80024b0:	422b      	tst	r3, r5
 80024b2:	d0b0      	beq.n	8002416 <ADC_ConversionStop+0x16>
 80024b4:	f7ff fb64 	bl	8001b80 <HAL_GetTick>
 80024b8:	1b80      	subs	r0, r0, r6
 80024ba:	2805      	cmp	r0, #5
 80024bc:	d9f6      	bls.n	80024ac <ADC_ConversionStop+0xac>
 80024be:	6823      	ldr	r3, [r4, #0]
 80024c0:	689b      	ldr	r3, [r3, #8]
 80024c2:	422b      	tst	r3, r5
 80024c4:	d0f2      	beq.n	80024ac <ADC_ConversionStop+0xac>
 80024c6:	e7cd      	b.n	8002464 <ADC_ConversionStop+0x64>
 80024c8:	2508      	movs	r5, #8
 80024ca:	e7ec      	b.n	80024a6 <ADC_ConversionStop+0xa6>
 80024cc:	a3400001 	.word	0xa3400001

080024d0 <ADC_Enable>:
 80024d0:	b573      	push	{r0, r1, r4, r5, r6, lr}
 80024d2:	2300      	movs	r3, #0
 80024d4:	6802      	ldr	r2, [r0, #0]
 80024d6:	9301      	str	r3, [sp, #4]
 80024d8:	6893      	ldr	r3, [r2, #8]
 80024da:	07dd      	lsls	r5, r3, #31
 80024dc:	4604      	mov	r4, r0
 80024de:	d502      	bpl.n	80024e6 <ADC_Enable+0x16>
 80024e0:	2000      	movs	r0, #0
 80024e2:	b002      	add	sp, #8
 80024e4:	bd70      	pop	{r4, r5, r6, pc}
 80024e6:	6891      	ldr	r1, [r2, #8]
 80024e8:	4b20      	ldr	r3, [pc, #128]	; (800256c <ADC_Enable+0x9c>)
 80024ea:	4219      	tst	r1, r3
 80024ec:	d009      	beq.n	8002502 <ADC_Enable+0x32>
 80024ee:	6d63      	ldr	r3, [r4, #84]	; 0x54
 80024f0:	f043 0310 	orr.w	r3, r3, #16
 80024f4:	6563      	str	r3, [r4, #84]	; 0x54
 80024f6:	6da3      	ldr	r3, [r4, #88]	; 0x58
 80024f8:	f043 0301 	orr.w	r3, r3, #1
 80024fc:	65a3      	str	r3, [r4, #88]	; 0x58
 80024fe:	2001      	movs	r0, #1
 8002500:	e7ef      	b.n	80024e2 <ADC_Enable+0x12>
 8002502:	6893      	ldr	r3, [r2, #8]
 8002504:	f023 4300 	bic.w	r3, r3, #2147483648	; 0x80000000
 8002508:	f023 033f 	bic.w	r3, r3, #63	; 0x3f
 800250c:	f043 0301 	orr.w	r3, r3, #1
 8002510:	6093      	str	r3, [r2, #8]
 8002512:	4b17      	ldr	r3, [pc, #92]	; (8002570 <ADC_Enable+0xa0>)
 8002514:	689b      	ldr	r3, [r3, #8]
 8002516:	0218      	lsls	r0, r3, #8
 8002518:	d419      	bmi.n	800254e <ADC_Enable+0x7e>
 800251a:	f7ff fb31 	bl	8001b80 <HAL_GetTick>
 800251e:	4e15      	ldr	r6, [pc, #84]	; (8002574 <ADC_Enable+0xa4>)
 8002520:	4605      	mov	r5, r0
 8002522:	6822      	ldr	r2, [r4, #0]
 8002524:	6813      	ldr	r3, [r2, #0]
 8002526:	07db      	lsls	r3, r3, #31
 8002528:	d4da      	bmi.n	80024e0 <ADC_Enable+0x10>
 800252a:	6893      	ldr	r3, [r2, #8]
 800252c:	07d9      	lsls	r1, r3, #31
 800252e:	bf5f      	itttt	pl
 8002530:	6893      	ldrpl	r3, [r2, #8]
 8002532:	4033      	andpl	r3, r6
 8002534:	f043 0301 	orrpl.w	r3, r3, #1
 8002538:	6093      	strpl	r3, [r2, #8]
 800253a:	f7ff fb21 	bl	8001b80 <HAL_GetTick>
 800253e:	1b40      	subs	r0, r0, r5
 8002540:	2802      	cmp	r0, #2
 8002542:	d9ee      	bls.n	8002522 <ADC_Enable+0x52>
 8002544:	6823      	ldr	r3, [r4, #0]
 8002546:	681b      	ldr	r3, [r3, #0]
 8002548:	07da      	lsls	r2, r3, #31
 800254a:	d4ea      	bmi.n	8002522 <ADC_Enable+0x52>
 800254c:	e7cf      	b.n	80024ee <ADC_Enable+0x1e>
 800254e:	4b0a      	ldr	r3, [pc, #40]	; (8002578 <ADC_Enable+0xa8>)
 8002550:	4a0a      	ldr	r2, [pc, #40]	; (800257c <ADC_Enable+0xac>)
 8002552:	681b      	ldr	r3, [r3, #0]
 8002554:	fbb3 f2f2 	udiv	r2, r3, r2
 8002558:	230c      	movs	r3, #12
 800255a:	fb02 3303 	mla	r3, r2, r3, r3
 800255e:	9301      	str	r3, [sp, #4]
 8002560:	9b01      	ldr	r3, [sp, #4]
 8002562:	2b00      	cmp	r3, #0
 8002564:	d0d9      	beq.n	800251a <ADC_Enable+0x4a>
 8002566:	9b01      	ldr	r3, [sp, #4]
 8002568:	3b01      	subs	r3, #1
 800256a:	e7f8      	b.n	800255e <ADC_Enable+0x8e>
 800256c:	8000003f 	.word	0x8000003f
 8002570:	50040300 	.word	0x50040300
 8002574:	7fffffc0 	.word	0x7fffffc0
 8002578:	20000008 	.word	0x20000008
 800257c:	00030d40 	.word	0x00030d40

08002580 <HAL_ADC_Start_IT>:
 8002580:	4b4f      	ldr	r3, [pc, #316]	; (80026c0 <HAL_ADC_Start_IT+0x140>)
 8002582:	b570      	push	{r4, r5, r6, lr}
 8002584:	4604      	mov	r4, r0
 8002586:	6800      	ldr	r0, [r0, #0]
 8002588:	689e      	ldr	r6, [r3, #8]
 800258a:	f7ff fb24 	bl	8001bd6 <LL_ADC_REG_IsConversionOngoing>
 800258e:	4605      	mov	r5, r0
 8002590:	2800      	cmp	r0, #0
 8002592:	f040 808f 	bne.w	80026b4 <HAL_ADC_Start_IT+0x134>
 8002596:	f894 3050 	ldrb.w	r3, [r4, #80]	; 0x50
 800259a:	2b01      	cmp	r3, #1
 800259c:	f000 808a 	beq.w	80026b4 <HAL_ADC_Start_IT+0x134>
 80025a0:	2301      	movs	r3, #1
 80025a2:	f884 3050 	strb.w	r3, [r4, #80]	; 0x50
 80025a6:	4620      	mov	r0, r4
 80025a8:	f7ff ff92 	bl	80024d0 <ADC_Enable>
 80025ac:	2800      	cmp	r0, #0
 80025ae:	d17e      	bne.n	80026ae <HAL_ADC_Start_IT+0x12e>
 80025b0:	6d63      	ldr	r3, [r4, #84]	; 0x54
 80025b2:	4944      	ldr	r1, [pc, #272]	; (80026c4 <HAL_ADC_Start_IT+0x144>)
 80025b4:	f423 6370 	bic.w	r3, r3, #3840	; 0xf00
 80025b8:	f023 0301 	bic.w	r3, r3, #1
 80025bc:	f443 7380 	orr.w	r3, r3, #256	; 0x100
 80025c0:	6563      	str	r3, [r4, #84]	; 0x54
 80025c2:	6823      	ldr	r3, [r4, #0]
 80025c4:	428b      	cmp	r3, r1
 80025c6:	f006 021f 	and.w	r2, r6, #31
 80025ca:	d075      	beq.n	80026b8 <HAL_ADC_Start_IT+0x138>
 80025cc:	4619      	mov	r1, r3
 80025ce:	6d65      	ldr	r5, [r4, #84]	; 0x54
 80025d0:	f425 1580 	bic.w	r5, r5, #1048576	; 0x100000
 80025d4:	6565      	str	r5, [r4, #84]	; 0x54
 80025d6:	6d65      	ldr	r5, [r4, #84]	; 0x54
 80025d8:	f415 5580 	ands.w	r5, r5, #4096	; 0x1000
 80025dc:	bf1c      	itt	ne
 80025de:	6da5      	ldrne	r5, [r4, #88]	; 0x58
 80025e0:	f025 0506 	bicne.w	r5, r5, #6
 80025e4:	65a5      	str	r5, [r4, #88]	; 0x58
 80025e6:	251c      	movs	r5, #28
 80025e8:	601d      	str	r5, [r3, #0]
 80025ea:	2500      	movs	r5, #0
 80025ec:	f884 5050 	strb.w	r5, [r4, #80]	; 0x50
 80025f0:	685d      	ldr	r5, [r3, #4]
 80025f2:	f025 051c 	bic.w	r5, r5, #28
 80025f6:	605d      	str	r5, [r3, #4]
 80025f8:	6965      	ldr	r5, [r4, #20]
 80025fa:	685e      	ldr	r6, [r3, #4]
 80025fc:	2d08      	cmp	r5, #8
 80025fe:	bf0c      	ite	eq
 8002600:	f046 0608 	orreq.w	r6, r6, #8
 8002604:	f046 0604 	orrne.w	r6, r6, #4
 8002608:	605e      	str	r6, [r3, #4]
 800260a:	6b66      	ldr	r6, [r4, #52]	; 0x34
 800260c:	b91e      	cbnz	r6, 8002616 <HAL_ADC_Start_IT+0x96>
 800260e:	685e      	ldr	r6, [r3, #4]
 8002610:	f046 0610 	orr.w	r6, r6, #16
 8002614:	605e      	str	r6, [r3, #4]
 8002616:	428b      	cmp	r3, r1
 8002618:	d007      	beq.n	800262a <HAL_ADC_Start_IT+0xaa>
 800261a:	2a09      	cmp	r2, #9
 800261c:	d828      	bhi.n	8002670 <HAL_ADC_Start_IT+0xf0>
 800261e:	f240 2621 	movw	r6, #545	; 0x221
 8002622:	fa26 f202 	lsr.w	r2, r6, r2
 8002626:	07d6      	lsls	r6, r2, #31
 8002628:	d522      	bpl.n	8002670 <HAL_ADC_Start_IT+0xf0>
 800262a:	68da      	ldr	r2, [r3, #12]
 800262c:	0191      	lsls	r1, r2, #6
 800262e:	d516      	bpl.n	800265e <HAL_ADC_Start_IT+0xde>
 8002630:	6d62      	ldr	r2, [r4, #84]	; 0x54
 8002632:	f422 5240 	bic.w	r2, r2, #12288	; 0x3000
 8002636:	f442 5280 	orr.w	r2, r2, #4096	; 0x1000
 800263a:	6562      	str	r2, [r4, #84]	; 0x54
 800263c:	685a      	ldr	r2, [r3, #4]
 800263e:	2d08      	cmp	r5, #8
 8002640:	bf0b      	itete	eq
 8002642:	f022 0220 	biceq.w	r2, r2, #32
 8002646:	f022 0240 	bicne.w	r2, r2, #64	; 0x40
 800264a:	605a      	streq	r2, [r3, #4]
 800264c:	605a      	strne	r2, [r3, #4]
 800264e:	bf0b      	itete	eq
 8002650:	685a      	ldreq	r2, [r3, #4]
 8002652:	685a      	ldrne	r2, [r3, #4]
 8002654:	f042 0240 	orreq.w	r2, r2, #64	; 0x40
 8002658:	f042 0220 	orrne.w	r2, r2, #32
 800265c:	605a      	str	r2, [r3, #4]
 800265e:	689a      	ldr	r2, [r3, #8]
 8002660:	f022 4200 	bic.w	r2, r2, #2147483648	; 0x80000000
 8002664:	f022 023f 	bic.w	r2, r2, #63	; 0x3f
 8002668:	f042 0204 	orr.w	r2, r2, #4
 800266c:	609a      	str	r2, [r3, #8]
 800266e:	bd70      	pop	{r4, r5, r6, pc}
 8002670:	6d62      	ldr	r2, [r4, #84]	; 0x54
 8002672:	f442 1280 	orr.w	r2, r2, #1048576	; 0x100000
 8002676:	6562      	str	r2, [r4, #84]	; 0x54
 8002678:	68ca      	ldr	r2, [r1, #12]
 800267a:	0192      	lsls	r2, r2, #6
 800267c:	d5f7      	bpl.n	800266e <HAL_ADC_Start_IT+0xee>
 800267e:	6d62      	ldr	r2, [r4, #84]	; 0x54
 8002680:	f422 5240 	bic.w	r2, r2, #12288	; 0x3000
 8002684:	f442 5280 	orr.w	r2, r2, #4096	; 0x1000
 8002688:	6562      	str	r2, [r4, #84]	; 0x54
 800268a:	685a      	ldr	r2, [r3, #4]
 800268c:	2d08      	cmp	r5, #8
 800268e:	bf0b      	itete	eq
 8002690:	f022 0220 	biceq.w	r2, r2, #32
 8002694:	f022 0240 	bicne.w	r2, r2, #64	; 0x40
 8002698:	605a      	streq	r2, [r3, #4]
 800269a:	605a      	strne	r2, [r3, #4]
 800269c:	bf0b      	itete	eq
 800269e:	685a      	ldreq	r2, [r3, #4]
 80026a0:	685a      	ldrne	r2, [r3, #4]
 80026a2:	f042 0240 	orreq.w	r2, r2, #64	; 0x40
 80026a6:	f042 0220 	orrne.w	r2, r2, #32
 80026aa:	605a      	str	r2, [r3, #4]
 80026ac:	e7df      	b.n	800266e <HAL_ADC_Start_IT+0xee>
 80026ae:	f884 5050 	strb.w	r5, [r4, #80]	; 0x50
 80026b2:	e7dc      	b.n	800266e <HAL_ADC_Start_IT+0xee>
 80026b4:	2002      	movs	r0, #2
 80026b6:	e7da      	b.n	800266e <HAL_ADC_Start_IT+0xee>
 80026b8:	4903      	ldr	r1, [pc, #12]	; (80026c8 <HAL_ADC_Start_IT+0x148>)
 80026ba:	2a00      	cmp	r2, #0
 80026bc:	d087      	beq.n	80025ce <HAL_ADC_Start_IT+0x4e>
 80026be:	e78a      	b.n	80025d6 <HAL_ADC_Start_IT+0x56>
 80026c0:	50040300 	.word	0x50040300
 80026c4:	50040100 	.word	0x50040100
 80026c8:	50040000 	.word	0x50040000

080026cc <HAL_ADC_Start_DMA>:
 80026cc:	4b37      	ldr	r3, [pc, #220]	; (80027ac <HAL_ADC_Start_DMA+0xe0>)
 80026ce:	e92d 41f0 	stmdb	sp!, {r4, r5, r6, r7, r8, lr}
 80026d2:	4604      	mov	r4, r0
 80026d4:	6800      	ldr	r0, [r0, #0]
 80026d6:	689b      	ldr	r3, [r3, #8]
 80026d8:	460e      	mov	r6, r1
 80026da:	4617      	mov	r7, r2
 80026dc:	f7ff fa7b 	bl	8001bd6 <LL_ADC_REG_IsConversionOngoing>
 80026e0:	2800      	cmp	r0, #0
 80026e2:	d15d      	bne.n	80027a0 <HAL_ADC_Start_DMA+0xd4>
 80026e4:	f894 2050 	ldrb.w	r2, [r4, #80]	; 0x50
 80026e8:	2a01      	cmp	r2, #1
 80026ea:	d059      	beq.n	80027a0 <HAL_ADC_Start_DMA+0xd4>
 80026ec:	f003 081f 	and.w	r8, r3, #31
 80026f0:	f1b8 0f09 	cmp.w	r8, #9
 80026f4:	f04f 0301 	mov.w	r3, #1
 80026f8:	f884 3050 	strb.w	r3, [r4, #80]	; 0x50
 80026fc:	d84b      	bhi.n	8002796 <HAL_ADC_Start_DMA+0xca>
 80026fe:	f240 2021 	movw	r0, #545	; 0x221
 8002702:	fa20 f008 	lsr.w	r0, r0, r8
 8002706:	43c0      	mvns	r0, r0
 8002708:	ea10 0503 	ands.w	r5, r0, r3
 800270c:	d143      	bne.n	8002796 <HAL_ADC_Start_DMA+0xca>
 800270e:	4620      	mov	r0, r4
 8002710:	f7ff fede 	bl	80024d0 <ADC_Enable>
 8002714:	2800      	cmp	r0, #0
 8002716:	d13b      	bne.n	8002790 <HAL_ADC_Start_DMA+0xc4>
 8002718:	6d63      	ldr	r3, [r4, #84]	; 0x54
 800271a:	6821      	ldr	r1, [r4, #0]
 800271c:	f423 6370 	bic.w	r3, r3, #3840	; 0xf00
 8002720:	f023 0301 	bic.w	r3, r3, #1
 8002724:	f443 7380 	orr.w	r3, r3, #256	; 0x100
 8002728:	6563      	str	r3, [r4, #84]	; 0x54
 800272a:	4b21      	ldr	r3, [pc, #132]	; (80027b0 <HAL_ADC_Start_DMA+0xe4>)
 800272c:	4299      	cmp	r1, r3
 800272e:	d039      	beq.n	80027a4 <HAL_ADC_Start_DMA+0xd8>
 8002730:	6d63      	ldr	r3, [r4, #84]	; 0x54
 8002732:	f423 1380 	bic.w	r3, r3, #1048576	; 0x100000
 8002736:	6563      	str	r3, [r4, #84]	; 0x54
 8002738:	6d63      	ldr	r3, [r4, #84]	; 0x54
 800273a:	6ce0      	ldr	r0, [r4, #76]	; 0x4c
 800273c:	f413 5380 	ands.w	r3, r3, #4096	; 0x1000
 8002740:	bf1c      	itt	ne
 8002742:	6da3      	ldrne	r3, [r4, #88]	; 0x58
 8002744:	f023 0306 	bicne.w	r3, r3, #6
 8002748:	65a3      	str	r3, [r4, #88]	; 0x58
 800274a:	4b1a      	ldr	r3, [pc, #104]	; (80027b4 <HAL_ADC_Start_DMA+0xe8>)
 800274c:	62c3      	str	r3, [r0, #44]	; 0x2c
 800274e:	4b1a      	ldr	r3, [pc, #104]	; (80027b8 <HAL_ADC_Start_DMA+0xec>)
 8002750:	6303      	str	r3, [r0, #48]	; 0x30
 8002752:	4b1a      	ldr	r3, [pc, #104]	; (80027bc <HAL_ADC_Start_DMA+0xf0>)
 8002754:	6343      	str	r3, [r0, #52]	; 0x34
 8002756:	231c      	movs	r3, #28
 8002758:	600b      	str	r3, [r1, #0]
 800275a:	2300      	movs	r3, #0
 800275c:	f884 3050 	strb.w	r3, [r4, #80]	; 0x50
 8002760:	684b      	ldr	r3, [r1, #4]
 8002762:	f043 0310 	orr.w	r3, r3, #16
 8002766:	604b      	str	r3, [r1, #4]
 8002768:	68cb      	ldr	r3, [r1, #12]
 800276a:	f043 0301 	orr.w	r3, r3, #1
 800276e:	60cb      	str	r3, [r1, #12]
 8002770:	4632      	mov	r2, r6
 8002772:	463b      	mov	r3, r7
 8002774:	3140      	adds	r1, #64	; 0x40
 8002776:	f000 fa6d 	bl	8002c54 <HAL_DMA_Start_IT>
 800277a:	6822      	ldr	r2, [r4, #0]
 800277c:	6893      	ldr	r3, [r2, #8]
 800277e:	f023 4300 	bic.w	r3, r3, #2147483648	; 0x80000000
 8002782:	f023 033f 	bic.w	r3, r3, #63	; 0x3f
 8002786:	f043 0304 	orr.w	r3, r3, #4
 800278a:	6093      	str	r3, [r2, #8]
 800278c:	e8bd 81f0 	ldmia.w	sp!, {r4, r5, r6, r7, r8, pc}
 8002790:	f884 5050 	strb.w	r5, [r4, #80]	; 0x50
 8002794:	e7fa      	b.n	800278c <HAL_ADC_Start_DMA+0xc0>
 8002796:	2300      	movs	r3, #0
 8002798:	f884 3050 	strb.w	r3, [r4, #80]	; 0x50
 800279c:	2001      	movs	r0, #1
 800279e:	e7f5      	b.n	800278c <HAL_ADC_Start_DMA+0xc0>
 80027a0:	2002      	movs	r0, #2
 80027a2:	e7f3      	b.n	800278c <HAL_ADC_Start_DMA+0xc0>
 80027a4:	f1b8 0f00 	cmp.w	r8, #0
 80027a8:	d0c2      	beq.n	8002730 <HAL_ADC_Start_DMA+0x64>
 80027aa:	e7c5      	b.n	8002738 <HAL_ADC_Start_DMA+0x6c>
 80027ac:	50040300 	.word	0x50040300
 80027b0:	50040100 	.word	0x50040100
 80027b4:	08001fed 	.word	0x08001fed
 80027b8:	08001d97 	.word	0x08001d97
 80027bc:	08002055 	.word	0x08002055

080027c0 <ADC_Disable>:
 80027c0:	6802      	ldr	r2, [r0, #0]
 80027c2:	b538      	push	{r3, r4, r5, lr}
 80027c4:	6893      	ldr	r3, [r2, #8]
 80027c6:	6891      	ldr	r1, [r2, #8]
 80027c8:	4604      	mov	r4, r0
 80027ca:	07c8      	lsls	r0, r1, #31
 80027cc:	d401      	bmi.n	80027d2 <ADC_Disable+0x12>
 80027ce:	2000      	movs	r0, #0
 80027d0:	bd38      	pop	{r3, r4, r5, pc}
 80027d2:	0799      	lsls	r1, r3, #30
 80027d4:	d4fb      	bmi.n	80027ce <ADC_Disable+0xe>
 80027d6:	6893      	ldr	r3, [r2, #8]
 80027d8:	f003 030d 	and.w	r3, r3, #13
 80027dc:	2b01      	cmp	r3, #1
 80027de:	d119      	bne.n	8002814 <ADC_Disable+0x54>
 80027e0:	6893      	ldr	r3, [r2, #8]
 80027e2:	f023 4300 	bic.w	r3, r3, #2147483648	; 0x80000000
 80027e6:	f023 033f 	bic.w	r3, r3, #63	; 0x3f
 80027ea:	f043 0302 	orr.w	r3, r3, #2
 80027ee:	6093      	str	r3, [r2, #8]
 80027f0:	2303      	movs	r3, #3
 80027f2:	6013      	str	r3, [r2, #0]
 80027f4:	f7ff f9c4 	bl	8001b80 <HAL_GetTick>
 80027f8:	4605      	mov	r5, r0
 80027fa:	6823      	ldr	r3, [r4, #0]
 80027fc:	689b      	ldr	r3, [r3, #8]
 80027fe:	07db      	lsls	r3, r3, #31
 8002800:	d5e5      	bpl.n	80027ce <ADC_Disable+0xe>
 8002802:	f7ff f9bd 	bl	8001b80 <HAL_GetTick>
 8002806:	1b40      	subs	r0, r0, r5
 8002808:	2802      	cmp	r0, #2
 800280a:	d9f6      	bls.n	80027fa <ADC_Disable+0x3a>
 800280c:	6823      	ldr	r3, [r4, #0]
 800280e:	689b      	ldr	r3, [r3, #8]
 8002810:	07da      	lsls	r2, r3, #31
 8002812:	d5f2      	bpl.n	80027fa <ADC_Disable+0x3a>
 8002814:	6d63      	ldr	r3, [r4, #84]	; 0x54
 8002816:	f043 0310 	orr.w	r3, r3, #16
 800281a:	6563      	str	r3, [r4, #84]	; 0x54
 800281c:	6da3      	ldr	r3, [r4, #88]	; 0x58
 800281e:	f043 0301 	orr.w	r3, r3, #1
 8002822:	65a3      	str	r3, [r4, #88]	; 0x58
 8002824:	2001      	movs	r0, #1
 8002826:	e7d3      	b.n	80027d0 <ADC_Disable+0x10>

08002828 <HAL_ADC_Stop_DMA>:
 8002828:	b538      	push	{r3, r4, r5, lr}
 800282a:	f890 3050 	ldrb.w	r3, [r0, #80]	; 0x50
 800282e:	2b01      	cmp	r3, #1
 8002830:	4605      	mov	r5, r0
 8002832:	d035      	beq.n	80028a0 <HAL_ADC_Stop_DMA+0x78>
 8002834:	2301      	movs	r3, #1
 8002836:	f880 3050 	strb.w	r3, [r0, #80]	; 0x50
 800283a:	2103      	movs	r1, #3
 800283c:	f7ff fde0 	bl	8002400 <ADC_ConversionStop>
 8002840:	4604      	mov	r4, r0
 8002842:	b9e0      	cbnz	r0, 800287e <HAL_ADC_Stop_DMA+0x56>
 8002844:	682a      	ldr	r2, [r5, #0]
 8002846:	6ce8      	ldr	r0, [r5, #76]	; 0x4c
 8002848:	68d3      	ldr	r3, [r2, #12]
 800284a:	f023 0301 	bic.w	r3, r3, #1
 800284e:	60d3      	str	r3, [r2, #12]
 8002850:	f890 3025 	ldrb.w	r3, [r0, #37]	; 0x25
 8002854:	2b02      	cmp	r3, #2
 8002856:	d107      	bne.n	8002868 <HAL_ADC_Stop_DMA+0x40>
 8002858:	f000 fa3b 	bl	8002cd2 <HAL_DMA_Abort>
 800285c:	4604      	mov	r4, r0
 800285e:	b118      	cbz	r0, 8002868 <HAL_ADC_Stop_DMA+0x40>
 8002860:	6d6b      	ldr	r3, [r5, #84]	; 0x54
 8002862:	f043 0340 	orr.w	r3, r3, #64	; 0x40
 8002866:	656b      	str	r3, [r5, #84]	; 0x54
 8002868:	682a      	ldr	r2, [r5, #0]
 800286a:	6853      	ldr	r3, [r2, #4]
 800286c:	f023 0310 	bic.w	r3, r3, #16
 8002870:	6053      	str	r3, [r2, #4]
 8002872:	4628      	mov	r0, r5
 8002874:	b944      	cbnz	r4, 8002888 <HAL_ADC_Stop_DMA+0x60>
 8002876:	f7ff ffa3 	bl	80027c0 <ADC_Disable>
 800287a:	4604      	mov	r4, r0
 800287c:	b138      	cbz	r0, 800288e <HAL_ADC_Stop_DMA+0x66>
 800287e:	2300      	movs	r3, #0
 8002880:	f885 3050 	strb.w	r3, [r5, #80]	; 0x50
 8002884:	4620      	mov	r0, r4
 8002886:	bd38      	pop	{r3, r4, r5, pc}
 8002888:	f7ff ff9a 	bl	80027c0 <ADC_Disable>
 800288c:	e7f7      	b.n	800287e <HAL_ADC_Stop_DMA+0x56>
 800288e:	6d6b      	ldr	r3, [r5, #84]	; 0x54
 8002890:	f423 5388 	bic.w	r3, r3, #4352	; 0x1100
 8002894:	f023 0301 	bic.w	r3, r3, #1
 8002898:	f043 0301 	orr.w	r3, r3, #1
 800289c:	656b      	str	r3, [r5, #84]	; 0x54
 800289e:	e7ee      	b.n	800287e <HAL_ADC_Stop_DMA+0x56>
 80028a0:	2402      	movs	r4, #2
 80028a2:	e7ef      	b.n	8002884 <HAL_ADC_Stop_DMA+0x5c>

080028a4 <LL_ADC_REG_IsConversionOngoing>:
 80028a4:	6880      	ldr	r0, [r0, #8]
 80028a6:	f3c0 0080 	ubfx	r0, r0, #2, #1
 80028aa:	4770      	bx	lr

080028ac <HAL_ADCEx_Calibration_Start>:
 80028ac:	b573      	push	{r0, r1, r4, r5, r6, lr}
 80028ae:	2300      	movs	r3, #0
 80028b0:	9301      	str	r3, [sp, #4]
 80028b2:	f890 3050 	ldrb.w	r3, [r0, #80]	; 0x50
 80028b6:	2b01      	cmp	r3, #1
 80028b8:	4604      	mov	r4, r0
 80028ba:	460d      	mov	r5, r1
 80028bc:	d03e      	beq.n	800293c <HAL_ADCEx_Calibration_Start+0x90>
 80028be:	2301      	movs	r3, #1
 80028c0:	f880 3050 	strb.w	r3, [r0, #80]	; 0x50
 80028c4:	f7ff ff7c 	bl	80027c0 <ADC_Disable>
 80028c8:	2800      	cmp	r0, #0
 80028ca:	d133      	bne.n	8002934 <HAL_ADCEx_Calibration_Start+0x88>
 80028cc:	6d62      	ldr	r2, [r4, #84]	; 0x54
 80028ce:	6826      	ldr	r6, [r4, #0]
 80028d0:	f422 5288 	bic.w	r2, r2, #4352	; 0x1100
 80028d4:	f022 0202 	bic.w	r2, r2, #2
 80028d8:	f042 0202 	orr.w	r2, r2, #2
 80028dc:	6562      	str	r2, [r4, #84]	; 0x54
 80028de:	68b3      	ldr	r3, [r6, #8]
 80028e0:	f023 4340 	bic.w	r3, r3, #3221225472	; 0xc0000000
 80028e4:	f023 033f 	bic.w	r3, r3, #63	; 0x3f
 80028e8:	f005 4580 	and.w	r5, r5, #1073741824	; 0x40000000
 80028ec:	432b      	orrs	r3, r5
 80028ee:	f043 4300 	orr.w	r3, r3, #2147483648	; 0x80000000
 80028f2:	60b3      	str	r3, [r6, #8]
 80028f4:	68b3      	ldr	r3, [r6, #8]
 80028f6:	2b00      	cmp	r3, #0
 80028f8:	da12      	bge.n	8002920 <HAL_ADCEx_Calibration_Start+0x74>
 80028fa:	9b01      	ldr	r3, [sp, #4]
 80028fc:	3301      	adds	r3, #1
 80028fe:	9301      	str	r3, [sp, #4]
 8002900:	9b01      	ldr	r3, [sp, #4]
 8002902:	f5b3 2f91 	cmp.w	r3, #296960	; 0x48800
 8002906:	d3f5      	bcc.n	80028f4 <HAL_ADCEx_Calibration_Start+0x48>
 8002908:	6d63      	ldr	r3, [r4, #84]	; 0x54
 800290a:	f023 0312 	bic.w	r3, r3, #18
 800290e:	f043 0310 	orr.w	r3, r3, #16
 8002912:	6563      	str	r3, [r4, #84]	; 0x54
 8002914:	2300      	movs	r3, #0
 8002916:	f884 3050 	strb.w	r3, [r4, #80]	; 0x50
 800291a:	2001      	movs	r0, #1
 800291c:	b002      	add	sp, #8
 800291e:	bd70      	pop	{r4, r5, r6, pc}
 8002920:	6d63      	ldr	r3, [r4, #84]	; 0x54
 8002922:	f023 0303 	bic.w	r3, r3, #3
 8002926:	f043 0301 	orr.w	r3, r3, #1
 800292a:	6563      	str	r3, [r4, #84]	; 0x54
 800292c:	2300      	movs	r3, #0
 800292e:	f884 3050 	strb.w	r3, [r4, #80]	; 0x50
 8002932:	e7f3      	b.n	800291c <HAL_ADCEx_Calibration_Start+0x70>
 8002934:	6d63      	ldr	r3, [r4, #84]	; 0x54
 8002936:	f043 0310 	orr.w	r3, r3, #16
 800293a:	e7f6      	b.n	800292a <HAL_ADCEx_Calibration_Start+0x7e>
 800293c:	2002      	movs	r0, #2
 800293e:	e7ed      	b.n	800291c <HAL_ADCEx_Calibration_Start+0x70>

08002940 <HAL_ADCEx_InjectedConvCpltCallback>:
 8002940:	4770      	bx	lr

08002942 <HAL_ADCEx_InjectedQueueOverflowCallback>:
 8002942:	4770      	bx	lr

08002944 <HAL_ADCEx_LevelOutOfWindow2Callback>:
 8002944:	4770      	bx	lr

08002946 <HAL_ADCEx_LevelOutOfWindow3Callback>:
 8002946:	4770      	bx	lr

08002948 <HAL_ADCEx_EndOfSamplingCallback>:
 8002948:	4770      	bx	lr
	...

0800294c <HAL_ADCEx_MultiModeConfigChannel>:
 800294c:	b5f0      	push	{r4, r5, r6, r7, lr}
 800294e:	f890 3050 	ldrb.w	r3, [r0, #80]	; 0x50
 8002952:	2b01      	cmp	r3, #1
 8002954:	b09b      	sub	sp, #108	; 0x6c
 8002956:	4602      	mov	r2, r0
 8002958:	d052      	beq.n	8002a00 <HAL_ADCEx_MultiModeConfigChannel+0xb4>
 800295a:	2301      	movs	r3, #1
 800295c:	f880 3050 	strb.w	r3, [r0, #80]	; 0x50
 8002960:	6817      	ldr	r7, [r2, #0]
 8002962:	4c28      	ldr	r4, [pc, #160]	; (8002a04 <HAL_ADCEx_MultiModeConfigChannel+0xb8>)
 8002964:	2000      	movs	r0, #0
 8002966:	42a7      	cmp	r7, r4
 8002968:	9016      	str	r0, [sp, #88]	; 0x58
 800296a:	9017      	str	r0, [sp, #92]	; 0x5c
 800296c:	d008      	beq.n	8002980 <HAL_ADCEx_MultiModeConfigChannel+0x34>
 800296e:	6d51      	ldr	r1, [r2, #84]	; 0x54
 8002970:	f882 0050 	strb.w	r0, [r2, #80]	; 0x50
 8002974:	f041 0120 	orr.w	r1, r1, #32
 8002978:	6551      	str	r1, [r2, #84]	; 0x54
 800297a:	4618      	mov	r0, r3
 800297c:	b01b      	add	sp, #108	; 0x6c
 800297e:	bdf0      	pop	{r4, r5, r6, r7, pc}
 8002980:	4e21      	ldr	r6, [pc, #132]	; (8002a08 <HAL_ADCEx_MultiModeConfigChannel+0xbc>)
 8002982:	4630      	mov	r0, r6
 8002984:	f7ff ff8e 	bl	80028a4 <LL_ADC_REG_IsConversionOngoing>
 8002988:	4604      	mov	r4, r0
 800298a:	6810      	ldr	r0, [r2, #0]
 800298c:	f7ff ff8a 	bl	80028a4 <LL_ADC_REG_IsConversionOngoing>
 8002990:	4320      	orrs	r0, r4
 8002992:	d130      	bne.n	80029f6 <HAL_ADCEx_MultiModeConfigChannel+0xaa>
 8002994:	4c1d      	ldr	r4, [pc, #116]	; (8002a0c <HAL_ADCEx_MultiModeConfigChannel+0xc0>)
 8002996:	680d      	ldr	r5, [r1, #0]
 8002998:	68a3      	ldr	r3, [r4, #8]
 800299a:	f423 4360 	bic.w	r3, r3, #57344	; 0xe000
 800299e:	b1e5      	cbz	r5, 80029da <HAL_ADCEx_MultiModeConfigChannel+0x8e>
 80029a0:	6848      	ldr	r0, [r1, #4]
 80029a2:	4303      	orrs	r3, r0
 80029a4:	f892 0030 	ldrb.w	r0, [r2, #48]	; 0x30
 80029a8:	ea43 3340 	orr.w	r3, r3, r0, lsl #13
 80029ac:	60a3      	str	r3, [r4, #8]
 80029ae:	68b8      	ldr	r0, [r7, #8]
 80029b0:	68b3      	ldr	r3, [r6, #8]
 80029b2:	4303      	orrs	r3, r0
 80029b4:	f013 0301 	ands.w	r3, r3, #1
 80029b8:	d004      	beq.n	80029c4 <HAL_ADCEx_MultiModeConfigChannel+0x78>
 80029ba:	2000      	movs	r0, #0
 80029bc:	2300      	movs	r3, #0
 80029be:	f882 3050 	strb.w	r3, [r2, #80]	; 0x50
 80029c2:	e7db      	b.n	800297c <HAL_ADCEx_MultiModeConfigChannel+0x30>
 80029c4:	6889      	ldr	r1, [r1, #8]
 80029c6:	68a0      	ldr	r0, [r4, #8]
 80029c8:	430d      	orrs	r5, r1
 80029ca:	f420 6171 	bic.w	r1, r0, #3856	; 0xf10
 80029ce:	f021 010f 	bic.w	r1, r1, #15
 80029d2:	430d      	orrs	r5, r1
 80029d4:	60a5      	str	r5, [r4, #8]
 80029d6:	4618      	mov	r0, r3
 80029d8:	e7f0      	b.n	80029bc <HAL_ADCEx_MultiModeConfigChannel+0x70>
 80029da:	60a3      	str	r3, [r4, #8]
 80029dc:	68b8      	ldr	r0, [r7, #8]
 80029de:	68b3      	ldr	r3, [r6, #8]
 80029e0:	4303      	orrs	r3, r0
 80029e2:	f013 0301 	ands.w	r3, r3, #1
 80029e6:	d1e8      	bne.n	80029ba <HAL_ADCEx_MultiModeConfigChannel+0x6e>
 80029e8:	68a1      	ldr	r1, [r4, #8]
 80029ea:	f421 6171 	bic.w	r1, r1, #3856	; 0xf10
 80029ee:	f021 010f 	bic.w	r1, r1, #15
 80029f2:	60a1      	str	r1, [r4, #8]
 80029f4:	e7ef      	b.n	80029d6 <HAL_ADCEx_MultiModeConfigChannel+0x8a>
 80029f6:	6d51      	ldr	r1, [r2, #84]	; 0x54
 80029f8:	f041 0120 	orr.w	r1, r1, #32
 80029fc:	6551      	str	r1, [r2, #84]	; 0x54
 80029fe:	e7ea      	b.n	80029d6 <HAL_ADCEx_MultiModeConfigChannel+0x8a>
 8002a00:	2002      	movs	r0, #2
 8002a02:	e7bb      	b.n	800297c <HAL_ADCEx_MultiModeConfigChannel+0x30>
 8002a04:	50040000 	.word	0x50040000
 8002a08:	50040100 	.word	0x50040100
 8002a0c:	50040300 	.word	0x50040300

08002a10 <HAL_NVIC_SetPriorityGrouping>:
 8002a10:	4907      	ldr	r1, [pc, #28]	; (8002a30 <HAL_NVIC_SetPriorityGrouping+0x20>)
 8002a12:	68ca      	ldr	r2, [r1, #12]
 8002a14:	f422 62e0 	bic.w	r2, r2, #1792	; 0x700
 8002a18:	0203      	lsls	r3, r0, #8
 8002a1a:	0412      	lsls	r2, r2, #16
 8002a1c:	f403 63e0 	and.w	r3, r3, #1792	; 0x700
 8002a20:	0c12      	lsrs	r2, r2, #16
 8002a22:	4313      	orrs	r3, r2
 8002a24:	f043 63bf 	orr.w	r3, r3, #100139008	; 0x5f80000
 8002a28:	f443 3300 	orr.w	r3, r3, #131072	; 0x20000
 8002a2c:	60cb      	str	r3, [r1, #12]
 8002a2e:	4770      	bx	lr
 8002a30:	e000ed00 	.word	0xe000ed00

08002a34 <HAL_NVIC_SetPriority>:
 8002a34:	4b16      	ldr	r3, [pc, #88]	; (8002a90 <HAL_NVIC_SetPriority+0x5c>)
 8002a36:	b530      	push	{r4, r5, lr}
 8002a38:	68dc      	ldr	r4, [r3, #12]
 8002a3a:	f3c4 2402 	ubfx	r4, r4, #8, #3
 8002a3e:	f1c4 0507 	rsb	r5, r4, #7
 8002a42:	1d23      	adds	r3, r4, #4
 8002a44:	2d04      	cmp	r5, #4
 8002a46:	bf28      	it	cs
 8002a48:	2504      	movcs	r5, #4
 8002a4a:	2b06      	cmp	r3, #6
 8002a4c:	f04f 33ff 	mov.w	r3, #4294967295	; 0xffffffff
 8002a50:	bf8c      	ite	hi
 8002a52:	3c03      	subhi	r4, #3
 8002a54:	2400      	movls	r4, #0
 8002a56:	fa03 f505 	lsl.w	r5, r3, r5
 8002a5a:	ea21 0105 	bic.w	r1, r1, r5
 8002a5e:	40a3      	lsls	r3, r4
 8002a60:	ea22 0203 	bic.w	r2, r2, r3
 8002a64:	40a1      	lsls	r1, r4
 8002a66:	2800      	cmp	r0, #0
 8002a68:	ea41 0302 	orr.w	r3, r1, r2
 8002a6c:	bfac      	ite	ge
 8002a6e:	f100 4060 	addge.w	r0, r0, #3758096384	; 0xe0000000
 8002a72:	4a08      	ldrlt	r2, [pc, #32]	; (8002a94 <HAL_NVIC_SetPriority+0x60>)
 8002a74:	ea4f 1303 	mov.w	r3, r3, lsl #4
 8002a78:	bfb8      	it	lt
 8002a7a:	f000 000f 	andlt.w	r0, r0, #15
 8002a7e:	b2db      	uxtb	r3, r3
 8002a80:	bfaa      	itet	ge
 8002a82:	f500 4061 	addge.w	r0, r0, #57600	; 0xe100
 8002a86:	5413      	strblt	r3, [r2, r0]
 8002a88:	f880 3300 	strbge.w	r3, [r0, #768]	; 0x300
 8002a8c:	bd30      	pop	{r4, r5, pc}
 8002a8e:	bf00      	nop
 8002a90:	e000ed00 	.word	0xe000ed00
 8002a94:	e000ed14 	.word	0xe000ed14

08002a98 <HAL_NVIC_EnableIRQ>:
 8002a98:	2800      	cmp	r0, #0
 8002a9a:	db08      	blt.n	8002aae <HAL_NVIC_EnableIRQ+0x16>
 8002a9c:	2301      	movs	r3, #1
 8002a9e:	0942      	lsrs	r2, r0, #5
 8002aa0:	f000 001f 	and.w	r0, r0, #31
 8002aa4:	fa03 f000 	lsl.w	r0, r3, r0
 8002aa8:	4b01      	ldr	r3, [pc, #4]	; (8002ab0 <HAL_NVIC_EnableIRQ+0x18>)
 8002aaa:	f843 0022 	str.w	r0, [r3, r2, lsl #2]
 8002aae:	4770      	bx	lr
 8002ab0:	e000e100 	.word	0xe000e100

08002ab4 <HAL_SYSTICK_Config>:
 8002ab4:	3801      	subs	r0, #1
 8002ab6:	f1b0 7f80 	cmp.w	r0, #16777216	; 0x1000000
 8002aba:	d20b      	bcs.n	8002ad4 <HAL_SYSTICK_Config+0x20>
 8002abc:	f04f 23e0 	mov.w	r3, #3758153728	; 0xe000e000
 8002ac0:	4a05      	ldr	r2, [pc, #20]	; (8002ad8 <HAL_SYSTICK_Config+0x24>)
 8002ac2:	6158      	str	r0, [r3, #20]
 8002ac4:	21f0      	movs	r1, #240	; 0xf0
 8002ac6:	f882 1023 	strb.w	r1, [r2, #35]	; 0x23
 8002aca:	2000      	movs	r0, #0
 8002acc:	2207      	movs	r2, #7
 8002ace:	6198      	str	r0, [r3, #24]
 8002ad0:	611a      	str	r2, [r3, #16]
 8002ad2:	4770      	bx	lr
 8002ad4:	2001      	movs	r0, #1
 8002ad6:	4770      	bx	lr
 8002ad8:	e000ed00 	.word	0xe000ed00

08002adc <HAL_DMA_Init>:
 8002adc:	b530      	push	{r4, r5, lr}
 8002ade:	2800      	cmp	r0, #0
 8002ae0:	d05b      	beq.n	8002b9a <HAL_DMA_Init+0xbe>
 8002ae2:	6801      	ldr	r1, [r0, #0]
 8002ae4:	4b2e      	ldr	r3, [pc, #184]	; (8002ba0 <HAL_DMA_Init+0xc4>)
 8002ae6:	4299      	cmp	r1, r3
 8002ae8:	f04f 0414 	mov.w	r4, #20
 8002aec:	d842      	bhi.n	8002b74 <HAL_DMA_Init+0x98>
 8002aee:	4a2d      	ldr	r2, [pc, #180]	; (8002ba4 <HAL_DMA_Init+0xc8>)
 8002af0:	440a      	add	r2, r1
 8002af2:	fbb2 f2f4 	udiv	r2, r2, r4
 8002af6:	0092      	lsls	r2, r2, #2
 8002af8:	6442      	str	r2, [r0, #68]	; 0x44
 8002afa:	f2a3 4307 	subw	r3, r3, #1031	; 0x407
 8002afe:	6403      	str	r3, [r0, #64]	; 0x40
 8002b00:	2302      	movs	r3, #2
 8002b02:	f880 3025 	strb.w	r3, [r0, #37]	; 0x25
 8002b06:	e9d0 4302 	ldrd	r4, r3, [r0, #8]
 8002b0a:	6905      	ldr	r5, [r0, #16]
 8002b0c:	680a      	ldr	r2, [r1, #0]
 8002b0e:	4323      	orrs	r3, r4
 8002b10:	432b      	orrs	r3, r5
 8002b12:	6945      	ldr	r5, [r0, #20]
 8002b14:	432b      	orrs	r3, r5
 8002b16:	6985      	ldr	r5, [r0, #24]
 8002b18:	432b      	orrs	r3, r5
 8002b1a:	69c5      	ldr	r5, [r0, #28]
 8002b1c:	432b      	orrs	r3, r5
 8002b1e:	6a05      	ldr	r5, [r0, #32]
 8002b20:	f422 42ff 	bic.w	r2, r2, #32640	; 0x7f80
 8002b24:	f022 0270 	bic.w	r2, r2, #112	; 0x70
 8002b28:	432b      	orrs	r3, r5
 8002b2a:	4313      	orrs	r3, r2
 8002b2c:	f5b4 4f80 	cmp.w	r4, #16384	; 0x4000
 8002b30:	600b      	str	r3, [r1, #0]
 8002b32:	d016      	beq.n	8002b62 <HAL_DMA_Init+0x86>
 8002b34:	6c44      	ldr	r4, [r0, #68]	; 0x44
 8002b36:	6c01      	ldr	r1, [r0, #64]	; 0x40
 8002b38:	f004 021c 	and.w	r2, r4, #28
 8002b3c:	6844      	ldr	r4, [r0, #4]
 8002b3e:	230f      	movs	r3, #15
 8002b40:	4093      	lsls	r3, r2
 8002b42:	4094      	lsls	r4, r2
 8002b44:	4a18      	ldr	r2, [pc, #96]	; (8002ba8 <HAL_DMA_Init+0xcc>)
 8002b46:	4291      	cmp	r1, r2
 8002b48:	ea6f 0303 	mvn.w	r3, r3
 8002b4c:	d11a      	bne.n	8002b84 <HAL_DMA_Init+0xa8>
 8002b4e:	f8d1 20a8 	ldr.w	r2, [r1, #168]	; 0xa8
 8002b52:	4013      	ands	r3, r2
 8002b54:	f8c1 30a8 	str.w	r3, [r1, #168]	; 0xa8
 8002b58:	f8d1 30a8 	ldr.w	r3, [r1, #168]	; 0xa8
 8002b5c:	431c      	orrs	r4, r3
 8002b5e:	f8c1 40a8 	str.w	r4, [r1, #168]	; 0xa8
 8002b62:	2300      	movs	r3, #0
 8002b64:	2201      	movs	r2, #1
 8002b66:	63c3      	str	r3, [r0, #60]	; 0x3c
 8002b68:	f880 3024 	strb.w	r3, [r0, #36]	; 0x24
 8002b6c:	f880 2025 	strb.w	r2, [r0, #37]	; 0x25
 8002b70:	4618      	mov	r0, r3
 8002b72:	bd30      	pop	{r4, r5, pc}
 8002b74:	4b0d      	ldr	r3, [pc, #52]	; (8002bac <HAL_DMA_Init+0xd0>)
 8002b76:	440b      	add	r3, r1
 8002b78:	fbb3 f3f4 	udiv	r3, r3, r4
 8002b7c:	009b      	lsls	r3, r3, #2
 8002b7e:	6443      	str	r3, [r0, #68]	; 0x44
 8002b80:	4b0b      	ldr	r3, [pc, #44]	; (8002bb0 <HAL_DMA_Init+0xd4>)
 8002b82:	e7bc      	b.n	8002afe <HAL_DMA_Init+0x22>
 8002b84:	f8d2 14a8 	ldr.w	r1, [r2, #1192]	; 0x4a8
 8002b88:	400b      	ands	r3, r1
 8002b8a:	f8c2 34a8 	str.w	r3, [r2, #1192]	; 0x4a8
 8002b8e:	f8d2 34a8 	ldr.w	r3, [r2, #1192]	; 0x4a8
 8002b92:	431c      	orrs	r4, r3
 8002b94:	f8c2 44a8 	str.w	r4, [r2, #1192]	; 0x4a8
 8002b98:	e7e3      	b.n	8002b62 <HAL_DMA_Init+0x86>
 8002b9a:	2001      	movs	r0, #1
 8002b9c:	e7e9      	b.n	8002b72 <HAL_DMA_Init+0x96>
 8002b9e:	bf00      	nop
 8002ba0:	40020407 	.word	0x40020407
 8002ba4:	bffdfff8 	.word	0xbffdfff8
 8002ba8:	40020000 	.word	0x40020000
 8002bac:	bffdfbf8 	.word	0xbffdfbf8
 8002bb0:	40020400 	.word	0x40020400

08002bb4 <HAL_DMA_DeInit>:
 8002bb4:	b510      	push	{r4, lr}
 8002bb6:	2800      	cmp	r0, #0
 8002bb8:	d040      	beq.n	8002c3c <HAL_DMA_DeInit+0x88>
 8002bba:	6801      	ldr	r1, [r0, #0]
 8002bbc:	680b      	ldr	r3, [r1, #0]
 8002bbe:	f023 0301 	bic.w	r3, r3, #1
 8002bc2:	600b      	str	r3, [r1, #0]
 8002bc4:	4b1e      	ldr	r3, [pc, #120]	; (8002c40 <HAL_DMA_DeInit+0x8c>)
 8002bc6:	4299      	cmp	r1, r3
 8002bc8:	f04f 0414 	mov.w	r4, #20
 8002bcc:	d82e      	bhi.n	8002c2c <HAL_DMA_DeInit+0x78>
 8002bce:	4a1d      	ldr	r2, [pc, #116]	; (8002c44 <HAL_DMA_DeInit+0x90>)
 8002bd0:	440a      	add	r2, r1
 8002bd2:	fbb2 f2f4 	udiv	r2, r2, r4
 8002bd6:	0092      	lsls	r2, r2, #2
 8002bd8:	6442      	str	r2, [r0, #68]	; 0x44
 8002bda:	f2a3 4307 	subw	r3, r3, #1031	; 0x407
 8002bde:	6c42      	ldr	r2, [r0, #68]	; 0x44
 8002be0:	6403      	str	r3, [r0, #64]	; 0x40
 8002be2:	2300      	movs	r3, #0
 8002be4:	600b      	str	r3, [r1, #0]
 8002be6:	f002 041c 	and.w	r4, r2, #28
 8002bea:	6c01      	ldr	r1, [r0, #64]	; 0x40
 8002bec:	2201      	movs	r2, #1
 8002bee:	40a2      	lsls	r2, r4
 8002bf0:	604a      	str	r2, [r1, #4]
 8002bf2:	220f      	movs	r2, #15
 8002bf4:	40a2      	lsls	r2, r4
 8002bf6:	4c14      	ldr	r4, [pc, #80]	; (8002c48 <HAL_DMA_DeInit+0x94>)
 8002bf8:	42a1      	cmp	r1, r4
 8002bfa:	bf0c      	ite	eq
 8002bfc:	f8d1 40a8 	ldreq.w	r4, [r1, #168]	; 0xa8
 8002c00:	f8d4 14a8 	ldrne.w	r1, [r4, #1192]	; 0x4a8
 8002c04:	ea6f 0202 	mvn.w	r2, r2
 8002c08:	bf0b      	itete	eq
 8002c0a:	4022      	andeq	r2, r4
 8002c0c:	400a      	andne	r2, r1
 8002c0e:	f8c1 20a8 	streq.w	r2, [r1, #168]	; 0xa8
 8002c12:	f8c4 24a8 	strne.w	r2, [r4, #1192]	; 0x4a8
 8002c16:	63c3      	str	r3, [r0, #60]	; 0x3c
 8002c18:	e9c0 330b 	strd	r3, r3, [r0, #44]	; 0x2c
 8002c1c:	e9c0 330d 	strd	r3, r3, [r0, #52]	; 0x34
 8002c20:	f880 3025 	strb.w	r3, [r0, #37]	; 0x25
 8002c24:	f880 3024 	strb.w	r3, [r0, #36]	; 0x24
 8002c28:	2000      	movs	r0, #0
 8002c2a:	bd10      	pop	{r4, pc}
 8002c2c:	4b07      	ldr	r3, [pc, #28]	; (8002c4c <HAL_DMA_DeInit+0x98>)
 8002c2e:	440b      	add	r3, r1
 8002c30:	fbb3 f3f4 	udiv	r3, r3, r4
 8002c34:	009b      	lsls	r3, r3, #2
 8002c36:	6443      	str	r3, [r0, #68]	; 0x44
 8002c38:	4b05      	ldr	r3, [pc, #20]	; (8002c50 <HAL_DMA_DeInit+0x9c>)
 8002c3a:	e7d0      	b.n	8002bde <HAL_DMA_DeInit+0x2a>
 8002c3c:	2001      	movs	r0, #1
 8002c3e:	e7f4      	b.n	8002c2a <HAL_DMA_DeInit+0x76>
 8002c40:	40020407 	.word	0x40020407
 8002c44:	bffdfff8 	.word	0xbffdfff8
 8002c48:	40020000 	.word	0x40020000
 8002c4c:	bffdfbf8 	.word	0xbffdfbf8
 8002c50:	40020400 	.word	0x40020400

08002c54 <HAL_DMA_Start_IT>:
 8002c54:	b5f0      	push	{r4, r5, r6, r7, lr}
 8002c56:	f890 4024 	ldrb.w	r4, [r0, #36]	; 0x24
 8002c5a:	2c01      	cmp	r4, #1
 8002c5c:	d037      	beq.n	8002cce <HAL_DMA_Start_IT+0x7a>
 8002c5e:	2401      	movs	r4, #1
 8002c60:	f880 4024 	strb.w	r4, [r0, #36]	; 0x24
 8002c64:	f890 4025 	ldrb.w	r4, [r0, #37]	; 0x25
 8002c68:	2c01      	cmp	r4, #1
 8002c6a:	b2e5      	uxtb	r5, r4
 8002c6c:	f04f 0600 	mov.w	r6, #0
 8002c70:	f04f 0402 	mov.w	r4, #2
 8002c74:	d129      	bne.n	8002cca <HAL_DMA_Start_IT+0x76>
 8002c76:	f880 4025 	strb.w	r4, [r0, #37]	; 0x25
 8002c7a:	6804      	ldr	r4, [r0, #0]
 8002c7c:	63c6      	str	r6, [r0, #60]	; 0x3c
 8002c7e:	6826      	ldr	r6, [r4, #0]
 8002c80:	f026 0601 	bic.w	r6, r6, #1
 8002c84:	6026      	str	r6, [r4, #0]
 8002c86:	e9d0 6710 	ldrd	r6, r7, [r0, #64]	; 0x40
 8002c8a:	f007 071c 	and.w	r7, r7, #28
 8002c8e:	40bd      	lsls	r5, r7
 8002c90:	6075      	str	r5, [r6, #4]
 8002c92:	6063      	str	r3, [r4, #4]
 8002c94:	6883      	ldr	r3, [r0, #8]
 8002c96:	2b10      	cmp	r3, #16
 8002c98:	6b03      	ldr	r3, [r0, #48]	; 0x30
 8002c9a:	bf0b      	itete	eq
 8002c9c:	60a2      	streq	r2, [r4, #8]
 8002c9e:	60a1      	strne	r1, [r4, #8]
 8002ca0:	60e1      	streq	r1, [r4, #12]
 8002ca2:	60e2      	strne	r2, [r4, #12]
 8002ca4:	b14b      	cbz	r3, 8002cba <HAL_DMA_Start_IT+0x66>
 8002ca6:	6823      	ldr	r3, [r4, #0]
 8002ca8:	f043 030e 	orr.w	r3, r3, #14
 8002cac:	6023      	str	r3, [r4, #0]
 8002cae:	6823      	ldr	r3, [r4, #0]
 8002cb0:	f043 0301 	orr.w	r3, r3, #1
 8002cb4:	6023      	str	r3, [r4, #0]
 8002cb6:	2000      	movs	r0, #0
 8002cb8:	bdf0      	pop	{r4, r5, r6, r7, pc}
 8002cba:	6823      	ldr	r3, [r4, #0]
 8002cbc:	f023 0304 	bic.w	r3, r3, #4
 8002cc0:	6023      	str	r3, [r4, #0]
 8002cc2:	6823      	ldr	r3, [r4, #0]
 8002cc4:	f043 030a 	orr.w	r3, r3, #10
 8002cc8:	e7f0      	b.n	8002cac <HAL_DMA_Start_IT+0x58>
 8002cca:	f880 6024 	strb.w	r6, [r0, #36]	; 0x24
 8002cce:	2002      	movs	r0, #2
 8002cd0:	e7f2      	b.n	8002cb8 <HAL_DMA_Start_IT+0x64>

08002cd2 <HAL_DMA_Abort>:
 8002cd2:	f890 3025 	ldrb.w	r3, [r0, #37]	; 0x25
 8002cd6:	2b02      	cmp	r3, #2
 8002cd8:	d006      	beq.n	8002ce8 <HAL_DMA_Abort+0x16>
 8002cda:	2304      	movs	r3, #4
 8002cdc:	63c3      	str	r3, [r0, #60]	; 0x3c
 8002cde:	2300      	movs	r3, #0
 8002ce0:	f880 3024 	strb.w	r3, [r0, #36]	; 0x24
 8002ce4:	2001      	movs	r0, #1
 8002ce6:	4770      	bx	lr
 8002ce8:	6803      	ldr	r3, [r0, #0]
 8002cea:	681a      	ldr	r2, [r3, #0]
 8002cec:	f022 020e 	bic.w	r2, r2, #14
 8002cf0:	601a      	str	r2, [r3, #0]
 8002cf2:	681a      	ldr	r2, [r3, #0]
 8002cf4:	f022 0201 	bic.w	r2, r2, #1
 8002cf8:	601a      	str	r2, [r3, #0]
 8002cfa:	e9d0 1310 	ldrd	r1, r3, [r0, #64]	; 0x40
 8002cfe:	2201      	movs	r2, #1
 8002d00:	f003 031c 	and.w	r3, r3, #28
 8002d04:	fa02 f303 	lsl.w	r3, r2, r3
 8002d08:	604b      	str	r3, [r1, #4]
 8002d0a:	2300      	movs	r3, #0
 8002d0c:	f880 2025 	strb.w	r2, [r0, #37]	; 0x25
 8002d10:	f880 3024 	strb.w	r3, [r0, #36]	; 0x24
 8002d14:	4618      	mov	r0, r3
 8002d16:	4770      	bx	lr

08002d18 <HAL_DMA_IRQHandler>:
 8002d18:	6c01      	ldr	r1, [r0, #64]	; 0x40
 8002d1a:	6c42      	ldr	r2, [r0, #68]	; 0x44
 8002d1c:	6803      	ldr	r3, [r0, #0]
 8002d1e:	b470      	push	{r4, r5, r6}
 8002d20:	f002 021c 	and.w	r2, r2, #28
 8002d24:	680e      	ldr	r6, [r1, #0]
 8002d26:	681d      	ldr	r5, [r3, #0]
 8002d28:	2404      	movs	r4, #4
 8002d2a:	4094      	lsls	r4, r2
 8002d2c:	4234      	tst	r4, r6
 8002d2e:	d00e      	beq.n	8002d4e <HAL_DMA_IRQHandler+0x36>
 8002d30:	f015 0f04 	tst.w	r5, #4
 8002d34:	d00b      	beq.n	8002d4e <HAL_DMA_IRQHandler+0x36>
 8002d36:	681a      	ldr	r2, [r3, #0]
 8002d38:	0692      	lsls	r2, r2, #26
 8002d3a:	bf5e      	ittt	pl
 8002d3c:	681a      	ldrpl	r2, [r3, #0]
 8002d3e:	f022 0204 	bicpl.w	r2, r2, #4
 8002d42:	601a      	strpl	r2, [r3, #0]
 8002d44:	6b03      	ldr	r3, [r0, #48]	; 0x30
 8002d46:	604c      	str	r4, [r1, #4]
 8002d48:	b373      	cbz	r3, 8002da8 <HAL_DMA_IRQHandler+0x90>
 8002d4a:	bc70      	pop	{r4, r5, r6}
 8002d4c:	4718      	bx	r3
 8002d4e:	2402      	movs	r4, #2
 8002d50:	4094      	lsls	r4, r2
 8002d52:	4234      	tst	r4, r6
 8002d54:	d012      	beq.n	8002d7c <HAL_DMA_IRQHandler+0x64>
 8002d56:	f015 0f02 	tst.w	r5, #2
 8002d5a:	d00f      	beq.n	8002d7c <HAL_DMA_IRQHandler+0x64>
 8002d5c:	681a      	ldr	r2, [r3, #0]
 8002d5e:	0695      	lsls	r5, r2, #26
 8002d60:	d406      	bmi.n	8002d70 <HAL_DMA_IRQHandler+0x58>
 8002d62:	681a      	ldr	r2, [r3, #0]
 8002d64:	f022 020a 	bic.w	r2, r2, #10
 8002d68:	601a      	str	r2, [r3, #0]
 8002d6a:	2301      	movs	r3, #1
 8002d6c:	f880 3025 	strb.w	r3, [r0, #37]	; 0x25
 8002d70:	2300      	movs	r3, #0
 8002d72:	604c      	str	r4, [r1, #4]
 8002d74:	f880 3024 	strb.w	r3, [r0, #36]	; 0x24
 8002d78:	6ac3      	ldr	r3, [r0, #44]	; 0x2c
 8002d7a:	e7e5      	b.n	8002d48 <HAL_DMA_IRQHandler+0x30>
 8002d7c:	2408      	movs	r4, #8
 8002d7e:	4094      	lsls	r4, r2
 8002d80:	4234      	tst	r4, r6
 8002d82:	d011      	beq.n	8002da8 <HAL_DMA_IRQHandler+0x90>
 8002d84:	072c      	lsls	r4, r5, #28
 8002d86:	d50f      	bpl.n	8002da8 <HAL_DMA_IRQHandler+0x90>
 8002d88:	681c      	ldr	r4, [r3, #0]
 8002d8a:	f024 040e 	bic.w	r4, r4, #14
 8002d8e:	601c      	str	r4, [r3, #0]
 8002d90:	2301      	movs	r3, #1
 8002d92:	fa03 f202 	lsl.w	r2, r3, r2
 8002d96:	604a      	str	r2, [r1, #4]
 8002d98:	63c3      	str	r3, [r0, #60]	; 0x3c
 8002d9a:	f880 3025 	strb.w	r3, [r0, #37]	; 0x25
 8002d9e:	2300      	movs	r3, #0
 8002da0:	f880 3024 	strb.w	r3, [r0, #36]	; 0x24
 8002da4:	6b43      	ldr	r3, [r0, #52]	; 0x34
 8002da6:	e7cf      	b.n	8002d48 <HAL_DMA_IRQHandler+0x30>
 8002da8:	bc70      	pop	{r4, r5, r6}
 8002daa:	4770      	bx	lr

08002dac <FLASH_Program_Fast>:
 8002dac:	4a09      	ldr	r2, [pc, #36]	; (8002dd4 <FLASH_Program_Fast+0x28>)
 8002dae:	6953      	ldr	r3, [r2, #20]
 8002db0:	f443 2380 	orr.w	r3, r3, #262144	; 0x40000
 8002db4:	b510      	push	{r4, lr}
 8002db6:	6153      	str	r3, [r2, #20]
 8002db8:	f3ef 8210 	mrs	r2, PRIMASK
 8002dbc:	b672      	cpsid	i
 8002dbe:	2300      	movs	r3, #0
 8002dc0:	58cc      	ldr	r4, [r1, r3]
 8002dc2:	50c4      	str	r4, [r0, r3]
 8002dc4:	3304      	adds	r3, #4
 8002dc6:	f5b3 7f80 	cmp.w	r3, #256	; 0x100
 8002dca:	d1f9      	bne.n	8002dc0 <FLASH_Program_Fast+0x14>
 8002dcc:	f382 8810 	msr	PRIMASK, r2
 8002dd0:	bd10      	pop	{r4, pc}
 8002dd2:	bf00      	nop
 8002dd4:	40022000 	.word	0x40022000

08002dd8 <HAL_FLASH_Unlock>:
 8002dd8:	4b06      	ldr	r3, [pc, #24]	; (8002df4 <HAL_FLASH_Unlock+0x1c>)
 8002dda:	695a      	ldr	r2, [r3, #20]
 8002ddc:	2a00      	cmp	r2, #0
 8002dde:	bfbf      	itttt	lt
 8002de0:	4a05      	ldrlt	r2, [pc, #20]	; (8002df8 <HAL_FLASH_Unlock+0x20>)
 8002de2:	609a      	strlt	r2, [r3, #8]
 8002de4:	f102 3288 	addlt.w	r2, r2, #2290649224	; 0x88888888
 8002de8:	609a      	strlt	r2, [r3, #8]
 8002dea:	bfba      	itte	lt
 8002dec:	6958      	ldrlt	r0, [r3, #20]
 8002dee:	0fc0      	lsrlt	r0, r0, #31
 8002df0:	2000      	movge	r0, #0
 8002df2:	4770      	bx	lr
 8002df4:	40022000 	.word	0x40022000
 8002df8:	45670123 	.word	0x45670123

08002dfc <HAL_FLASH_Lock>:
 8002dfc:	4a03      	ldr	r2, [pc, #12]	; (8002e0c <HAL_FLASH_Lock+0x10>)
 8002dfe:	6953      	ldr	r3, [r2, #20]
 8002e00:	f043 4300 	orr.w	r3, r3, #2147483648	; 0x80000000
 8002e04:	6153      	str	r3, [r2, #20]
 8002e06:	2000      	movs	r0, #0
 8002e08:	4770      	bx	lr
 8002e0a:	bf00      	nop
 8002e0c:	40022000 	.word	0x40022000

08002e10 <FLASH_WaitForLastOperation>:
 8002e10:	b570      	push	{r4, r5, r6, lr}
 8002e12:	4605      	mov	r5, r0
 8002e14:	f7fe feb4 	bl	8001b80 <HAL_GetTick>
 8002e18:	4c10      	ldr	r4, [pc, #64]	; (8002e5c <FLASH_WaitForLastOperation+0x4c>)
 8002e1a:	4606      	mov	r6, r0
 8002e1c:	6923      	ldr	r3, [r4, #16]
 8002e1e:	03db      	lsls	r3, r3, #15
 8002e20:	d40a      	bmi.n	8002e38 <FLASH_WaitForLastOperation+0x28>
 8002e22:	6920      	ldr	r0, [r4, #16]
 8002e24:	4a0e      	ldr	r2, [pc, #56]	; (8002e60 <FLASH_WaitForLastOperation+0x50>)
 8002e26:	4002      	ands	r2, r0
 8002e28:	d00f      	beq.n	8002e4a <FLASH_WaitForLastOperation+0x3a>
 8002e2a:	490e      	ldr	r1, [pc, #56]	; (8002e64 <FLASH_WaitForLastOperation+0x54>)
 8002e2c:	684b      	ldr	r3, [r1, #4]
 8002e2e:	4313      	orrs	r3, r2
 8002e30:	604b      	str	r3, [r1, #4]
 8002e32:	2001      	movs	r0, #1
 8002e34:	6122      	str	r2, [r4, #16]
 8002e36:	bd70      	pop	{r4, r5, r6, pc}
 8002e38:	1c6a      	adds	r2, r5, #1
 8002e3a:	d0ef      	beq.n	8002e1c <FLASH_WaitForLastOperation+0xc>
 8002e3c:	f7fe fea0 	bl	8001b80 <HAL_GetTick>
 8002e40:	1b80      	subs	r0, r0, r6
 8002e42:	42a8      	cmp	r0, r5
 8002e44:	d3ea      	bcc.n	8002e1c <FLASH_WaitForLastOperation+0xc>
 8002e46:	2003      	movs	r0, #3
 8002e48:	e7f5      	b.n	8002e36 <FLASH_WaitForLastOperation+0x26>
 8002e4a:	6920      	ldr	r0, [r4, #16]
 8002e4c:	f010 0001 	ands.w	r0, r0, #1
 8002e50:	d0f1      	beq.n	8002e36 <FLASH_WaitForLastOperation+0x26>
 8002e52:	2301      	movs	r3, #1
 8002e54:	6123      	str	r3, [r4, #16]
 8002e56:	4610      	mov	r0, r2
 8002e58:	e7ed      	b.n	8002e36 <FLASH_WaitForLastOperation+0x26>
 8002e5a:	bf00      	nop
 8002e5c:	40022000 	.word	0x40022000
 8002e60:	0002c3fa 	.word	0x0002c3fa
 8002e64:	20000014 	.word	0x20000014

08002e68 <HAL_FLASH_Program>:
 8002e68:	e92d 43f8 	stmdb	sp!, {r3, r4, r5, r6, r7, r8, r9, lr}
 8002e6c:	4c25      	ldr	r4, [pc, #148]	; (8002f04 <HAL_FLASH_Program+0x9c>)
 8002e6e:	4699      	mov	r9, r3
 8002e70:	7823      	ldrb	r3, [r4, #0]
 8002e72:	2b01      	cmp	r3, #1
 8002e74:	4606      	mov	r6, r0
 8002e76:	460f      	mov	r7, r1
 8002e78:	4690      	mov	r8, r2
 8002e7a:	d041      	beq.n	8002f00 <HAL_FLASH_Program+0x98>
 8002e7c:	2301      	movs	r3, #1
 8002e7e:	f24c 3050 	movw	r0, #50000	; 0xc350
 8002e82:	7023      	strb	r3, [r4, #0]
 8002e84:	f7ff ffc4 	bl	8002e10 <FLASH_WaitForLastOperation>
 8002e88:	4605      	mov	r5, r0
 8002e8a:	bb30      	cbnz	r0, 8002eda <HAL_FLASH_Program+0x72>
 8002e8c:	6060      	str	r0, [r4, #4]
 8002e8e:	481e      	ldr	r0, [pc, #120]	; (8002f08 <HAL_FLASH_Program+0xa0>)
 8002e90:	6802      	ldr	r2, [r0, #0]
 8002e92:	f412 6280 	ands.w	r2, r2, #1024	; 0x400
 8002e96:	bf17      	itett	ne
 8002e98:	6803      	ldrne	r3, [r0, #0]
 8002e9a:	7722      	strbeq	r2, [r4, #28]
 8002e9c:	f423 6380 	bicne.w	r3, r3, #1024	; 0x400
 8002ea0:	6003      	strne	r3, [r0, #0]
 8002ea2:	bf1c      	itt	ne
 8002ea4:	2302      	movne	r3, #2
 8002ea6:	7723      	strbne	r3, [r4, #28]
 8002ea8:	b9e6      	cbnz	r6, 8002ee4 <HAL_FLASH_Program+0x7c>
 8002eaa:	6943      	ldr	r3, [r0, #20]
 8002eac:	f043 0301 	orr.w	r3, r3, #1
 8002eb0:	6143      	str	r3, [r0, #20]
 8002eb2:	f8c7 8000 	str.w	r8, [r7]
 8002eb6:	f3bf 8f6f 	isb	sy
 8002eba:	2601      	movs	r6, #1
 8002ebc:	f8c7 9004 	str.w	r9, [r7, #4]
 8002ec0:	f24c 3050 	movw	r0, #50000	; 0xc350
 8002ec4:	f7ff ffa4 	bl	8002e10 <FLASH_WaitForLastOperation>
 8002ec8:	4605      	mov	r5, r0
 8002eca:	b126      	cbz	r6, 8002ed6 <HAL_FLASH_Program+0x6e>
 8002ecc:	4a0e      	ldr	r2, [pc, #56]	; (8002f08 <HAL_FLASH_Program+0xa0>)
 8002ece:	6953      	ldr	r3, [r2, #20]
 8002ed0:	ea23 0606 	bic.w	r6, r3, r6
 8002ed4:	6156      	str	r6, [r2, #20]
 8002ed6:	f000 f83d 	bl	8002f54 <FLASH_FlushCaches>
 8002eda:	2300      	movs	r3, #0
 8002edc:	7023      	strb	r3, [r4, #0]
 8002ede:	4628      	mov	r0, r5
 8002ee0:	e8bd 83f8 	ldmia.w	sp!, {r3, r4, r5, r6, r7, r8, r9, pc}
 8002ee4:	1e73      	subs	r3, r6, #1
 8002ee6:	2b01      	cmp	r3, #1
 8002ee8:	d901      	bls.n	8002eee <HAL_FLASH_Program+0x86>
 8002eea:	2600      	movs	r6, #0
 8002eec:	e7e8      	b.n	8002ec0 <HAL_FLASH_Program+0x58>
 8002eee:	4641      	mov	r1, r8
 8002ef0:	4638      	mov	r0, r7
 8002ef2:	f7ff ff5b 	bl	8002dac <FLASH_Program_Fast>
 8002ef6:	2e02      	cmp	r6, #2
 8002ef8:	d1f7      	bne.n	8002eea <HAL_FLASH_Program+0x82>
 8002efa:	f44f 2680 	mov.w	r6, #262144	; 0x40000
 8002efe:	e7df      	b.n	8002ec0 <HAL_FLASH_Program+0x58>
 8002f00:	2502      	movs	r5, #2
 8002f02:	e7ec      	b.n	8002ede <HAL_FLASH_Program+0x76>
 8002f04:	20000014 	.word	0x20000014
 8002f08:	40022000 	.word	0x40022000

08002f0c <FLASH_MassErase>:
 8002f0c:	4b06      	ldr	r3, [pc, #24]	; (8002f28 <FLASH_MassErase+0x1c>)
 8002f0e:	f010 0f01 	tst.w	r0, #1
 8002f12:	bf1e      	ittt	ne
 8002f14:	695a      	ldrne	r2, [r3, #20]
 8002f16:	f042 0204 	orrne.w	r2, r2, #4
 8002f1a:	615a      	strne	r2, [r3, #20]
 8002f1c:	695a      	ldr	r2, [r3, #20]
 8002f1e:	f442 3280 	orr.w	r2, r2, #65536	; 0x10000
 8002f22:	615a      	str	r2, [r3, #20]
 8002f24:	4770      	bx	lr
 8002f26:	bf00      	nop
 8002f28:	40022000 	.word	0x40022000

08002f2c <FLASH_PageErase>:
 8002f2c:	4b08      	ldr	r3, [pc, #32]	; (8002f50 <FLASH_PageErase+0x24>)
 8002f2e:	695a      	ldr	r2, [r3, #20]
 8002f30:	00c0      	lsls	r0, r0, #3
 8002f32:	f422 72fc 	bic.w	r2, r2, #504	; 0x1f8
 8002f36:	f400 60ff 	and.w	r0, r0, #2040	; 0x7f8
 8002f3a:	4310      	orrs	r0, r2
 8002f3c:	6158      	str	r0, [r3, #20]
 8002f3e:	695a      	ldr	r2, [r3, #20]
 8002f40:	f042 0202 	orr.w	r2, r2, #2
 8002f44:	615a      	str	r2, [r3, #20]
 8002f46:	695a      	ldr	r2, [r3, #20]
 8002f48:	f442 3280 	orr.w	r2, r2, #65536	; 0x10000
 8002f4c:	615a      	str	r2, [r3, #20]
 8002f4e:	4770      	bx	lr
 8002f50:	40022000 	.word	0x40022000

08002f54 <FLASH_FlushCaches>:
 8002f54:	4815      	ldr	r0, [pc, #84]	; (8002fac <FLASH_FlushCaches+0x58>)
 8002f56:	7f03      	ldrb	r3, [r0, #28]
 8002f58:	b2da      	uxtb	r2, r3
 8002f5a:	f003 03fd 	and.w	r3, r3, #253	; 0xfd
 8002f5e:	2b01      	cmp	r3, #1
 8002f60:	d110      	bne.n	8002f84 <FLASH_FlushCaches+0x30>
 8002f62:	4b13      	ldr	r3, [pc, #76]	; (8002fb0 <FLASH_FlushCaches+0x5c>)
 8002f64:	6819      	ldr	r1, [r3, #0]
 8002f66:	f421 7100 	bic.w	r1, r1, #512	; 0x200
 8002f6a:	6019      	str	r1, [r3, #0]
 8002f6c:	6819      	ldr	r1, [r3, #0]
 8002f6e:	f441 6100 	orr.w	r1, r1, #2048	; 0x800
 8002f72:	6019      	str	r1, [r3, #0]
 8002f74:	6819      	ldr	r1, [r3, #0]
 8002f76:	f421 6100 	bic.w	r1, r1, #2048	; 0x800
 8002f7a:	6019      	str	r1, [r3, #0]
 8002f7c:	6819      	ldr	r1, [r3, #0]
 8002f7e:	f441 7100 	orr.w	r1, r1, #512	; 0x200
 8002f82:	6019      	str	r1, [r3, #0]
 8002f84:	1e93      	subs	r3, r2, #2
 8002f86:	2b01      	cmp	r3, #1
 8002f88:	d80c      	bhi.n	8002fa4 <FLASH_FlushCaches+0x50>
 8002f8a:	4b09      	ldr	r3, [pc, #36]	; (8002fb0 <FLASH_FlushCaches+0x5c>)
 8002f8c:	681a      	ldr	r2, [r3, #0]
 8002f8e:	f442 5280 	orr.w	r2, r2, #4096	; 0x1000
 8002f92:	601a      	str	r2, [r3, #0]
 8002f94:	681a      	ldr	r2, [r3, #0]
 8002f96:	f422 5280 	bic.w	r2, r2, #4096	; 0x1000
 8002f9a:	601a      	str	r2, [r3, #0]
 8002f9c:	681a      	ldr	r2, [r3, #0]
 8002f9e:	f442 6280 	orr.w	r2, r2, #1024	; 0x400
 8002fa2:	601a      	str	r2, [r3, #0]
 8002fa4:	2300      	movs	r3, #0
 8002fa6:	7703      	strb	r3, [r0, #28]
 8002fa8:	4770      	bx	lr
 8002faa:	bf00      	nop
 8002fac:	20000014 	.word	0x20000014
 8002fb0:	40022000 	.word	0x40022000

08002fb4 <HAL_FLASHEx_Erase>:
 8002fb4:	e92d 43f8 	stmdb	sp!, {r3, r4, r5, r6, r7, r8, r9, lr}
 8002fb8:	4d31      	ldr	r5, [pc, #196]	; (8003080 <HAL_FLASHEx_Erase+0xcc>)
 8002fba:	782b      	ldrb	r3, [r5, #0]
 8002fbc:	2b01      	cmp	r3, #1
 8002fbe:	4606      	mov	r6, r0
 8002fc0:	4688      	mov	r8, r1
 8002fc2:	d05a      	beq.n	800307a <HAL_FLASHEx_Erase+0xc6>
 8002fc4:	2701      	movs	r7, #1
 8002fc6:	f24c 3050 	movw	r0, #50000	; 0xc350
 8002fca:	702f      	strb	r7, [r5, #0]
 8002fcc:	f7ff ff20 	bl	8002e10 <FLASH_WaitForLastOperation>
 8002fd0:	4604      	mov	r4, r0
 8002fd2:	bb10      	cbnz	r0, 800301a <HAL_FLASHEx_Erase+0x66>
 8002fd4:	4b2b      	ldr	r3, [pc, #172]	; (8003084 <HAL_FLASHEx_Erase+0xd0>)
 8002fd6:	6068      	str	r0, [r5, #4]
 8002fd8:	681a      	ldr	r2, [r3, #0]
 8002fda:	f412 7f00 	tst.w	r2, #512	; 0x200
 8002fde:	681a      	ldr	r2, [r3, #0]
 8002fe0:	d020      	beq.n	8003024 <HAL_FLASHEx_Erase+0x70>
 8002fe2:	0551      	lsls	r1, r2, #21
 8002fe4:	d506      	bpl.n	8002ff4 <HAL_FLASHEx_Erase+0x40>
 8002fe6:	681a      	ldr	r2, [r3, #0]
 8002fe8:	f422 6280 	bic.w	r2, r2, #1024	; 0x400
 8002fec:	601a      	str	r2, [r3, #0]
 8002fee:	2303      	movs	r3, #3
 8002ff0:	772b      	strb	r3, [r5, #28]
 8002ff2:	e000      	b.n	8002ff6 <HAL_FLASHEx_Erase+0x42>
 8002ff4:	772f      	strb	r7, [r5, #28]
 8002ff6:	6833      	ldr	r3, [r6, #0]
 8002ff8:	2b01      	cmp	r3, #1
 8002ffa:	d11d      	bne.n	8003038 <HAL_FLASHEx_Erase+0x84>
 8002ffc:	6870      	ldr	r0, [r6, #4]
 8002ffe:	f7ff ff85 	bl	8002f0c <FLASH_MassErase>
 8003002:	f24c 3050 	movw	r0, #50000	; 0xc350
 8003006:	f7ff ff03 	bl	8002e10 <FLASH_WaitForLastOperation>
 800300a:	4a1e      	ldr	r2, [pc, #120]	; (8003084 <HAL_FLASHEx_Erase+0xd0>)
 800300c:	6953      	ldr	r3, [r2, #20]
 800300e:	f023 0304 	bic.w	r3, r3, #4
 8003012:	4604      	mov	r4, r0
 8003014:	6153      	str	r3, [r2, #20]
 8003016:	f7ff ff9d 	bl	8002f54 <FLASH_FlushCaches>
 800301a:	2300      	movs	r3, #0
 800301c:	702b      	strb	r3, [r5, #0]
 800301e:	4620      	mov	r0, r4
 8003020:	e8bd 83f8 	ldmia.w	sp!, {r3, r4, r5, r6, r7, r8, r9, pc}
 8003024:	0552      	lsls	r2, r2, #21
 8003026:	d505      	bpl.n	8003034 <HAL_FLASHEx_Erase+0x80>
 8003028:	681a      	ldr	r2, [r3, #0]
 800302a:	f422 6280 	bic.w	r2, r2, #1024	; 0x400
 800302e:	601a      	str	r2, [r3, #0]
 8003030:	2302      	movs	r3, #2
 8003032:	e7dd      	b.n	8002ff0 <HAL_FLASHEx_Erase+0x3c>
 8003034:	7728      	strb	r0, [r5, #28]
 8003036:	e7de      	b.n	8002ff6 <HAL_FLASHEx_Erase+0x42>
 8003038:	f04f 33ff 	mov.w	r3, #4294967295	; 0xffffffff
 800303c:	f8c8 3000 	str.w	r3, [r8]
 8003040:	68b7      	ldr	r7, [r6, #8]
 8003042:	f8df 9040 	ldr.w	r9, [pc, #64]	; 8003084 <HAL_FLASHEx_Erase+0xd0>
 8003046:	e9d6 3202 	ldrd	r3, r2, [r6, #8]
 800304a:	4413      	add	r3, r2
 800304c:	42bb      	cmp	r3, r7
 800304e:	d9e2      	bls.n	8003016 <HAL_FLASHEx_Erase+0x62>
 8003050:	6871      	ldr	r1, [r6, #4]
 8003052:	4638      	mov	r0, r7
 8003054:	f7ff ff6a 	bl	8002f2c <FLASH_PageErase>
 8003058:	f24c 3050 	movw	r0, #50000	; 0xc350
 800305c:	f7ff fed8 	bl	8002e10 <FLASH_WaitForLastOperation>
 8003060:	f8d9 3014 	ldr.w	r3, [r9, #20]
 8003064:	f423 73fd 	bic.w	r3, r3, #506	; 0x1fa
 8003068:	f8c9 3014 	str.w	r3, [r9, #20]
 800306c:	b118      	cbz	r0, 8003076 <HAL_FLASHEx_Erase+0xc2>
 800306e:	f8c8 7000 	str.w	r7, [r8]
 8003072:	4604      	mov	r4, r0
 8003074:	e7cf      	b.n	8003016 <HAL_FLASHEx_Erase+0x62>
 8003076:	3701      	adds	r7, #1
 8003078:	e7e5      	b.n	8003046 <HAL_FLASHEx_Erase+0x92>
 800307a:	2402      	movs	r4, #2
 800307c:	e7cf      	b.n	800301e <HAL_FLASHEx_Erase+0x6a>
 800307e:	bf00      	nop
 8003080:	20000014 	.word	0x20000014
 8003084:	40022000 	.word	0x40022000

08003088 <HAL_GPIO_Init>:
 8003088:	e92d 4ff7 	stmdb	sp!, {r0, r1, r2, r4, r5, r6, r7, r8, r9, sl, fp, lr}
 800308c:	f8df 9170 	ldr.w	r9, [pc, #368]	; 8003200 <HAL_GPIO_Init+0x178>
 8003090:	4c59      	ldr	r4, [pc, #356]	; (80031f8 <HAL_GPIO_Init+0x170>)
 8003092:	2300      	movs	r3, #0
 8003094:	680a      	ldr	r2, [r1, #0]
 8003096:	fa32 f503 	lsrs.w	r5, r2, r3
 800309a:	d102      	bne.n	80030a2 <HAL_GPIO_Init+0x1a>
 800309c:	b003      	add	sp, #12
 800309e:	e8bd 8ff0 	ldmia.w	sp!, {r4, r5, r6, r7, r8, r9, sl, fp, pc}
 80030a2:	2501      	movs	r5, #1
 80030a4:	fa05 f803 	lsl.w	r8, r5, r3
 80030a8:	ea18 0202 	ands.w	r2, r8, r2
 80030ac:	f000 809c 	beq.w	80031e8 <HAL_GPIO_Init+0x160>
 80030b0:	684e      	ldr	r6, [r1, #4]
 80030b2:	2703      	movs	r7, #3
 80030b4:	f006 0503 	and.w	r5, r6, #3
 80030b8:	ea4f 0e43 	mov.w	lr, r3, lsl #1
 80030bc:	fa07 fc0e 	lsl.w	ip, r7, lr
 80030c0:	1e6f      	subs	r7, r5, #1
 80030c2:	2f01      	cmp	r7, #1
 80030c4:	ea6f 0c0c 	mvn.w	ip, ip
 80030c8:	d834      	bhi.n	8003134 <HAL_GPIO_Init+0xac>
 80030ca:	6887      	ldr	r7, [r0, #8]
 80030cc:	ea07 0a0c 	and.w	sl, r7, ip
 80030d0:	68cf      	ldr	r7, [r1, #12]
 80030d2:	fa07 f70e 	lsl.w	r7, r7, lr
 80030d6:	ea47 070a 	orr.w	r7, r7, sl
 80030da:	6087      	str	r7, [r0, #8]
 80030dc:	6847      	ldr	r7, [r0, #4]
 80030de:	ea27 0808 	bic.w	r8, r7, r8
 80030e2:	f3c6 1700 	ubfx	r7, r6, #4, #1
 80030e6:	409f      	lsls	r7, r3
 80030e8:	ea47 0708 	orr.w	r7, r7, r8
 80030ec:	6047      	str	r7, [r0, #4]
 80030ee:	68c7      	ldr	r7, [r0, #12]
 80030f0:	ea07 080c 	and.w	r8, r7, ip
 80030f4:	688f      	ldr	r7, [r1, #8]
 80030f6:	fa07 f70e 	lsl.w	r7, r7, lr
 80030fa:	ea47 0708 	orr.w	r7, r7, r8
 80030fe:	2d02      	cmp	r5, #2
 8003100:	60c7      	str	r7, [r0, #12]
 8003102:	d119      	bne.n	8003138 <HAL_GPIO_Init+0xb0>
 8003104:	ea4f 08d3 	mov.w	r8, r3, lsr #3
 8003108:	eb00 0888 	add.w	r8, r0, r8, lsl #2
 800310c:	f003 0a07 	and.w	sl, r3, #7
 8003110:	f8d8 7020 	ldr.w	r7, [r8, #32]
 8003114:	ea4f 0a8a 	mov.w	sl, sl, lsl #2
 8003118:	f04f 0b0f 	mov.w	fp, #15
 800311c:	fa0b fb0a 	lsl.w	fp, fp, sl
 8003120:	ea27 0b0b 	bic.w	fp, r7, fp
 8003124:	690f      	ldr	r7, [r1, #16]
 8003126:	fa07 f70a 	lsl.w	r7, r7, sl
 800312a:	ea47 070b 	orr.w	r7, r7, fp
 800312e:	f8c8 7020 	str.w	r7, [r8, #32]
 8003132:	e001      	b.n	8003138 <HAL_GPIO_Init+0xb0>
 8003134:	2d03      	cmp	r5, #3
 8003136:	d1da      	bne.n	80030ee <HAL_GPIO_Init+0x66>
 8003138:	6807      	ldr	r7, [r0, #0]
 800313a:	fa05 f50e 	lsl.w	r5, r5, lr
 800313e:	ea07 070c 	and.w	r7, r7, ip
 8003142:	432f      	orrs	r7, r5
 8003144:	f416 3f40 	tst.w	r6, #196608	; 0x30000
 8003148:	6007      	str	r7, [r0, #0]
 800314a:	d04d      	beq.n	80031e8 <HAL_GPIO_Init+0x160>
 800314c:	f8d9 5060 	ldr.w	r5, [r9, #96]	; 0x60
 8003150:	f045 0501 	orr.w	r5, r5, #1
 8003154:	f8c9 5060 	str.w	r5, [r9, #96]	; 0x60
 8003158:	f8d9 5060 	ldr.w	r5, [r9, #96]	; 0x60
 800315c:	f023 0703 	bic.w	r7, r3, #3
 8003160:	f107 4780 	add.w	r7, r7, #1073741824	; 0x40000000
 8003164:	f005 0501 	and.w	r5, r5, #1
 8003168:	f507 3780 	add.w	r7, r7, #65536	; 0x10000
 800316c:	9501      	str	r5, [sp, #4]
 800316e:	f003 0c03 	and.w	ip, r3, #3
 8003172:	9d01      	ldr	r5, [sp, #4]
 8003174:	68bd      	ldr	r5, [r7, #8]
 8003176:	ea4f 0c8c 	mov.w	ip, ip, lsl #2
 800317a:	f04f 0e0f 	mov.w	lr, #15
 800317e:	fa0e fe0c 	lsl.w	lr, lr, ip
 8003182:	f1b0 4f90 	cmp.w	r0, #1207959552	; 0x48000000
 8003186:	ea25 0e0e 	bic.w	lr, r5, lr
 800318a:	d02f      	beq.n	80031ec <HAL_GPIO_Init+0x164>
 800318c:	4d1b      	ldr	r5, [pc, #108]	; (80031fc <HAL_GPIO_Init+0x174>)
 800318e:	42a8      	cmp	r0, r5
 8003190:	d02e      	beq.n	80031f0 <HAL_GPIO_Init+0x168>
 8003192:	f505 6580 	add.w	r5, r5, #1024	; 0x400
 8003196:	42a8      	cmp	r0, r5
 8003198:	d02c      	beq.n	80031f4 <HAL_GPIO_Init+0x16c>
 800319a:	f505 6580 	add.w	r5, r5, #1024	; 0x400
 800319e:	42a8      	cmp	r0, r5
 80031a0:	bf0c      	ite	eq
 80031a2:	2503      	moveq	r5, #3
 80031a4:	2507      	movne	r5, #7
 80031a6:	fa05 f50c 	lsl.w	r5, r5, ip
 80031aa:	ea45 050e 	orr.w	r5, r5, lr
 80031ae:	60bd      	str	r5, [r7, #8]
 80031b0:	68a5      	ldr	r5, [r4, #8]
 80031b2:	43d7      	mvns	r7, r2
 80031b4:	f416 1f80 	tst.w	r6, #1048576	; 0x100000
 80031b8:	bf0c      	ite	eq
 80031ba:	403d      	andeq	r5, r7
 80031bc:	4315      	orrne	r5, r2
 80031be:	60a5      	str	r5, [r4, #8]
 80031c0:	68e5      	ldr	r5, [r4, #12]
 80031c2:	f416 1f00 	tst.w	r6, #2097152	; 0x200000
 80031c6:	bf0c      	ite	eq
 80031c8:	403d      	andeq	r5, r7
 80031ca:	4315      	orrne	r5, r2
 80031cc:	60e5      	str	r5, [r4, #12]
 80031ce:	6865      	ldr	r5, [r4, #4]
 80031d0:	f416 3f00 	tst.w	r6, #131072	; 0x20000
 80031d4:	bf0c      	ite	eq
 80031d6:	403d      	andeq	r5, r7
 80031d8:	4315      	orrne	r5, r2
 80031da:	6065      	str	r5, [r4, #4]
 80031dc:	6825      	ldr	r5, [r4, #0]
 80031de:	03f6      	lsls	r6, r6, #15
 80031e0:	bf54      	ite	pl
 80031e2:	403d      	andpl	r5, r7
 80031e4:	4315      	orrmi	r5, r2
 80031e6:	6025      	str	r5, [r4, #0]
 80031e8:	3301      	adds	r3, #1
 80031ea:	e753      	b.n	8003094 <HAL_GPIO_Init+0xc>
 80031ec:	2500      	movs	r5, #0
 80031ee:	e7da      	b.n	80031a6 <HAL_GPIO_Init+0x11e>
 80031f0:	2501      	movs	r5, #1
 80031f2:	e7d8      	b.n	80031a6 <HAL_GPIO_Init+0x11e>
 80031f4:	2502      	movs	r5, #2
 80031f6:	e7d6      	b.n	80031a6 <HAL_GPIO_Init+0x11e>
 80031f8:	40010400 	.word	0x40010400
 80031fc:	48000400 	.word	0x48000400
 8003200:	40021000 	.word	0x40021000

08003204 <HAL_GPIO_DeInit>:
 8003204:	4a37      	ldr	r2, [pc, #220]	; (80032e4 <HAL_GPIO_DeInit+0xe0>)
 8003206:	e92d 4ff0 	stmdb	sp!, {r4, r5, r6, r7, r8, r9, sl, fp, lr}
 800320a:	2300      	movs	r3, #0
 800320c:	f04f 0a01 	mov.w	sl, #1
 8003210:	f04f 080f 	mov.w	r8, #15
 8003214:	f04f 0b03 	mov.w	fp, #3
 8003218:	fa31 f403 	lsrs.w	r4, r1, r3
 800321c:	d101      	bne.n	8003222 <HAL_GPIO_DeInit+0x1e>
 800321e:	e8bd 8ff0 	ldmia.w	sp!, {r4, r5, r6, r7, r8, r9, sl, fp, pc}
 8003222:	fa0a fc03 	lsl.w	ip, sl, r3
 8003226:	ea1c 0601 	ands.w	r6, ip, r1
 800322a:	d052      	beq.n	80032d2 <HAL_GPIO_DeInit+0xce>
 800322c:	f023 0403 	bic.w	r4, r3, #3
 8003230:	f104 4480 	add.w	r4, r4, #1073741824	; 0x40000000
 8003234:	f504 3480 	add.w	r4, r4, #65536	; 0x10000
 8003238:	f003 0703 	and.w	r7, r3, #3
 800323c:	68a5      	ldr	r5, [r4, #8]
 800323e:	00bf      	lsls	r7, r7, #2
 8003240:	fa08 f907 	lsl.w	r9, r8, r7
 8003244:	f1b0 4f90 	cmp.w	r0, #1207959552	; 0x48000000
 8003248:	ea09 0e05 	and.w	lr, r9, r5
 800324c:	d043      	beq.n	80032d6 <HAL_GPIO_DeInit+0xd2>
 800324e:	4d26      	ldr	r5, [pc, #152]	; (80032e8 <HAL_GPIO_DeInit+0xe4>)
 8003250:	42a8      	cmp	r0, r5
 8003252:	d042      	beq.n	80032da <HAL_GPIO_DeInit+0xd6>
 8003254:	f505 6580 	add.w	r5, r5, #1024	; 0x400
 8003258:	42a8      	cmp	r0, r5
 800325a:	d040      	beq.n	80032de <HAL_GPIO_DeInit+0xda>
 800325c:	f505 6580 	add.w	r5, r5, #1024	; 0x400
 8003260:	42a8      	cmp	r0, r5
 8003262:	bf0c      	ite	eq
 8003264:	2503      	moveq	r5, #3
 8003266:	2507      	movne	r5, #7
 8003268:	40bd      	lsls	r5, r7
 800326a:	4575      	cmp	r5, lr
 800326c:	d113      	bne.n	8003296 <HAL_GPIO_DeInit+0x92>
 800326e:	6815      	ldr	r5, [r2, #0]
 8003270:	ea25 0506 	bic.w	r5, r5, r6
 8003274:	6015      	str	r5, [r2, #0]
 8003276:	6855      	ldr	r5, [r2, #4]
 8003278:	ea25 0506 	bic.w	r5, r5, r6
 800327c:	6055      	str	r5, [r2, #4]
 800327e:	68d5      	ldr	r5, [r2, #12]
 8003280:	ea25 0506 	bic.w	r5, r5, r6
 8003284:	60d5      	str	r5, [r2, #12]
 8003286:	6895      	ldr	r5, [r2, #8]
 8003288:	ea25 0506 	bic.w	r5, r5, r6
 800328c:	6095      	str	r5, [r2, #8]
 800328e:	68a5      	ldr	r5, [r4, #8]
 8003290:	ea25 0509 	bic.w	r5, r5, r9
 8003294:	60a5      	str	r5, [r4, #8]
 8003296:	6805      	ldr	r5, [r0, #0]
 8003298:	005c      	lsls	r4, r3, #1
 800329a:	fa0b f404 	lsl.w	r4, fp, r4
 800329e:	08de      	lsrs	r6, r3, #3
 80032a0:	4325      	orrs	r5, r4
 80032a2:	eb00 0686 	add.w	r6, r0, r6, lsl #2
 80032a6:	6005      	str	r5, [r0, #0]
 80032a8:	f003 0507 	and.w	r5, r3, #7
 80032ac:	6a37      	ldr	r7, [r6, #32]
 80032ae:	00ad      	lsls	r5, r5, #2
 80032b0:	fa08 f505 	lsl.w	r5, r8, r5
 80032b4:	ea27 0505 	bic.w	r5, r7, r5
 80032b8:	6235      	str	r5, [r6, #32]
 80032ba:	6885      	ldr	r5, [r0, #8]
 80032bc:	ea25 0504 	bic.w	r5, r5, r4
 80032c0:	6085      	str	r5, [r0, #8]
 80032c2:	6845      	ldr	r5, [r0, #4]
 80032c4:	ea25 050c 	bic.w	r5, r5, ip
 80032c8:	6045      	str	r5, [r0, #4]
 80032ca:	68c5      	ldr	r5, [r0, #12]
 80032cc:	ea25 0404 	bic.w	r4, r5, r4
 80032d0:	60c4      	str	r4, [r0, #12]
 80032d2:	3301      	adds	r3, #1
 80032d4:	e7a0      	b.n	8003218 <HAL_GPIO_DeInit+0x14>
 80032d6:	2500      	movs	r5, #0
 80032d8:	e7c6      	b.n	8003268 <HAL_GPIO_DeInit+0x64>
 80032da:	2501      	movs	r5, #1
 80032dc:	e7c4      	b.n	8003268 <HAL_GPIO_DeInit+0x64>
 80032de:	2502      	movs	r5, #2
 80032e0:	e7c2      	b.n	8003268 <HAL_GPIO_DeInit+0x64>
 80032e2:	bf00      	nop
 80032e4:	40010400 	.word	0x40010400
 80032e8:	48000400 	.word	0x48000400

080032ec <HAL_GPIO_ReadPin>:
 80032ec:	6903      	ldr	r3, [r0, #16]
 80032ee:	4219      	tst	r1, r3
 80032f0:	bf14      	ite	ne
 80032f2:	2001      	movne	r0, #1
 80032f4:	2000      	moveq	r0, #0
 80032f6:	4770      	bx	lr

080032f8 <HAL_GPIO_WritePin>:
 80032f8:	b10a      	cbz	r2, 80032fe <HAL_GPIO_WritePin+0x6>
 80032fa:	6181      	str	r1, [r0, #24]
 80032fc:	4770      	bx	lr
 80032fe:	6281      	str	r1, [r0, #40]	; 0x28
 8003300:	4770      	bx	lr
	...

08003304 <LPTIM_WaitForFlag>:
 8003304:	b510      	push	{r4, lr}
 8003306:	4b0a      	ldr	r3, [pc, #40]	; (8003330 <LPTIM_WaitForFlag+0x2c>)
 8003308:	f644 6220 	movw	r2, #20000	; 0x4e20
 800330c:	681b      	ldr	r3, [r3, #0]
 800330e:	fbb3 f3f2 	udiv	r3, r3, r2
 8003312:	f44f 727a 	mov.w	r2, #1000	; 0x3e8
 8003316:	4353      	muls	r3, r2
 8003318:	6802      	ldr	r2, [r0, #0]
 800331a:	2000      	movs	r0, #0
 800331c:	6814      	ldr	r4, [r2, #0]
 800331e:	3b01      	subs	r3, #1
 8003320:	bf08      	it	eq
 8003322:	2003      	moveq	r0, #3
 8003324:	ea31 0404 	bics.w	r4, r1, r4
 8003328:	d001      	beq.n	800332e <LPTIM_WaitForFlag+0x2a>
 800332a:	2b00      	cmp	r3, #0
 800332c:	d1f6      	bne.n	800331c <LPTIM_WaitForFlag+0x18>
 800332e:	bd10      	pop	{r4, pc}
 8003330:	20000008 	.word	0x20000008

08003334 <HAL_LPTIM_CompareMatchCallback>:
 8003334:	4770      	bx	lr

08003336 <HAL_LPTIM_AutoReloadMatchCallback>:
 8003336:	4770      	bx	lr

08003338 <HAL_LPTIM_TriggerCallback>:
 8003338:	4770      	bx	lr

0800333a <HAL_LPTIM_CompareWriteCallback>:
 800333a:	4770      	bx	lr

0800333c <HAL_LPTIM_AutoReloadWriteCallback>:
 800333c:	4770      	bx	lr

0800333e <HAL_LPTIM_DirectionUpCallback>:
 800333e:	4770      	bx	lr

08003340 <HAL_LPTIM_DirectionDownCallback>:
 8003340:	4770      	bx	lr

08003342 <HAL_LPTIM_UpdateEventCallback>:
 8003342:	4770      	bx	lr

08003344 <HAL_LPTIM_RepCounterWriteCallback>:
 8003344:	4770      	bx	lr

08003346 <HAL_LPTIM_IRQHandler>:
 8003346:	6803      	ldr	r3, [r0, #0]
 8003348:	681a      	ldr	r2, [r3, #0]
 800334a:	07d2      	lsls	r2, r2, #31
 800334c:	b510      	push	{r4, lr}
 800334e:	4604      	mov	r4, r0
 8003350:	d506      	bpl.n	8003360 <HAL_LPTIM_IRQHandler+0x1a>
 8003352:	689a      	ldr	r2, [r3, #8]
 8003354:	07d1      	lsls	r1, r2, #31
 8003356:	d503      	bpl.n	8003360 <HAL_LPTIM_IRQHandler+0x1a>
 8003358:	2201      	movs	r2, #1
 800335a:	605a      	str	r2, [r3, #4]
 800335c:	f7ff ffea 	bl	8003334 <HAL_LPTIM_CompareMatchCallback>
 8003360:	6823      	ldr	r3, [r4, #0]
 8003362:	681a      	ldr	r2, [r3, #0]
 8003364:	0792      	lsls	r2, r2, #30
 8003366:	d507      	bpl.n	8003378 <HAL_LPTIM_IRQHandler+0x32>
 8003368:	689a      	ldr	r2, [r3, #8]
 800336a:	0790      	lsls	r0, r2, #30
 800336c:	d504      	bpl.n	8003378 <HAL_LPTIM_IRQHandler+0x32>
 800336e:	2202      	movs	r2, #2
 8003370:	605a      	str	r2, [r3, #4]
 8003372:	4620      	mov	r0, r4
 8003374:	f7ff ffdf 	bl	8003336 <HAL_LPTIM_AutoReloadMatchCallback>
 8003378:	6823      	ldr	r3, [r4, #0]
 800337a:	681a      	ldr	r2, [r3, #0]
 800337c:	0751      	lsls	r1, r2, #29
 800337e:	d507      	bpl.n	8003390 <HAL_LPTIM_IRQHandler+0x4a>
 8003380:	689a      	ldr	r2, [r3, #8]
 8003382:	0752      	lsls	r2, r2, #29
 8003384:	d504      	bpl.n	8003390 <HAL_LPTIM_IRQHandler+0x4a>
 8003386:	2204      	movs	r2, #4
 8003388:	605a      	str	r2, [r3, #4]
 800338a:	4620      	mov	r0, r4
 800338c:	f7ff ffd4 	bl	8003338 <HAL_LPTIM_TriggerCallback>
 8003390:	6823      	ldr	r3, [r4, #0]
 8003392:	681a      	ldr	r2, [r3, #0]
 8003394:	0710      	lsls	r0, r2, #28
 8003396:	d507      	bpl.n	80033a8 <HAL_LPTIM_IRQHandler+0x62>
 8003398:	689a      	ldr	r2, [r3, #8]
 800339a:	0711      	lsls	r1, r2, #28
 800339c:	d504      	bpl.n	80033a8 <HAL_LPTIM_IRQHandler+0x62>
 800339e:	2208      	movs	r2, #8
 80033a0:	605a      	str	r2, [r3, #4]
 80033a2:	4620      	mov	r0, r4
 80033a4:	f7ff ffc9 	bl	800333a <HAL_LPTIM_CompareWriteCallback>
 80033a8:	6823      	ldr	r3, [r4, #0]
 80033aa:	681a      	ldr	r2, [r3, #0]
 80033ac:	06d2      	lsls	r2, r2, #27
 80033ae:	d507      	bpl.n	80033c0 <HAL_LPTIM_IRQHandler+0x7a>
 80033b0:	689a      	ldr	r2, [r3, #8]
 80033b2:	06d0      	lsls	r0, r2, #27
 80033b4:	d504      	bpl.n	80033c0 <HAL_LPTIM_IRQHandler+0x7a>
 80033b6:	2210      	movs	r2, #16
 80033b8:	605a      	str	r2, [r3, #4]
 80033ba:	4620      	mov	r0, r4
 80033bc:	f7ff ffbe 	bl	800333c <HAL_LPTIM_AutoReloadWriteCallback>
 80033c0:	6823      	ldr	r3, [r4, #0]
 80033c2:	681a      	ldr	r2, [r3, #0]
 80033c4:	0691      	lsls	r1, r2, #26
 80033c6:	d507      	bpl.n	80033d8 <HAL_LPTIM_IRQHandler+0x92>
 80033c8:	689a      	ldr	r2, [r3, #8]
 80033ca:	0692      	lsls	r2, r2, #26
 80033cc:	d504      	bpl.n	80033d8 <HAL_LPTIM_IRQHandler+0x92>
 80033ce:	2220      	movs	r2, #32
 80033d0:	605a      	str	r2, [r3, #4]
 80033d2:	4620      	mov	r0, r4
 80033d4:	f7ff ffb3 	bl	800333e <HAL_LPTIM_DirectionUpCallback>
 80033d8:	6823      	ldr	r3, [r4, #0]
 80033da:	681a      	ldr	r2, [r3, #0]
 80033dc:	0650      	lsls	r0, r2, #25
 80033de:	d507      	bpl.n	80033f0 <HAL_LPTIM_IRQHandler+0xaa>
 80033e0:	689a      	ldr	r2, [r3, #8]
 80033e2:	0651      	lsls	r1, r2, #25
 80033e4:	d504      	bpl.n	80033f0 <HAL_LPTIM_IRQHandler+0xaa>
 80033e6:	2240      	movs	r2, #64	; 0x40
 80033e8:	605a      	str	r2, [r3, #4]
 80033ea:	4620      	mov	r0, r4
 80033ec:	f7ff ffa8 	bl	8003340 <HAL_LPTIM_DirectionDownCallback>
 80033f0:	6823      	ldr	r3, [r4, #0]
 80033f2:	681a      	ldr	r2, [r3, #0]
 80033f4:	0612      	lsls	r2, r2, #24
 80033f6:	d507      	bpl.n	8003408 <HAL_LPTIM_IRQHandler+0xc2>
 80033f8:	689a      	ldr	r2, [r3, #8]
 80033fa:	0610      	lsls	r0, r2, #24
 80033fc:	d504      	bpl.n	8003408 <HAL_LPTIM_IRQHandler+0xc2>
 80033fe:	2280      	movs	r2, #128	; 0x80
 8003400:	605a      	str	r2, [r3, #4]
 8003402:	4620      	mov	r0, r4
 8003404:	f7ff ff9d 	bl	8003342 <HAL_LPTIM_UpdateEventCallback>
 8003408:	6823      	ldr	r3, [r4, #0]
 800340a:	681a      	ldr	r2, [r3, #0]
 800340c:	05d1      	lsls	r1, r2, #23
 800340e:	d508      	bpl.n	8003422 <HAL_LPTIM_IRQHandler+0xdc>
 8003410:	689a      	ldr	r2, [r3, #8]
 8003412:	05d2      	lsls	r2, r2, #23
 8003414:	d505      	bpl.n	8003422 <HAL_LPTIM_IRQHandler+0xdc>
 8003416:	f44f 7280 	mov.w	r2, #256	; 0x100
 800341a:	605a      	str	r2, [r3, #4]
 800341c:	4620      	mov	r0, r4
 800341e:	f7ff ff91 	bl	8003344 <HAL_LPTIM_RepCounterWriteCallback>
 8003422:	bd10      	pop	{r4, pc}

08003424 <LPTIM_Disable>:
 8003424:	e92d 4ff8 	stmdb	sp!, {r3, r4, r5, r6, r7, r8, r9, sl, fp, lr}
 8003428:	4604      	mov	r4, r0
 800342a:	f3ef 8910 	mrs	r9, PRIMASK
 800342e:	2301      	movs	r3, #1
 8003430:	f383 8810 	msr	PRIMASK, r3
 8003434:	4a5e      	ldr	r2, [pc, #376]	; (80035b0 <LPTIM_Disable+0x18c>)
 8003436:	6803      	ldr	r3, [r0, #0]
 8003438:	4293      	cmp	r3, r2
 800343a:	d019      	beq.n	8003470 <LPTIM_Disable+0x4c>
 800343c:	f502 52c0 	add.w	r2, r2, #6144	; 0x1800
 8003440:	4293      	cmp	r3, r2
 8003442:	d01b      	beq.n	800347c <LPTIM_Disable+0x58>
 8003444:	2500      	movs	r5, #0
 8003446:	4a5a      	ldr	r2, [pc, #360]	; (80035b0 <LPTIM_Disable+0x18c>)
 8003448:	689e      	ldr	r6, [r3, #8]
 800344a:	68df      	ldr	r7, [r3, #12]
 800344c:	6959      	ldr	r1, [r3, #20]
 800344e:	f8d3 a018 	ldr.w	sl, [r3, #24]
 8003452:	f8d3 8020 	ldr.w	r8, [r3, #32]
 8003456:	f8d3 b028 	ldr.w	fp, [r3, #40]	; 0x28
 800345a:	4293      	cmp	r3, r2
 800345c:	d014      	beq.n	8003488 <LPTIM_Disable+0x64>
 800345e:	f502 52c0 	add.w	r2, r2, #6144	; 0x1800
 8003462:	4293      	cmp	r3, r2
 8003464:	d07a      	beq.n	800355c <LPTIM_Disable+0x138>
 8003466:	bb31      	cbnz	r1, 80034b6 <LPTIM_Disable+0x92>
 8003468:	f1ba 0f00 	cmp.w	sl, #0
 800346c:	d137      	bne.n	80034de <LPTIM_Disable+0xba>
 800346e:	e082      	b.n	8003576 <LPTIM_Disable+0x152>
 8003470:	4a50      	ldr	r2, [pc, #320]	; (80035b4 <LPTIM_Disable+0x190>)
 8003472:	f8d2 5088 	ldr.w	r5, [r2, #136]	; 0x88
 8003476:	f405 2540 	and.w	r5, r5, #786432	; 0xc0000
 800347a:	e7e4      	b.n	8003446 <LPTIM_Disable+0x22>
 800347c:	4a4d      	ldr	r2, [pc, #308]	; (80035b4 <LPTIM_Disable+0x190>)
 800347e:	f8d2 5088 	ldr.w	r5, [r2, #136]	; 0x88
 8003482:	f405 1540 	and.w	r5, r5, #3145728	; 0x300000
 8003486:	e7de      	b.n	8003446 <LPTIM_Disable+0x22>
 8003488:	4a4a      	ldr	r2, [pc, #296]	; (80035b4 <LPTIM_Disable+0x190>)
 800348a:	6b90      	ldr	r0, [r2, #56]	; 0x38
 800348c:	f040 4000 	orr.w	r0, r0, #2147483648	; 0x80000000
 8003490:	6390      	str	r0, [r2, #56]	; 0x38
 8003492:	6b90      	ldr	r0, [r2, #56]	; 0x38
 8003494:	f020 4000 	bic.w	r0, r0, #2147483648	; 0x80000000
 8003498:	6390      	str	r0, [r2, #56]	; 0x38
 800349a:	b929      	cbnz	r1, 80034a8 <LPTIM_Disable+0x84>
 800349c:	f1ba 0f00 	cmp.w	sl, #0
 80034a0:	d102      	bne.n	80034a8 <LPTIM_Disable+0x84>
 80034a2:	f1bb 0f00 	cmp.w	fp, #0
 80034a6:	d04c      	beq.n	8003542 <LPTIM_Disable+0x11e>
 80034a8:	f8d2 0088 	ldr.w	r0, [r2, #136]	; 0x88
 80034ac:	f420 2040 	bic.w	r0, r0, #786432	; 0xc0000
 80034b0:	f8c2 0088 	str.w	r0, [r2, #136]	; 0x88
 80034b4:	b181      	cbz	r1, 80034d8 <LPTIM_Disable+0xb4>
 80034b6:	691a      	ldr	r2, [r3, #16]
 80034b8:	f042 0201 	orr.w	r2, r2, #1
 80034bc:	611a      	str	r2, [r3, #16]
 80034be:	4620      	mov	r0, r4
 80034c0:	6159      	str	r1, [r3, #20]
 80034c2:	2108      	movs	r1, #8
 80034c4:	f7ff ff1e 	bl	8003304 <LPTIM_WaitForFlag>
 80034c8:	6823      	ldr	r3, [r4, #0]
 80034ca:	2803      	cmp	r0, #3
 80034cc:	f04f 0208 	mov.w	r2, #8
 80034d0:	bf08      	it	eq
 80034d2:	f884 003a 	strbeq.w	r0, [r4, #58]	; 0x3a
 80034d6:	605a      	str	r2, [r3, #4]
 80034d8:	f1ba 0f00 	cmp.w	sl, #0
 80034dc:	d012      	beq.n	8003504 <LPTIM_Disable+0xe0>
 80034de:	6823      	ldr	r3, [r4, #0]
 80034e0:	691a      	ldr	r2, [r3, #16]
 80034e2:	f042 0201 	orr.w	r2, r2, #1
 80034e6:	611a      	str	r2, [r3, #16]
 80034e8:	2110      	movs	r1, #16
 80034ea:	f8c3 a018 	str.w	sl, [r3, #24]
 80034ee:	4620      	mov	r0, r4
 80034f0:	f7ff ff08 	bl	8003304 <LPTIM_WaitForFlag>
 80034f4:	6823      	ldr	r3, [r4, #0]
 80034f6:	2803      	cmp	r0, #3
 80034f8:	f04f 0210 	mov.w	r2, #16
 80034fc:	bf08      	it	eq
 80034fe:	f884 003a 	strbeq.w	r0, [r4, #58]	; 0x3a
 8003502:	605a      	str	r2, [r3, #4]
 8003504:	f1bb 0f00 	cmp.w	fp, #0
 8003508:	d013      	beq.n	8003532 <LPTIM_Disable+0x10e>
 800350a:	6823      	ldr	r3, [r4, #0]
 800350c:	691a      	ldr	r2, [r3, #16]
 800350e:	f042 0201 	orr.w	r2, r2, #1
 8003512:	611a      	str	r2, [r3, #16]
 8003514:	f44f 7180 	mov.w	r1, #256	; 0x100
 8003518:	f8c3 b028 	str.w	fp, [r3, #40]	; 0x28
 800351c:	4620      	mov	r0, r4
 800351e:	f7ff fef1 	bl	8003304 <LPTIM_WaitForFlag>
 8003522:	6823      	ldr	r3, [r4, #0]
 8003524:	2803      	cmp	r0, #3
 8003526:	f44f 7280 	mov.w	r2, #256	; 0x100
 800352a:	bf08      	it	eq
 800352c:	f884 003a 	strbeq.w	r0, [r4, #58]	; 0x3a
 8003530:	605a      	str	r2, [r3, #4]
 8003532:	6823      	ldr	r3, [r4, #0]
 8003534:	4a1e      	ldr	r2, [pc, #120]	; (80035b0 <LPTIM_Disable+0x18c>)
 8003536:	4293      	cmp	r3, r2
 8003538:	d02b      	beq.n	8003592 <LPTIM_Disable+0x16e>
 800353a:	f502 52c0 	add.w	r2, r2, #6144	; 0x1800
 800353e:	4293      	cmp	r3, r2
 8003540:	d030      	beq.n	80035a4 <LPTIM_Disable+0x180>
 8003542:	6823      	ldr	r3, [r4, #0]
 8003544:	691a      	ldr	r2, [r3, #16]
 8003546:	f022 0201 	bic.w	r2, r2, #1
 800354a:	611a      	str	r2, [r3, #16]
 800354c:	609e      	str	r6, [r3, #8]
 800354e:	60df      	str	r7, [r3, #12]
 8003550:	f8c3 8020 	str.w	r8, [r3, #32]
 8003554:	f389 8810 	msr	PRIMASK, r9
 8003558:	e8bd 8ff8 	ldmia.w	sp!, {r3, r4, r5, r6, r7, r8, r9, sl, fp, pc}
 800355c:	4a15      	ldr	r2, [pc, #84]	; (80035b4 <LPTIM_Disable+0x190>)
 800355e:	6bd0      	ldr	r0, [r2, #60]	; 0x3c
 8003560:	f040 0020 	orr.w	r0, r0, #32
 8003564:	63d0      	str	r0, [r2, #60]	; 0x3c
 8003566:	6bd0      	ldr	r0, [r2, #60]	; 0x3c
 8003568:	f020 0020 	bic.w	r0, r0, #32
 800356c:	63d0      	str	r0, [r2, #60]	; 0x3c
 800356e:	b941      	cbnz	r1, 8003582 <LPTIM_Disable+0x15e>
 8003570:	f1ba 0f00 	cmp.w	sl, #0
 8003574:	d105      	bne.n	8003582 <LPTIM_Disable+0x15e>
 8003576:	f1bb 0f00 	cmp.w	fp, #0
 800357a:	d0e2      	beq.n	8003542 <LPTIM_Disable+0x11e>
 800357c:	4a0e      	ldr	r2, [pc, #56]	; (80035b8 <LPTIM_Disable+0x194>)
 800357e:	4293      	cmp	r3, r2
 8003580:	d1c3      	bne.n	800350a <LPTIM_Disable+0xe6>
 8003582:	480c      	ldr	r0, [pc, #48]	; (80035b4 <LPTIM_Disable+0x190>)
 8003584:	f8d0 2088 	ldr.w	r2, [r0, #136]	; 0x88
 8003588:	f422 1240 	bic.w	r2, r2, #3145728	; 0x300000
 800358c:	f8c0 2088 	str.w	r2, [r0, #136]	; 0x88
 8003590:	e790      	b.n	80034b4 <LPTIM_Disable+0x90>
 8003592:	4a08      	ldr	r2, [pc, #32]	; (80035b4 <LPTIM_Disable+0x190>)
 8003594:	f8d2 3088 	ldr.w	r3, [r2, #136]	; 0x88
 8003598:	f423 2340 	bic.w	r3, r3, #786432	; 0xc0000
 800359c:	431d      	orrs	r5, r3
 800359e:	f8c2 5088 	str.w	r5, [r2, #136]	; 0x88
 80035a2:	e7ce      	b.n	8003542 <LPTIM_Disable+0x11e>
 80035a4:	4a03      	ldr	r2, [pc, #12]	; (80035b4 <LPTIM_Disable+0x190>)
 80035a6:	f8d2 3088 	ldr.w	r3, [r2, #136]	; 0x88
 80035aa:	f423 1340 	bic.w	r3, r3, #3145728	; 0x300000
 80035ae:	e7f5      	b.n	800359c <LPTIM_Disable+0x178>
 80035b0:	40007c00 	.word	0x40007c00
 80035b4:	40021000 	.word	0x40021000
 80035b8:	40009400 	.word	0x40009400

080035bc <HAL_LPTIM_Init>:
 80035bc:	b5f8      	push	{r3, r4, r5, r6, r7, lr}
 80035be:	4604      	mov	r4, r0
 80035c0:	2800      	cmp	r0, #0
 80035c2:	d067      	beq.n	8003694 <HAL_LPTIM_Init+0xd8>
 80035c4:	f890 303a 	ldrb.w	r3, [r0, #58]	; 0x3a
 80035c8:	f003 02ff 	and.w	r2, r3, #255	; 0xff
 80035cc:	b91b      	cbnz	r3, 80035d6 <HAL_LPTIM_Init+0x1a>
 80035ce:	f880 2039 	strb.w	r2, [r0, #57]	; 0x39
 80035d2:	f7fd ff23 	bl	800141c <HAL_LPTIM_MspInit>
 80035d6:	2302      	movs	r3, #2
 80035d8:	f884 303a 	strb.w	r3, [r4, #58]	; 0x3a
 80035dc:	6823      	ldr	r3, [r4, #0]
 80035de:	691a      	ldr	r2, [r3, #16]
 80035e0:	f042 0201 	orr.w	r2, r2, #1
 80035e4:	611a      	str	r2, [r3, #16]
 80035e6:	f44f 7180 	mov.w	r1, #256	; 0x100
 80035ea:	6b62      	ldr	r2, [r4, #52]	; 0x34
 80035ec:	6059      	str	r1, [r3, #4]
 80035ee:	4620      	mov	r0, r4
 80035f0:	629a      	str	r2, [r3, #40]	; 0x28
 80035f2:	f7ff fe87 	bl	8003304 <LPTIM_WaitForFlag>
 80035f6:	2803      	cmp	r0, #3
 80035f8:	d101      	bne.n	80035fe <HAL_LPTIM_Init+0x42>
 80035fa:	2003      	movs	r0, #3
 80035fc:	bdf8      	pop	{r3, r4, r5, r6, r7, pc}
 80035fe:	4620      	mov	r0, r4
 8003600:	f7ff ff10 	bl	8003424 <LPTIM_Disable>
 8003604:	f894 303a 	ldrb.w	r3, [r4, #58]	; 0x3a
 8003608:	2b03      	cmp	r3, #3
 800360a:	d0f6      	beq.n	80035fa <HAL_LPTIM_Init+0x3e>
 800360c:	6865      	ldr	r5, [r4, #4]
 800360e:	6820      	ldr	r0, [r4, #0]
 8003610:	6aa6      	ldr	r6, [r4, #40]	; 0x28
 8003612:	68c1      	ldr	r1, [r0, #12]
 8003614:	2d01      	cmp	r5, #1
 8003616:	d002      	beq.n	800361e <HAL_LPTIM_Init+0x62>
 8003618:	f5b6 0f00 	cmp.w	r6, #8388608	; 0x800000
 800361c:	d101      	bne.n	8003622 <HAL_LPTIM_Init+0x66>
 800361e:	f021 011e 	bic.w	r1, r1, #30
 8003622:	6962      	ldr	r2, [r4, #20]
 8003624:	4f1c      	ldr	r7, [pc, #112]	; (8003698 <HAL_LPTIM_Init+0xdc>)
 8003626:	f64f 73ff 	movw	r3, #65535	; 0xffff
 800362a:	429a      	cmp	r2, r3
 800362c:	bf1c      	itt	ne
 800362e:	f421 4160 	bicne.w	r1, r1, #57344	; 0xe000
 8003632:	f021 01c0 	bicne.w	r1, r1, #192	; 0xc0
 8003636:	400f      	ands	r7, r1
 8003638:	68a1      	ldr	r1, [r4, #8]
 800363a:	ea45 0306 	orr.w	r3, r5, r6
 800363e:	430b      	orrs	r3, r1
 8003640:	6a21      	ldr	r1, [r4, #32]
 8003642:	430b      	orrs	r3, r1
 8003644:	6a61      	ldr	r1, [r4, #36]	; 0x24
 8003646:	430b      	orrs	r3, r1
 8003648:	433b      	orrs	r3, r7
 800364a:	b9e5      	cbnz	r5, 8003686 <HAL_LPTIM_Init+0xca>
 800364c:	69e1      	ldr	r1, [r4, #28]
 800364e:	6925      	ldr	r5, [r4, #16]
 8003650:	4329      	orrs	r1, r5
 8003652:	430b      	orrs	r3, r1
 8003654:	f5b6 0f00 	cmp.w	r6, #8388608	; 0x800000
 8003658:	d017      	beq.n	800368a <HAL_LPTIM_Init+0xce>
 800365a:	f64f 71ff 	movw	r1, #65535	; 0xffff
 800365e:	428a      	cmp	r2, r1
 8003660:	d004      	beq.n	800366c <HAL_LPTIM_Init+0xb0>
 8003662:	69a1      	ldr	r1, [r4, #24]
 8003664:	430a      	orrs	r2, r1
 8003666:	69e1      	ldr	r1, [r4, #28]
 8003668:	430a      	orrs	r2, r1
 800366a:	4313      	orrs	r3, r2
 800366c:	4a0b      	ldr	r2, [pc, #44]	; (800369c <HAL_LPTIM_Init+0xe0>)
 800366e:	60c3      	str	r3, [r0, #12]
 8003670:	4290      	cmp	r0, r2
 8003672:	6ae3      	ldr	r3, [r4, #44]	; 0x2c
 8003674:	bf04      	itt	eq
 8003676:	6b22      	ldreq	r2, [r4, #48]	; 0x30
 8003678:	4313      	orreq	r3, r2
 800367a:	6203      	str	r3, [r0, #32]
 800367c:	2301      	movs	r3, #1
 800367e:	f884 303a 	strb.w	r3, [r4, #58]	; 0x3a
 8003682:	2000      	movs	r0, #0
 8003684:	e7ba      	b.n	80035fc <HAL_LPTIM_Init+0x40>
 8003686:	2d01      	cmp	r5, #1
 8003688:	d1e4      	bne.n	8003654 <HAL_LPTIM_Init+0x98>
 800368a:	e9d4 1503 	ldrd	r1, r5, [r4, #12]
 800368e:	4329      	orrs	r1, r5
 8003690:	430b      	orrs	r3, r1
 8003692:	e7e2      	b.n	800365a <HAL_LPTIM_Init+0x9e>
 8003694:	2001      	movs	r0, #1
 8003696:	e7b1      	b.n	80035fc <HAL_LPTIM_Init+0x40>
 8003698:	ff19f1fe 	.word	0xff19f1fe
 800369c:	40007c00 	.word	0x40007c00

080036a0 <HAL_LPTIM_Counter_Start_IT>:
 80036a0:	2302      	movs	r3, #2
 80036a2:	b510      	push	{r4, lr}
 80036a4:	4a26      	ldr	r2, [pc, #152]	; (8003740 <HAL_LPTIM_Counter_Start_IT+0xa0>)
 80036a6:	f880 303a 	strb.w	r3, [r0, #58]	; 0x3a
 80036aa:	6803      	ldr	r3, [r0, #0]
 80036ac:	4293      	cmp	r3, r2
 80036ae:	f502 4208 	add.w	r2, r2, #34816	; 0x8800
 80036b2:	4604      	mov	r4, r0
 80036b4:	6a10      	ldr	r0, [r2, #32]
 80036b6:	bf0c      	ite	eq
 80036b8:	f040 0001 	orreq.w	r0, r0, #1
 80036bc:	f040 0002 	orrne.w	r0, r0, #2
 80036c0:	6210      	str	r0, [r2, #32]
 80036c2:	6862      	ldr	r2, [r4, #4]
 80036c4:	2a01      	cmp	r2, #1
 80036c6:	d007      	beq.n	80036d8 <HAL_LPTIM_Counter_Start_IT+0x38>
 80036c8:	6aa2      	ldr	r2, [r4, #40]	; 0x28
 80036ca:	f5b2 0f00 	cmp.w	r2, #8388608	; 0x800000
 80036ce:	bf02      	ittt	eq
 80036d0:	68da      	ldreq	r2, [r3, #12]
 80036d2:	f422 6260 	biceq.w	r2, r2, #3584	; 0xe00
 80036d6:	60da      	streq	r2, [r3, #12]
 80036d8:	691a      	ldr	r2, [r3, #16]
 80036da:	f042 0201 	orr.w	r2, r2, #1
 80036de:	611a      	str	r2, [r3, #16]
 80036e0:	2210      	movs	r2, #16
 80036e2:	605a      	str	r2, [r3, #4]
 80036e4:	4620      	mov	r0, r4
 80036e6:	6199      	str	r1, [r3, #24]
 80036e8:	4611      	mov	r1, r2
 80036ea:	f7ff fe0b 	bl	8003304 <LPTIM_WaitForFlag>
 80036ee:	2803      	cmp	r0, #3
 80036f0:	d101      	bne.n	80036f6 <HAL_LPTIM_Counter_Start_IT+0x56>
 80036f2:	2003      	movs	r0, #3
 80036f4:	bd10      	pop	{r4, pc}
 80036f6:	4620      	mov	r0, r4
 80036f8:	f7ff fe94 	bl	8003424 <LPTIM_Disable>
 80036fc:	f894 303a 	ldrb.w	r3, [r4, #58]	; 0x3a
 8003700:	2b03      	cmp	r3, #3
 8003702:	d0f6      	beq.n	80036f2 <HAL_LPTIM_Counter_Start_IT+0x52>
 8003704:	6823      	ldr	r3, [r4, #0]
 8003706:	689a      	ldr	r2, [r3, #8]
 8003708:	f042 0210 	orr.w	r2, r2, #16
 800370c:	609a      	str	r2, [r3, #8]
 800370e:	689a      	ldr	r2, [r3, #8]
 8003710:	f042 0202 	orr.w	r2, r2, #2
 8003714:	609a      	str	r2, [r3, #8]
 8003716:	689a      	ldr	r2, [r3, #8]
 8003718:	f442 7280 	orr.w	r2, r2, #256	; 0x100
 800371c:	609a      	str	r2, [r3, #8]
 800371e:	689a      	ldr	r2, [r3, #8]
 8003720:	f042 0280 	orr.w	r2, r2, #128	; 0x80
 8003724:	609a      	str	r2, [r3, #8]
 8003726:	691a      	ldr	r2, [r3, #16]
 8003728:	f042 0201 	orr.w	r2, r2, #1
 800372c:	611a      	str	r2, [r3, #16]
 800372e:	691a      	ldr	r2, [r3, #16]
 8003730:	f042 0204 	orr.w	r2, r2, #4
 8003734:	611a      	str	r2, [r3, #16]
 8003736:	2301      	movs	r3, #1
 8003738:	f884 303a 	strb.w	r3, [r4, #58]	; 0x3a
 800373c:	2000      	movs	r0, #0
 800373e:	e7d9      	b.n	80036f4 <HAL_LPTIM_Counter_Start_IT+0x54>
 8003740:	40007c00 	.word	0x40007c00

08003744 <HAL_LPTIM_Counter_Stop_IT>:
 8003744:	6802      	ldr	r2, [r0, #0]
 8003746:	4b16      	ldr	r3, [pc, #88]	; (80037a0 <HAL_LPTIM_Counter_Stop_IT+0x5c>)
 8003748:	429a      	cmp	r2, r3
 800374a:	f503 4308 	add.w	r3, r3, #34816	; 0x8800
 800374e:	b510      	push	{r4, lr}
 8003750:	6a1a      	ldr	r2, [r3, #32]
 8003752:	bf0c      	ite	eq
 8003754:	f022 0201 	biceq.w	r2, r2, #1
 8003758:	f022 0202 	bicne.w	r2, r2, #2
 800375c:	4604      	mov	r4, r0
 800375e:	621a      	str	r2, [r3, #32]
 8003760:	2302      	movs	r3, #2
 8003762:	f880 303a 	strb.w	r3, [r0, #58]	; 0x3a
 8003766:	f7ff fe5d 	bl	8003424 <LPTIM_Disable>
 800376a:	f894 303a 	ldrb.w	r3, [r4, #58]	; 0x3a
 800376e:	2b03      	cmp	r3, #3
 8003770:	b2d8      	uxtb	r0, r3
 8003772:	d014      	beq.n	800379e <HAL_LPTIM_Counter_Stop_IT+0x5a>
 8003774:	6823      	ldr	r3, [r4, #0]
 8003776:	689a      	ldr	r2, [r3, #8]
 8003778:	f022 0210 	bic.w	r2, r2, #16
 800377c:	609a      	str	r2, [r3, #8]
 800377e:	689a      	ldr	r2, [r3, #8]
 8003780:	f022 0202 	bic.w	r2, r2, #2
 8003784:	609a      	str	r2, [r3, #8]
 8003786:	689a      	ldr	r2, [r3, #8]
 8003788:	f422 7280 	bic.w	r2, r2, #256	; 0x100
 800378c:	609a      	str	r2, [r3, #8]
 800378e:	689a      	ldr	r2, [r3, #8]
 8003790:	f022 0280 	bic.w	r2, r2, #128	; 0x80
 8003794:	609a      	str	r2, [r3, #8]
 8003796:	2301      	movs	r3, #1
 8003798:	f884 303a 	strb.w	r3, [r4, #58]	; 0x3a
 800379c:	2000      	movs	r0, #0
 800379e:	bd10      	pop	{r4, pc}
 80037a0:	40007c00 	.word	0x40007c00

080037a4 <HAL_PWREx_GetVoltageRange>:
 80037a4:	4b02      	ldr	r3, [pc, #8]	; (80037b0 <HAL_PWREx_GetVoltageRange+0xc>)
 80037a6:	6818      	ldr	r0, [r3, #0]
 80037a8:	f400 60c0 	and.w	r0, r0, #1536	; 0x600
 80037ac:	4770      	bx	lr
 80037ae:	bf00      	nop
 80037b0:	40007000 	.word	0x40007000

080037b4 <HAL_PWREx_ControlVoltageScaling>:
 80037b4:	4a17      	ldr	r2, [pc, #92]	; (8003814 <HAL_PWREx_ControlVoltageScaling+0x60>)
 80037b6:	6813      	ldr	r3, [r2, #0]
 80037b8:	f5b0 7f00 	cmp.w	r0, #512	; 0x200
 80037bc:	f403 63c0 	and.w	r3, r3, #1536	; 0x600
 80037c0:	d11d      	bne.n	80037fe <HAL_PWREx_ControlVoltageScaling+0x4a>
 80037c2:	f5b3 7f00 	cmp.w	r3, #512	; 0x200
 80037c6:	d101      	bne.n	80037cc <HAL_PWREx_ControlVoltageScaling+0x18>
 80037c8:	2000      	movs	r0, #0
 80037ca:	4770      	bx	lr
 80037cc:	6813      	ldr	r3, [r2, #0]
 80037ce:	f423 63c0 	bic.w	r3, r3, #1536	; 0x600
 80037d2:	f443 7300 	orr.w	r3, r3, #512	; 0x200
 80037d6:	6013      	str	r3, [r2, #0]
 80037d8:	4b0f      	ldr	r3, [pc, #60]	; (8003818 <HAL_PWREx_ControlVoltageScaling+0x64>)
 80037da:	681b      	ldr	r3, [r3, #0]
 80037dc:	2132      	movs	r1, #50	; 0x32
 80037de:	434b      	muls	r3, r1
 80037e0:	490e      	ldr	r1, [pc, #56]	; (800381c <HAL_PWREx_ControlVoltageScaling+0x68>)
 80037e2:	fbb3 f3f1 	udiv	r3, r3, r1
 80037e6:	3301      	adds	r3, #1
 80037e8:	6951      	ldr	r1, [r2, #20]
 80037ea:	0549      	lsls	r1, r1, #21
 80037ec:	d500      	bpl.n	80037f0 <HAL_PWREx_ControlVoltageScaling+0x3c>
 80037ee:	b923      	cbnz	r3, 80037fa <HAL_PWREx_ControlVoltageScaling+0x46>
 80037f0:	6953      	ldr	r3, [r2, #20]
 80037f2:	055b      	lsls	r3, r3, #21
 80037f4:	d5e8      	bpl.n	80037c8 <HAL_PWREx_ControlVoltageScaling+0x14>
 80037f6:	2003      	movs	r0, #3
 80037f8:	4770      	bx	lr
 80037fa:	3b01      	subs	r3, #1
 80037fc:	e7f4      	b.n	80037e8 <HAL_PWREx_ControlVoltageScaling+0x34>
 80037fe:	f5b3 6f80 	cmp.w	r3, #1024	; 0x400
 8003802:	bf1f      	itttt	ne
 8003804:	6813      	ldrne	r3, [r2, #0]
 8003806:	f423 63c0 	bicne.w	r3, r3, #1536	; 0x600
 800380a:	f443 6380 	orrne.w	r3, r3, #1024	; 0x400
 800380e:	6013      	strne	r3, [r2, #0]
 8003810:	e7da      	b.n	80037c8 <HAL_PWREx_ControlVoltageScaling+0x14>
 8003812:	bf00      	nop
 8003814:	40007000 	.word	0x40007000
 8003818:	20000008 	.word	0x20000008
 800381c:	000f4240 	.word	0x000f4240

08003820 <RCC_SetFlashLatencyFromMSIRange>:
 8003820:	b537      	push	{r0, r1, r2, r4, r5, lr}
 8003822:	4d1e      	ldr	r5, [pc, #120]	; (800389c <RCC_SetFlashLatencyFromMSIRange+0x7c>)
 8003824:	6dab      	ldr	r3, [r5, #88]	; 0x58
 8003826:	00da      	lsls	r2, r3, #3
 8003828:	4604      	mov	r4, r0
 800382a:	d518      	bpl.n	800385e <RCC_SetFlashLatencyFromMSIRange+0x3e>
 800382c:	f7ff ffba 	bl	80037a4 <HAL_PWREx_GetVoltageRange>
 8003830:	f5b0 7f00 	cmp.w	r0, #512	; 0x200
 8003834:	d123      	bne.n	800387e <RCC_SetFlashLatencyFromMSIRange+0x5e>
 8003836:	2c80      	cmp	r4, #128	; 0x80
 8003838:	d929      	bls.n	800388e <RCC_SetFlashLatencyFromMSIRange+0x6e>
 800383a:	2ca0      	cmp	r4, #160	; 0xa0
 800383c:	bf8c      	ite	hi
 800383e:	2002      	movhi	r0, #2
 8003840:	2001      	movls	r0, #1
 8003842:	4a17      	ldr	r2, [pc, #92]	; (80038a0 <RCC_SetFlashLatencyFromMSIRange+0x80>)
 8003844:	6813      	ldr	r3, [r2, #0]
 8003846:	f023 0307 	bic.w	r3, r3, #7
 800384a:	4303      	orrs	r3, r0
 800384c:	6013      	str	r3, [r2, #0]
 800384e:	6813      	ldr	r3, [r2, #0]
 8003850:	f003 0307 	and.w	r3, r3, #7
 8003854:	1a18      	subs	r0, r3, r0
 8003856:	bf18      	it	ne
 8003858:	2001      	movne	r0, #1
 800385a:	b003      	add	sp, #12
 800385c:	bd30      	pop	{r4, r5, pc}
 800385e:	6dab      	ldr	r3, [r5, #88]	; 0x58
 8003860:	f043 5380 	orr.w	r3, r3, #268435456	; 0x10000000
 8003864:	65ab      	str	r3, [r5, #88]	; 0x58
 8003866:	6dab      	ldr	r3, [r5, #88]	; 0x58
 8003868:	f003 5380 	and.w	r3, r3, #268435456	; 0x10000000
 800386c:	9301      	str	r3, [sp, #4]
 800386e:	9b01      	ldr	r3, [sp, #4]
 8003870:	f7ff ff98 	bl	80037a4 <HAL_PWREx_GetVoltageRange>
 8003874:	6dab      	ldr	r3, [r5, #88]	; 0x58
 8003876:	f023 5380 	bic.w	r3, r3, #268435456	; 0x10000000
 800387a:	65ab      	str	r3, [r5, #88]	; 0x58
 800387c:	e7d8      	b.n	8003830 <RCC_SetFlashLatencyFromMSIRange+0x10>
 800387e:	2c80      	cmp	r4, #128	; 0x80
 8003880:	d807      	bhi.n	8003892 <RCC_SetFlashLatencyFromMSIRange+0x72>
 8003882:	d008      	beq.n	8003896 <RCC_SetFlashLatencyFromMSIRange+0x76>
 8003884:	f1a4 0370 	sub.w	r3, r4, #112	; 0x70
 8003888:	4258      	negs	r0, r3
 800388a:	4158      	adcs	r0, r3
 800388c:	e7d9      	b.n	8003842 <RCC_SetFlashLatencyFromMSIRange+0x22>
 800388e:	2000      	movs	r0, #0
 8003890:	e7d7      	b.n	8003842 <RCC_SetFlashLatencyFromMSIRange+0x22>
 8003892:	2003      	movs	r0, #3
 8003894:	e7d5      	b.n	8003842 <RCC_SetFlashLatencyFromMSIRange+0x22>
 8003896:	2002      	movs	r0, #2
 8003898:	e7d3      	b.n	8003842 <RCC_SetFlashLatencyFromMSIRange+0x22>
 800389a:	bf00      	nop
 800389c:	40021000 	.word	0x40021000
 80038a0:	40022000 	.word	0x40022000

080038a4 <HAL_RCC_GetSysClockFreq>:
 80038a4:	4b22      	ldr	r3, [pc, #136]	; (8003930 <HAL_RCC_GetSysClockFreq+0x8c>)
 80038a6:	689a      	ldr	r2, [r3, #8]
 80038a8:	68d9      	ldr	r1, [r3, #12]
 80038aa:	f012 020c 	ands.w	r2, r2, #12
 80038ae:	d005      	beq.n	80038bc <HAL_RCC_GetSysClockFreq+0x18>
 80038b0:	2a0c      	cmp	r2, #12
 80038b2:	d115      	bne.n	80038e0 <HAL_RCC_GetSysClockFreq+0x3c>
 80038b4:	f001 0103 	and.w	r1, r1, #3
 80038b8:	2901      	cmp	r1, #1
 80038ba:	d118      	bne.n	80038ee <HAL_RCC_GetSysClockFreq+0x4a>
 80038bc:	6819      	ldr	r1, [r3, #0]
 80038be:	481d      	ldr	r0, [pc, #116]	; (8003934 <HAL_RCC_GetSysClockFreq+0x90>)
 80038c0:	0709      	lsls	r1, r1, #28
 80038c2:	bf55      	itete	pl
 80038c4:	f8d3 1094 	ldrpl.w	r1, [r3, #148]	; 0x94
 80038c8:	6819      	ldrmi	r1, [r3, #0]
 80038ca:	f3c1 2103 	ubfxpl	r1, r1, #8, #4
 80038ce:	f3c1 1103 	ubfxmi	r1, r1, #4, #4
 80038d2:	f850 0021 	ldr.w	r0, [r0, r1, lsl #2]
 80038d6:	b34a      	cbz	r2, 800392c <HAL_RCC_GetSysClockFreq+0x88>
 80038d8:	2a0c      	cmp	r2, #12
 80038da:	d009      	beq.n	80038f0 <HAL_RCC_GetSysClockFreq+0x4c>
 80038dc:	2000      	movs	r0, #0
 80038de:	4770      	bx	lr
 80038e0:	2a04      	cmp	r2, #4
 80038e2:	d022      	beq.n	800392a <HAL_RCC_GetSysClockFreq+0x86>
 80038e4:	2a08      	cmp	r2, #8
 80038e6:	4814      	ldr	r0, [pc, #80]	; (8003938 <HAL_RCC_GetSysClockFreq+0x94>)
 80038e8:	bf18      	it	ne
 80038ea:	2000      	movne	r0, #0
 80038ec:	4770      	bx	lr
 80038ee:	2000      	movs	r0, #0
 80038f0:	68da      	ldr	r2, [r3, #12]
 80038f2:	f002 0203 	and.w	r2, r2, #3
 80038f6:	2a02      	cmp	r2, #2
 80038f8:	d015      	beq.n	8003926 <HAL_RCC_GetSysClockFreq+0x82>
 80038fa:	490f      	ldr	r1, [pc, #60]	; (8003938 <HAL_RCC_GetSysClockFreq+0x94>)
 80038fc:	2a03      	cmp	r2, #3
 80038fe:	bf08      	it	eq
 8003900:	4608      	moveq	r0, r1
 8003902:	68d9      	ldr	r1, [r3, #12]
 8003904:	68da      	ldr	r2, [r3, #12]
 8003906:	f3c2 2206 	ubfx	r2, r2, #8, #7
 800390a:	4342      	muls	r2, r0
 800390c:	68d8      	ldr	r0, [r3, #12]
 800390e:	f3c0 6041 	ubfx	r0, r0, #25, #2
 8003912:	f3c1 1102 	ubfx	r1, r1, #4, #3
 8003916:	3001      	adds	r0, #1
 8003918:	3101      	adds	r1, #1
 800391a:	0040      	lsls	r0, r0, #1
 800391c:	fbb2 f2f1 	udiv	r2, r2, r1
 8003920:	fbb2 f0f0 	udiv	r0, r2, r0
 8003924:	4770      	bx	lr
 8003926:	4805      	ldr	r0, [pc, #20]	; (800393c <HAL_RCC_GetSysClockFreq+0x98>)
 8003928:	e7eb      	b.n	8003902 <HAL_RCC_GetSysClockFreq+0x5e>
 800392a:	4804      	ldr	r0, [pc, #16]	; (800393c <HAL_RCC_GetSysClockFreq+0x98>)
 800392c:	4770      	bx	lr
 800392e:	bf00      	nop
 8003930:	40021000 	.word	0x40021000
 8003934:	08005430 	.word	0x08005430
 8003938:	007a1200 	.word	0x007a1200
 800393c:	00f42400 	.word	0x00f42400

08003940 <HAL_RCC_OscConfig>:
 8003940:	e92d 43f7 	stmdb	sp!, {r0, r1, r2, r4, r5, r6, r7, r8, r9, lr}
 8003944:	4605      	mov	r5, r0
 8003946:	b918      	cbnz	r0, 8003950 <HAL_RCC_OscConfig+0x10>
 8003948:	2001      	movs	r0, #1
 800394a:	b003      	add	sp, #12
 800394c:	e8bd 83f0 	ldmia.w	sp!, {r4, r5, r6, r7, r8, r9, pc}
 8003950:	4c94      	ldr	r4, [pc, #592]	; (8003ba4 <HAL_RCC_OscConfig+0x264>)
 8003952:	6803      	ldr	r3, [r0, #0]
 8003954:	68a6      	ldr	r6, [r4, #8]
 8003956:	68e7      	ldr	r7, [r4, #12]
 8003958:	06db      	lsls	r3, r3, #27
 800395a:	f006 060c 	and.w	r6, r6, #12
 800395e:	f007 0703 	and.w	r7, r7, #3
 8003962:	d53d      	bpl.n	80039e0 <HAL_RCC_OscConfig+0xa0>
 8003964:	b11e      	cbz	r6, 800396e <HAL_RCC_OscConfig+0x2e>
 8003966:	2e0c      	cmp	r6, #12
 8003968:	d16a      	bne.n	8003a40 <HAL_RCC_OscConfig+0x100>
 800396a:	2f01      	cmp	r7, #1
 800396c:	d168      	bne.n	8003a40 <HAL_RCC_OscConfig+0x100>
 800396e:	6823      	ldr	r3, [r4, #0]
 8003970:	0798      	lsls	r0, r3, #30
 8003972:	d502      	bpl.n	800397a <HAL_RCC_OscConfig+0x3a>
 8003974:	69eb      	ldr	r3, [r5, #28]
 8003976:	2b00      	cmp	r3, #0
 8003978:	d0e6      	beq.n	8003948 <HAL_RCC_OscConfig+0x8>
 800397a:	6823      	ldr	r3, [r4, #0]
 800397c:	6a68      	ldr	r0, [r5, #36]	; 0x24
 800397e:	0719      	lsls	r1, r3, #28
 8003980:	bf56      	itet	pl
 8003982:	f8d4 3094 	ldrpl.w	r3, [r4, #148]	; 0x94
 8003986:	6823      	ldrmi	r3, [r4, #0]
 8003988:	091b      	lsrpl	r3, r3, #4
 800398a:	f003 03f0 	and.w	r3, r3, #240	; 0xf0
 800398e:	4298      	cmp	r0, r3
 8003990:	d93f      	bls.n	8003a12 <HAL_RCC_OscConfig+0xd2>
 8003992:	f7ff ff45 	bl	8003820 <RCC_SetFlashLatencyFromMSIRange>
 8003996:	2800      	cmp	r0, #0
 8003998:	d1d6      	bne.n	8003948 <HAL_RCC_OscConfig+0x8>
 800399a:	6823      	ldr	r3, [r4, #0]
 800399c:	f043 0308 	orr.w	r3, r3, #8
 80039a0:	6023      	str	r3, [r4, #0]
 80039a2:	6823      	ldr	r3, [r4, #0]
 80039a4:	6a6a      	ldr	r2, [r5, #36]	; 0x24
 80039a6:	f023 03f0 	bic.w	r3, r3, #240	; 0xf0
 80039aa:	4313      	orrs	r3, r2
 80039ac:	6023      	str	r3, [r4, #0]
 80039ae:	6863      	ldr	r3, [r4, #4]
 80039b0:	6a2a      	ldr	r2, [r5, #32]
 80039b2:	f423 437f 	bic.w	r3, r3, #65280	; 0xff00
 80039b6:	ea43 2302 	orr.w	r3, r3, r2, lsl #8
 80039ba:	6063      	str	r3, [r4, #4]
 80039bc:	f7ff ff72 	bl	80038a4 <HAL_RCC_GetSysClockFreq>
 80039c0:	68a3      	ldr	r3, [r4, #8]
 80039c2:	4a79      	ldr	r2, [pc, #484]	; (8003ba8 <HAL_RCC_OscConfig+0x268>)
 80039c4:	f3c3 1303 	ubfx	r3, r3, #4, #4
 80039c8:	5cd3      	ldrb	r3, [r2, r3]
 80039ca:	f003 031f 	and.w	r3, r3, #31
 80039ce:	40d8      	lsrs	r0, r3
 80039d0:	4b76      	ldr	r3, [pc, #472]	; (8003bac <HAL_RCC_OscConfig+0x26c>)
 80039d2:	6018      	str	r0, [r3, #0]
 80039d4:	4b76      	ldr	r3, [pc, #472]	; (8003bb0 <HAL_RCC_OscConfig+0x270>)
 80039d6:	6818      	ldr	r0, [r3, #0]
 80039d8:	f7fe f890 	bl	8001afc <HAL_InitTick>
 80039dc:	2800      	cmp	r0, #0
 80039de:	d1b4      	bne.n	800394a <HAL_RCC_OscConfig+0xa>
 80039e0:	682b      	ldr	r3, [r5, #0]
 80039e2:	07d8      	lsls	r0, r3, #31
 80039e4:	d463      	bmi.n	8003aae <HAL_RCC_OscConfig+0x16e>
 80039e6:	682b      	ldr	r3, [r5, #0]
 80039e8:	0799      	lsls	r1, r3, #30
 80039ea:	f100 80a2 	bmi.w	8003b32 <HAL_RCC_OscConfig+0x1f2>
 80039ee:	682b      	ldr	r3, [r5, #0]
 80039f0:	0718      	lsls	r0, r3, #28
 80039f2:	f100 80df 	bmi.w	8003bb4 <HAL_RCC_OscConfig+0x274>
 80039f6:	682b      	ldr	r3, [r5, #0]
 80039f8:	0759      	lsls	r1, r3, #29
 80039fa:	f100 812f 	bmi.w	8003c5c <HAL_RCC_OscConfig+0x31c>
 80039fe:	682b      	ldr	r3, [r5, #0]
 8003a00:	0699      	lsls	r1, r3, #26
 8003a02:	f100 81ab 	bmi.w	8003d5c <HAL_RCC_OscConfig+0x41c>
 8003a06:	6aeb      	ldr	r3, [r5, #44]	; 0x2c
 8003a08:	2b00      	cmp	r3, #0
 8003a0a:	f040 81d1 	bne.w	8003db0 <HAL_RCC_OscConfig+0x470>
 8003a0e:	2000      	movs	r0, #0
 8003a10:	e79b      	b.n	800394a <HAL_RCC_OscConfig+0xa>
 8003a12:	6823      	ldr	r3, [r4, #0]
 8003a14:	f043 0308 	orr.w	r3, r3, #8
 8003a18:	6023      	str	r3, [r4, #0]
 8003a1a:	6823      	ldr	r3, [r4, #0]
 8003a1c:	f023 03f0 	bic.w	r3, r3, #240	; 0xf0
 8003a20:	4303      	orrs	r3, r0
 8003a22:	6023      	str	r3, [r4, #0]
 8003a24:	6863      	ldr	r3, [r4, #4]
 8003a26:	6a2a      	ldr	r2, [r5, #32]
 8003a28:	f423 437f 	bic.w	r3, r3, #65280	; 0xff00
 8003a2c:	ea43 2302 	orr.w	r3, r3, r2, lsl #8
 8003a30:	6063      	str	r3, [r4, #4]
 8003a32:	2e00      	cmp	r6, #0
 8003a34:	d1c2      	bne.n	80039bc <HAL_RCC_OscConfig+0x7c>
 8003a36:	f7ff fef3 	bl	8003820 <RCC_SetFlashLatencyFromMSIRange>
 8003a3a:	2800      	cmp	r0, #0
 8003a3c:	d0be      	beq.n	80039bc <HAL_RCC_OscConfig+0x7c>
 8003a3e:	e783      	b.n	8003948 <HAL_RCC_OscConfig+0x8>
 8003a40:	69eb      	ldr	r3, [r5, #28]
 8003a42:	b31b      	cbz	r3, 8003a8c <HAL_RCC_OscConfig+0x14c>
 8003a44:	6823      	ldr	r3, [r4, #0]
 8003a46:	f043 0301 	orr.w	r3, r3, #1
 8003a4a:	6023      	str	r3, [r4, #0]
 8003a4c:	f7fe f898 	bl	8001b80 <HAL_GetTick>
 8003a50:	4680      	mov	r8, r0
 8003a52:	6823      	ldr	r3, [r4, #0]
 8003a54:	079a      	lsls	r2, r3, #30
 8003a56:	d511      	bpl.n	8003a7c <HAL_RCC_OscConfig+0x13c>
 8003a58:	6823      	ldr	r3, [r4, #0]
 8003a5a:	f043 0308 	orr.w	r3, r3, #8
 8003a5e:	6023      	str	r3, [r4, #0]
 8003a60:	6823      	ldr	r3, [r4, #0]
 8003a62:	6a6a      	ldr	r2, [r5, #36]	; 0x24
 8003a64:	f023 03f0 	bic.w	r3, r3, #240	; 0xf0
 8003a68:	4313      	orrs	r3, r2
 8003a6a:	6023      	str	r3, [r4, #0]
 8003a6c:	6863      	ldr	r3, [r4, #4]
 8003a6e:	6a2a      	ldr	r2, [r5, #32]
 8003a70:	f423 437f 	bic.w	r3, r3, #65280	; 0xff00
 8003a74:	ea43 2302 	orr.w	r3, r3, r2, lsl #8
 8003a78:	6063      	str	r3, [r4, #4]
 8003a7a:	e7b1      	b.n	80039e0 <HAL_RCC_OscConfig+0xa0>
 8003a7c:	f7fe f880 	bl	8001b80 <HAL_GetTick>
 8003a80:	eba0 0008 	sub.w	r0, r0, r8
 8003a84:	2802      	cmp	r0, #2
 8003a86:	d9e4      	bls.n	8003a52 <HAL_RCC_OscConfig+0x112>
 8003a88:	2003      	movs	r0, #3
 8003a8a:	e75e      	b.n	800394a <HAL_RCC_OscConfig+0xa>
 8003a8c:	6823      	ldr	r3, [r4, #0]
 8003a8e:	f023 0301 	bic.w	r3, r3, #1
 8003a92:	6023      	str	r3, [r4, #0]
 8003a94:	f7fe f874 	bl	8001b80 <HAL_GetTick>
 8003a98:	4680      	mov	r8, r0
 8003a9a:	6823      	ldr	r3, [r4, #0]
 8003a9c:	079b      	lsls	r3, r3, #30
 8003a9e:	d59f      	bpl.n	80039e0 <HAL_RCC_OscConfig+0xa0>
 8003aa0:	f7fe f86e 	bl	8001b80 <HAL_GetTick>
 8003aa4:	eba0 0008 	sub.w	r0, r0, r8
 8003aa8:	2802      	cmp	r0, #2
 8003aaa:	d9f6      	bls.n	8003a9a <HAL_RCC_OscConfig+0x15a>
 8003aac:	e7ec      	b.n	8003a88 <HAL_RCC_OscConfig+0x148>
 8003aae:	2e08      	cmp	r6, #8
 8003ab0:	d003      	beq.n	8003aba <HAL_RCC_OscConfig+0x17a>
 8003ab2:	2e0c      	cmp	r6, #12
 8003ab4:	d108      	bne.n	8003ac8 <HAL_RCC_OscConfig+0x188>
 8003ab6:	2f03      	cmp	r7, #3
 8003ab8:	d106      	bne.n	8003ac8 <HAL_RCC_OscConfig+0x188>
 8003aba:	6823      	ldr	r3, [r4, #0]
 8003abc:	039a      	lsls	r2, r3, #14
 8003abe:	d592      	bpl.n	80039e6 <HAL_RCC_OscConfig+0xa6>
 8003ac0:	686b      	ldr	r3, [r5, #4]
 8003ac2:	2b00      	cmp	r3, #0
 8003ac4:	d18f      	bne.n	80039e6 <HAL_RCC_OscConfig+0xa6>
 8003ac6:	e73f      	b.n	8003948 <HAL_RCC_OscConfig+0x8>
 8003ac8:	686b      	ldr	r3, [r5, #4]
 8003aca:	f5b3 3f80 	cmp.w	r3, #65536	; 0x10000
 8003ace:	d110      	bne.n	8003af2 <HAL_RCC_OscConfig+0x1b2>
 8003ad0:	6823      	ldr	r3, [r4, #0]
 8003ad2:	f443 3380 	orr.w	r3, r3, #65536	; 0x10000
 8003ad6:	6023      	str	r3, [r4, #0]
 8003ad8:	f7fe f852 	bl	8001b80 <HAL_GetTick>
 8003adc:	4680      	mov	r8, r0
 8003ade:	6823      	ldr	r3, [r4, #0]
 8003ae0:	039b      	lsls	r3, r3, #14
 8003ae2:	d480      	bmi.n	80039e6 <HAL_RCC_OscConfig+0xa6>
 8003ae4:	f7fe f84c 	bl	8001b80 <HAL_GetTick>
 8003ae8:	eba0 0008 	sub.w	r0, r0, r8
 8003aec:	2864      	cmp	r0, #100	; 0x64
 8003aee:	d9f6      	bls.n	8003ade <HAL_RCC_OscConfig+0x19e>
 8003af0:	e7ca      	b.n	8003a88 <HAL_RCC_OscConfig+0x148>
 8003af2:	f5b3 2fa0 	cmp.w	r3, #327680	; 0x50000
 8003af6:	d104      	bne.n	8003b02 <HAL_RCC_OscConfig+0x1c2>
 8003af8:	6823      	ldr	r3, [r4, #0]
 8003afa:	f443 2380 	orr.w	r3, r3, #262144	; 0x40000
 8003afe:	6023      	str	r3, [r4, #0]
 8003b00:	e7e6      	b.n	8003ad0 <HAL_RCC_OscConfig+0x190>
 8003b02:	6822      	ldr	r2, [r4, #0]
 8003b04:	f422 3280 	bic.w	r2, r2, #65536	; 0x10000
 8003b08:	6022      	str	r2, [r4, #0]
 8003b0a:	6822      	ldr	r2, [r4, #0]
 8003b0c:	f422 2280 	bic.w	r2, r2, #262144	; 0x40000
 8003b10:	6022      	str	r2, [r4, #0]
 8003b12:	2b00      	cmp	r3, #0
 8003b14:	d1e0      	bne.n	8003ad8 <HAL_RCC_OscConfig+0x198>
 8003b16:	f7fe f833 	bl	8001b80 <HAL_GetTick>
 8003b1a:	4680      	mov	r8, r0
 8003b1c:	6823      	ldr	r3, [r4, #0]
 8003b1e:	0398      	lsls	r0, r3, #14
 8003b20:	f57f af61 	bpl.w	80039e6 <HAL_RCC_OscConfig+0xa6>
 8003b24:	f7fe f82c 	bl	8001b80 <HAL_GetTick>
 8003b28:	eba0 0008 	sub.w	r0, r0, r8
 8003b2c:	2864      	cmp	r0, #100	; 0x64
 8003b2e:	d9f5      	bls.n	8003b1c <HAL_RCC_OscConfig+0x1dc>
 8003b30:	e7aa      	b.n	8003a88 <HAL_RCC_OscConfig+0x148>
 8003b32:	2e04      	cmp	r6, #4
 8003b34:	d003      	beq.n	8003b3e <HAL_RCC_OscConfig+0x1fe>
 8003b36:	2e0c      	cmp	r6, #12
 8003b38:	d110      	bne.n	8003b5c <HAL_RCC_OscConfig+0x21c>
 8003b3a:	2f02      	cmp	r7, #2
 8003b3c:	d10e      	bne.n	8003b5c <HAL_RCC_OscConfig+0x21c>
 8003b3e:	6823      	ldr	r3, [r4, #0]
 8003b40:	0559      	lsls	r1, r3, #21
 8003b42:	d503      	bpl.n	8003b4c <HAL_RCC_OscConfig+0x20c>
 8003b44:	68eb      	ldr	r3, [r5, #12]
 8003b46:	2b00      	cmp	r3, #0
 8003b48:	f43f aefe 	beq.w	8003948 <HAL_RCC_OscConfig+0x8>
 8003b4c:	6863      	ldr	r3, [r4, #4]
 8003b4e:	692a      	ldr	r2, [r5, #16]
 8003b50:	f023 43fe 	bic.w	r3, r3, #2130706432	; 0x7f000000
 8003b54:	ea43 6302 	orr.w	r3, r3, r2, lsl #24
 8003b58:	6063      	str	r3, [r4, #4]
 8003b5a:	e748      	b.n	80039ee <HAL_RCC_OscConfig+0xae>
 8003b5c:	68eb      	ldr	r3, [r5, #12]
 8003b5e:	b17b      	cbz	r3, 8003b80 <HAL_RCC_OscConfig+0x240>
 8003b60:	6823      	ldr	r3, [r4, #0]
 8003b62:	f443 7380 	orr.w	r3, r3, #256	; 0x100
 8003b66:	6023      	str	r3, [r4, #0]
 8003b68:	f7fe f80a 	bl	8001b80 <HAL_GetTick>
 8003b6c:	4607      	mov	r7, r0
 8003b6e:	6823      	ldr	r3, [r4, #0]
 8003b70:	055a      	lsls	r2, r3, #21
 8003b72:	d4eb      	bmi.n	8003b4c <HAL_RCC_OscConfig+0x20c>
 8003b74:	f7fe f804 	bl	8001b80 <HAL_GetTick>
 8003b78:	1bc0      	subs	r0, r0, r7
 8003b7a:	2802      	cmp	r0, #2
 8003b7c:	d9f7      	bls.n	8003b6e <HAL_RCC_OscConfig+0x22e>
 8003b7e:	e783      	b.n	8003a88 <HAL_RCC_OscConfig+0x148>
 8003b80:	6823      	ldr	r3, [r4, #0]
 8003b82:	f423 7380 	bic.w	r3, r3, #256	; 0x100
 8003b86:	6023      	str	r3, [r4, #0]
 8003b88:	f7fd fffa 	bl	8001b80 <HAL_GetTick>
 8003b8c:	4607      	mov	r7, r0
 8003b8e:	6823      	ldr	r3, [r4, #0]
 8003b90:	055b      	lsls	r3, r3, #21
 8003b92:	f57f af2c 	bpl.w	80039ee <HAL_RCC_OscConfig+0xae>
 8003b96:	f7fd fff3 	bl	8001b80 <HAL_GetTick>
 8003b9a:	1bc0      	subs	r0, r0, r7
 8003b9c:	2802      	cmp	r0, #2
 8003b9e:	d9f6      	bls.n	8003b8e <HAL_RCC_OscConfig+0x24e>
 8003ba0:	e772      	b.n	8003a88 <HAL_RCC_OscConfig+0x148>
 8003ba2:	bf00      	nop
 8003ba4:	40021000 	.word	0x40021000
 8003ba8:	08005415 	.word	0x08005415
 8003bac:	20000008 	.word	0x20000008
 8003bb0:	20000010 	.word	0x20000010
 8003bb4:	696b      	ldr	r3, [r5, #20]
 8003bb6:	2b00      	cmp	r3, #0
 8003bb8:	d03c      	beq.n	8003c34 <HAL_RCC_OscConfig+0x2f4>
 8003bba:	f8d4 3094 	ldr.w	r3, [r4, #148]	; 0x94
 8003bbe:	69a9      	ldr	r1, [r5, #24]
 8003bc0:	f003 0210 	and.w	r2, r3, #16
 8003bc4:	4291      	cmp	r1, r2
 8003bc6:	d00e      	beq.n	8003be6 <HAL_RCC_OscConfig+0x2a6>
 8003bc8:	f003 0203 	and.w	r2, r3, #3
 8003bcc:	2a02      	cmp	r2, #2
 8003bce:	f43f aebb 	beq.w	8003948 <HAL_RCC_OscConfig+0x8>
 8003bd2:	07da      	lsls	r2, r3, #31
 8003bd4:	d41b      	bmi.n	8003c0e <HAL_RCC_OscConfig+0x2ce>
 8003bd6:	f8d4 3094 	ldr.w	r3, [r4, #148]	; 0x94
 8003bda:	69aa      	ldr	r2, [r5, #24]
 8003bdc:	f023 0310 	bic.w	r3, r3, #16
 8003be0:	4313      	orrs	r3, r2
 8003be2:	f8c4 3094 	str.w	r3, [r4, #148]	; 0x94
 8003be6:	f8d4 3094 	ldr.w	r3, [r4, #148]	; 0x94
 8003bea:	f043 0301 	orr.w	r3, r3, #1
 8003bee:	f8c4 3094 	str.w	r3, [r4, #148]	; 0x94
 8003bf2:	f7fd ffc5 	bl	8001b80 <HAL_GetTick>
 8003bf6:	4607      	mov	r7, r0
 8003bf8:	f8d4 3094 	ldr.w	r3, [r4, #148]	; 0x94
 8003bfc:	0798      	lsls	r0, r3, #30
 8003bfe:	f53f aefa 	bmi.w	80039f6 <HAL_RCC_OscConfig+0xb6>
 8003c02:	f7fd ffbd 	bl	8001b80 <HAL_GetTick>
 8003c06:	1bc0      	subs	r0, r0, r7
 8003c08:	2811      	cmp	r0, #17
 8003c0a:	d9f5      	bls.n	8003bf8 <HAL_RCC_OscConfig+0x2b8>
 8003c0c:	e73c      	b.n	8003a88 <HAL_RCC_OscConfig+0x148>
 8003c0e:	f8d4 3094 	ldr.w	r3, [r4, #148]	; 0x94
 8003c12:	f023 0301 	bic.w	r3, r3, #1
 8003c16:	f8c4 3094 	str.w	r3, [r4, #148]	; 0x94
 8003c1a:	f7fd ffb1 	bl	8001b80 <HAL_GetTick>
 8003c1e:	4607      	mov	r7, r0
 8003c20:	f8d4 3094 	ldr.w	r3, [r4, #148]	; 0x94
 8003c24:	079b      	lsls	r3, r3, #30
 8003c26:	d5d6      	bpl.n	8003bd6 <HAL_RCC_OscConfig+0x296>
 8003c28:	f7fd ffaa 	bl	8001b80 <HAL_GetTick>
 8003c2c:	1bc0      	subs	r0, r0, r7
 8003c2e:	2811      	cmp	r0, #17
 8003c30:	d9f6      	bls.n	8003c20 <HAL_RCC_OscConfig+0x2e0>
 8003c32:	e729      	b.n	8003a88 <HAL_RCC_OscConfig+0x148>
 8003c34:	f8d4 3094 	ldr.w	r3, [r4, #148]	; 0x94
 8003c38:	f023 0301 	bic.w	r3, r3, #1
 8003c3c:	f8c4 3094 	str.w	r3, [r4, #148]	; 0x94
 8003c40:	f7fd ff9e 	bl	8001b80 <HAL_GetTick>
 8003c44:	4607      	mov	r7, r0
 8003c46:	f8d4 3094 	ldr.w	r3, [r4, #148]	; 0x94
 8003c4a:	0799      	lsls	r1, r3, #30
 8003c4c:	f57f aed3 	bpl.w	80039f6 <HAL_RCC_OscConfig+0xb6>
 8003c50:	f7fd ff96 	bl	8001b80 <HAL_GetTick>
 8003c54:	1bc0      	subs	r0, r0, r7
 8003c56:	2811      	cmp	r0, #17
 8003c58:	d9f5      	bls.n	8003c46 <HAL_RCC_OscConfig+0x306>
 8003c5a:	e715      	b.n	8003a88 <HAL_RCC_OscConfig+0x148>
 8003c5c:	6da3      	ldr	r3, [r4, #88]	; 0x58
 8003c5e:	00da      	lsls	r2, r3, #3
 8003c60:	d430      	bmi.n	8003cc4 <HAL_RCC_OscConfig+0x384>
 8003c62:	6da3      	ldr	r3, [r4, #88]	; 0x58
 8003c64:	f043 5380 	orr.w	r3, r3, #268435456	; 0x10000000
 8003c68:	65a3      	str	r3, [r4, #88]	; 0x58
 8003c6a:	6da3      	ldr	r3, [r4, #88]	; 0x58
 8003c6c:	f003 5380 	and.w	r3, r3, #268435456	; 0x10000000
 8003c70:	9301      	str	r3, [sp, #4]
 8003c72:	9b01      	ldr	r3, [sp, #4]
 8003c74:	2701      	movs	r7, #1
 8003c76:	f8df 8270 	ldr.w	r8, [pc, #624]	; 8003ee8 <HAL_RCC_OscConfig+0x5a8>
 8003c7a:	f8d8 3000 	ldr.w	r3, [r8]
 8003c7e:	05db      	lsls	r3, r3, #23
 8003c80:	d522      	bpl.n	8003cc8 <HAL_RCC_OscConfig+0x388>
 8003c82:	68aa      	ldr	r2, [r5, #8]
 8003c84:	07d0      	lsls	r0, r2, #31
 8003c86:	d433      	bmi.n	8003cf0 <HAL_RCC_OscConfig+0x3b0>
 8003c88:	f8d4 3090 	ldr.w	r3, [r4, #144]	; 0x90
 8003c8c:	f023 0301 	bic.w	r3, r3, #1
 8003c90:	f8c4 3090 	str.w	r3, [r4, #144]	; 0x90
 8003c94:	f8d4 3090 	ldr.w	r3, [r4, #144]	; 0x90
 8003c98:	f023 0304 	bic.w	r3, r3, #4
 8003c9c:	f8c4 3090 	str.w	r3, [r4, #144]	; 0x90
 8003ca0:	2a00      	cmp	r2, #0
 8003ca2:	d13c      	bne.n	8003d1e <HAL_RCC_OscConfig+0x3de>
 8003ca4:	f7fd ff6c 	bl	8001b80 <HAL_GetTick>
 8003ca8:	f241 3988 	movw	r9, #5000	; 0x1388
 8003cac:	4680      	mov	r8, r0
 8003cae:	f8d4 3090 	ldr.w	r3, [r4, #144]	; 0x90
 8003cb2:	0798      	lsls	r0, r3, #30
 8003cb4:	d44b      	bmi.n	8003d4e <HAL_RCC_OscConfig+0x40e>
 8003cb6:	f8d4 3090 	ldr.w	r3, [r4, #144]	; 0x90
 8003cba:	f023 0380 	bic.w	r3, r3, #128	; 0x80
 8003cbe:	f8c4 3090 	str.w	r3, [r4, #144]	; 0x90
 8003cc2:	e035      	b.n	8003d30 <HAL_RCC_OscConfig+0x3f0>
 8003cc4:	2700      	movs	r7, #0
 8003cc6:	e7d6      	b.n	8003c76 <HAL_RCC_OscConfig+0x336>
 8003cc8:	f8d8 3000 	ldr.w	r3, [r8]
 8003ccc:	f443 7380 	orr.w	r3, r3, #256	; 0x100
 8003cd0:	f8c8 3000 	str.w	r3, [r8]
 8003cd4:	f7fd ff54 	bl	8001b80 <HAL_GetTick>
 8003cd8:	4681      	mov	r9, r0
 8003cda:	f8d8 3000 	ldr.w	r3, [r8]
 8003cde:	05d9      	lsls	r1, r3, #23
 8003ce0:	d4cf      	bmi.n	8003c82 <HAL_RCC_OscConfig+0x342>
 8003ce2:	f7fd ff4d 	bl	8001b80 <HAL_GetTick>
 8003ce6:	eba0 0009 	sub.w	r0, r0, r9
 8003cea:	2802      	cmp	r0, #2
 8003cec:	d9f5      	bls.n	8003cda <HAL_RCC_OscConfig+0x39a>
 8003cee:	e6cb      	b.n	8003a88 <HAL_RCC_OscConfig+0x148>
 8003cf0:	f8d4 3090 	ldr.w	r3, [r4, #144]	; 0x90
 8003cf4:	f002 0180 	and.w	r1, r2, #128	; 0x80
 8003cf8:	f023 0380 	bic.w	r3, r3, #128	; 0x80
 8003cfc:	430b      	orrs	r3, r1
 8003cfe:	f8c4 3090 	str.w	r3, [r4, #144]	; 0x90
 8003d02:	f8d4 3090 	ldr.w	r3, [r4, #144]	; 0x90
 8003d06:	0752      	lsls	r2, r2, #29
 8003d08:	bf42      	ittt	mi
 8003d0a:	f043 0304 	orrmi.w	r3, r3, #4
 8003d0e:	f8c4 3090 	strmi.w	r3, [r4, #144]	; 0x90
 8003d12:	f8d4 3090 	ldrmi.w	r3, [r4, #144]	; 0x90
 8003d16:	f043 0301 	orr.w	r3, r3, #1
 8003d1a:	f8c4 3090 	str.w	r3, [r4, #144]	; 0x90
 8003d1e:	f7fd ff2f 	bl	8001b80 <HAL_GetTick>
 8003d22:	f241 3988 	movw	r9, #5000	; 0x1388
 8003d26:	4680      	mov	r8, r0
 8003d28:	f8d4 3090 	ldr.w	r3, [r4, #144]	; 0x90
 8003d2c:	079b      	lsls	r3, r3, #30
 8003d2e:	d507      	bpl.n	8003d40 <HAL_RCC_OscConfig+0x400>
 8003d30:	2f00      	cmp	r7, #0
 8003d32:	f43f ae64 	beq.w	80039fe <HAL_RCC_OscConfig+0xbe>
 8003d36:	6da3      	ldr	r3, [r4, #88]	; 0x58
 8003d38:	f023 5380 	bic.w	r3, r3, #268435456	; 0x10000000
 8003d3c:	65a3      	str	r3, [r4, #88]	; 0x58
 8003d3e:	e65e      	b.n	80039fe <HAL_RCC_OscConfig+0xbe>
 8003d40:	f7fd ff1e 	bl	8001b80 <HAL_GetTick>
 8003d44:	eba0 0008 	sub.w	r0, r0, r8
 8003d48:	4548      	cmp	r0, r9
 8003d4a:	d9ed      	bls.n	8003d28 <HAL_RCC_OscConfig+0x3e8>
 8003d4c:	e69c      	b.n	8003a88 <HAL_RCC_OscConfig+0x148>
 8003d4e:	f7fd ff17 	bl	8001b80 <HAL_GetTick>
 8003d52:	eba0 0008 	sub.w	r0, r0, r8
 8003d56:	4548      	cmp	r0, r9
 8003d58:	d9a9      	bls.n	8003cae <HAL_RCC_OscConfig+0x36e>
 8003d5a:	e695      	b.n	8003a88 <HAL_RCC_OscConfig+0x148>
 8003d5c:	6aab      	ldr	r3, [r5, #40]	; 0x28
 8003d5e:	b19b      	cbz	r3, 8003d88 <HAL_RCC_OscConfig+0x448>
 8003d60:	f8d4 3098 	ldr.w	r3, [r4, #152]	; 0x98
 8003d64:	f043 0301 	orr.w	r3, r3, #1
 8003d68:	f8c4 3098 	str.w	r3, [r4, #152]	; 0x98
 8003d6c:	f7fd ff08 	bl	8001b80 <HAL_GetTick>
 8003d70:	4607      	mov	r7, r0
 8003d72:	f8d4 3098 	ldr.w	r3, [r4, #152]	; 0x98
 8003d76:	079a      	lsls	r2, r3, #30
 8003d78:	f53f ae45 	bmi.w	8003a06 <HAL_RCC_OscConfig+0xc6>
 8003d7c:	f7fd ff00 	bl	8001b80 <HAL_GetTick>
 8003d80:	1bc0      	subs	r0, r0, r7
 8003d82:	2802      	cmp	r0, #2
 8003d84:	d9f5      	bls.n	8003d72 <HAL_RCC_OscConfig+0x432>
 8003d86:	e67f      	b.n	8003a88 <HAL_RCC_OscConfig+0x148>
 8003d88:	f8d4 3098 	ldr.w	r3, [r4, #152]	; 0x98
 8003d8c:	f023 0301 	bic.w	r3, r3, #1
 8003d90:	f8c4 3098 	str.w	r3, [r4, #152]	; 0x98
 8003d94:	f7fd fef4 	bl	8001b80 <HAL_GetTick>
 8003d98:	4607      	mov	r7, r0
 8003d9a:	f8d4 3098 	ldr.w	r3, [r4, #152]	; 0x98
 8003d9e:	079b      	lsls	r3, r3, #30
 8003da0:	f57f ae31 	bpl.w	8003a06 <HAL_RCC_OscConfig+0xc6>
 8003da4:	f7fd feec 	bl	8001b80 <HAL_GetTick>
 8003da8:	1bc0      	subs	r0, r0, r7
 8003daa:	2802      	cmp	r0, #2
 8003dac:	d9f5      	bls.n	8003d9a <HAL_RCC_OscConfig+0x45a>
 8003dae:	e66b      	b.n	8003a88 <HAL_RCC_OscConfig+0x148>
 8003db0:	2b02      	cmp	r3, #2
 8003db2:	d17a      	bne.n	8003eaa <HAL_RCC_OscConfig+0x56a>
 8003db4:	68e3      	ldr	r3, [r4, #12]
 8003db6:	6b2a      	ldr	r2, [r5, #48]	; 0x30
 8003db8:	f003 0103 	and.w	r1, r3, #3
 8003dbc:	4291      	cmp	r1, r2
 8003dbe:	d11c      	bne.n	8003dfa <HAL_RCC_OscConfig+0x4ba>
 8003dc0:	6b69      	ldr	r1, [r5, #52]	; 0x34
 8003dc2:	f003 0270 	and.w	r2, r3, #112	; 0x70
 8003dc6:	3901      	subs	r1, #1
 8003dc8:	ebb2 1f01 	cmp.w	r2, r1, lsl #4
 8003dcc:	d115      	bne.n	8003dfa <HAL_RCC_OscConfig+0x4ba>
 8003dce:	6ba9      	ldr	r1, [r5, #56]	; 0x38
 8003dd0:	f403 42fe 	and.w	r2, r3, #32512	; 0x7f00
 8003dd4:	ebb2 2f01 	cmp.w	r2, r1, lsl #8
 8003dd8:	d10f      	bne.n	8003dfa <HAL_RCC_OscConfig+0x4ba>
 8003dda:	6bea      	ldr	r2, [r5, #60]	; 0x3c
 8003ddc:	0852      	lsrs	r2, r2, #1
 8003dde:	f403 01c0 	and.w	r1, r3, #6291456	; 0x600000
 8003de2:	3a01      	subs	r2, #1
 8003de4:	ebb1 5f42 	cmp.w	r1, r2, lsl #21
 8003de8:	d107      	bne.n	8003dfa <HAL_RCC_OscConfig+0x4ba>
 8003dea:	6c2a      	ldr	r2, [r5, #64]	; 0x40
 8003dec:	0852      	lsrs	r2, r2, #1
 8003dee:	f003 63c0 	and.w	r3, r3, #100663296	; 0x6000000
 8003df2:	3a01      	subs	r2, #1
 8003df4:	ebb3 6f42 	cmp.w	r3, r2, lsl #25
 8003df8:	d03e      	beq.n	8003e78 <HAL_RCC_OscConfig+0x538>
 8003dfa:	2e0c      	cmp	r6, #12
 8003dfc:	f43f ada4 	beq.w	8003948 <HAL_RCC_OscConfig+0x8>
 8003e00:	6823      	ldr	r3, [r4, #0]
 8003e02:	f023 7380 	bic.w	r3, r3, #16777216	; 0x1000000
 8003e06:	6023      	str	r3, [r4, #0]
 8003e08:	f7fd feba 	bl	8001b80 <HAL_GetTick>
 8003e0c:	4606      	mov	r6, r0
 8003e0e:	6823      	ldr	r3, [r4, #0]
 8003e10:	0198      	lsls	r0, r3, #6
 8003e12:	d42b      	bmi.n	8003e6c <HAL_RCC_OscConfig+0x52c>
 8003e14:	68e2      	ldr	r2, [r4, #12]
 8003e16:	4b33      	ldr	r3, [pc, #204]	; (8003ee4 <HAL_RCC_OscConfig+0x5a4>)
 8003e18:	4013      	ands	r3, r2
 8003e1a:	6b2a      	ldr	r2, [r5, #48]	; 0x30
 8003e1c:	4313      	orrs	r3, r2
 8003e1e:	6baa      	ldr	r2, [r5, #56]	; 0x38
 8003e20:	ea43 2302 	orr.w	r3, r3, r2, lsl #8
 8003e24:	6b6a      	ldr	r2, [r5, #52]	; 0x34
 8003e26:	3a01      	subs	r2, #1
 8003e28:	ea43 1302 	orr.w	r3, r3, r2, lsl #4
 8003e2c:	6bea      	ldr	r2, [r5, #60]	; 0x3c
 8003e2e:	0852      	lsrs	r2, r2, #1
 8003e30:	3a01      	subs	r2, #1
 8003e32:	ea43 5342 	orr.w	r3, r3, r2, lsl #21
 8003e36:	6c2a      	ldr	r2, [r5, #64]	; 0x40
 8003e38:	0852      	lsrs	r2, r2, #1
 8003e3a:	3a01      	subs	r2, #1
 8003e3c:	ea43 6342 	orr.w	r3, r3, r2, lsl #25
 8003e40:	60e3      	str	r3, [r4, #12]
 8003e42:	6823      	ldr	r3, [r4, #0]
 8003e44:	f043 7380 	orr.w	r3, r3, #16777216	; 0x1000000
 8003e48:	6023      	str	r3, [r4, #0]
 8003e4a:	68e3      	ldr	r3, [r4, #12]
 8003e4c:	f043 7380 	orr.w	r3, r3, #16777216	; 0x1000000
 8003e50:	60e3      	str	r3, [r4, #12]
 8003e52:	f7fd fe95 	bl	8001b80 <HAL_GetTick>
 8003e56:	4605      	mov	r5, r0
 8003e58:	6823      	ldr	r3, [r4, #0]
 8003e5a:	0199      	lsls	r1, r3, #6
 8003e5c:	f53f add7 	bmi.w	8003a0e <HAL_RCC_OscConfig+0xce>
 8003e60:	f7fd fe8e 	bl	8001b80 <HAL_GetTick>
 8003e64:	1b40      	subs	r0, r0, r5
 8003e66:	2802      	cmp	r0, #2
 8003e68:	d9f6      	bls.n	8003e58 <HAL_RCC_OscConfig+0x518>
 8003e6a:	e60d      	b.n	8003a88 <HAL_RCC_OscConfig+0x148>
 8003e6c:	f7fd fe88 	bl	8001b80 <HAL_GetTick>
 8003e70:	1b80      	subs	r0, r0, r6
 8003e72:	2802      	cmp	r0, #2
 8003e74:	d9cb      	bls.n	8003e0e <HAL_RCC_OscConfig+0x4ce>
 8003e76:	e607      	b.n	8003a88 <HAL_RCC_OscConfig+0x148>
 8003e78:	6823      	ldr	r3, [r4, #0]
 8003e7a:	019a      	lsls	r2, r3, #6
 8003e7c:	f53f adc7 	bmi.w	8003a0e <HAL_RCC_OscConfig+0xce>
 8003e80:	6823      	ldr	r3, [r4, #0]
 8003e82:	f043 7380 	orr.w	r3, r3, #16777216	; 0x1000000
 8003e86:	6023      	str	r3, [r4, #0]
 8003e88:	68e3      	ldr	r3, [r4, #12]
 8003e8a:	f043 7380 	orr.w	r3, r3, #16777216	; 0x1000000
 8003e8e:	60e3      	str	r3, [r4, #12]
 8003e90:	f7fd fe76 	bl	8001b80 <HAL_GetTick>
 8003e94:	4605      	mov	r5, r0
 8003e96:	6823      	ldr	r3, [r4, #0]
 8003e98:	019b      	lsls	r3, r3, #6
 8003e9a:	f53f adb8 	bmi.w	8003a0e <HAL_RCC_OscConfig+0xce>
 8003e9e:	f7fd fe6f 	bl	8001b80 <HAL_GetTick>
 8003ea2:	1b40      	subs	r0, r0, r5
 8003ea4:	2802      	cmp	r0, #2
 8003ea6:	d9f6      	bls.n	8003e96 <HAL_RCC_OscConfig+0x556>
 8003ea8:	e5ee      	b.n	8003a88 <HAL_RCC_OscConfig+0x148>
 8003eaa:	2e0c      	cmp	r6, #12
 8003eac:	f43f ad4c 	beq.w	8003948 <HAL_RCC_OscConfig+0x8>
 8003eb0:	6823      	ldr	r3, [r4, #0]
 8003eb2:	f023 7380 	bic.w	r3, r3, #16777216	; 0x1000000
 8003eb6:	6023      	str	r3, [r4, #0]
 8003eb8:	f7fd fe62 	bl	8001b80 <HAL_GetTick>
 8003ebc:	4605      	mov	r5, r0
 8003ebe:	6823      	ldr	r3, [r4, #0]
 8003ec0:	f013 7300 	ands.w	r3, r3, #33554432	; 0x2000000
 8003ec4:	d107      	bne.n	8003ed6 <HAL_RCC_OscConfig+0x596>
 8003ec6:	68e2      	ldr	r2, [r4, #12]
 8003ec8:	f022 7288 	bic.w	r2, r2, #17825792	; 0x1100000
 8003ecc:	f022 0203 	bic.w	r2, r2, #3
 8003ed0:	60e2      	str	r2, [r4, #12]
 8003ed2:	4618      	mov	r0, r3
 8003ed4:	e539      	b.n	800394a <HAL_RCC_OscConfig+0xa>
 8003ed6:	f7fd fe53 	bl	8001b80 <HAL_GetTick>
 8003eda:	1b40      	subs	r0, r0, r5
 8003edc:	2802      	cmp	r0, #2
 8003ede:	d9ee      	bls.n	8003ebe <HAL_RCC_OscConfig+0x57e>
 8003ee0:	e5d2      	b.n	8003a88 <HAL_RCC_OscConfig+0x148>
 8003ee2:	bf00      	nop
 8003ee4:	f99f808c 	.word	0xf99f808c
 8003ee8:	40007000 	.word	0x40007000

08003eec <HAL_RCC_ClockConfig>:
 8003eec:	e92d 41f0 	stmdb	sp!, {r4, r5, r6, r7, r8, lr}
 8003ef0:	460d      	mov	r5, r1
 8003ef2:	4604      	mov	r4, r0
 8003ef4:	b910      	cbnz	r0, 8003efc <HAL_RCC_ClockConfig+0x10>
 8003ef6:	2001      	movs	r0, #1
 8003ef8:	e8bd 81f0 	ldmia.w	sp!, {r4, r5, r6, r7, r8, pc}
 8003efc:	4a4b      	ldr	r2, [pc, #300]	; (800402c <HAL_RCC_ClockConfig+0x140>)
 8003efe:	6813      	ldr	r3, [r2, #0]
 8003f00:	f003 0307 	and.w	r3, r3, #7
 8003f04:	428b      	cmp	r3, r1
 8003f06:	d32c      	bcc.n	8003f62 <HAL_RCC_ClockConfig+0x76>
 8003f08:	6820      	ldr	r0, [r4, #0]
 8003f0a:	0786      	lsls	r6, r0, #30
 8003f0c:	d434      	bmi.n	8003f78 <HAL_RCC_ClockConfig+0x8c>
 8003f0e:	07c1      	lsls	r1, r0, #31
 8003f10:	d43f      	bmi.n	8003f92 <HAL_RCC_ClockConfig+0xa6>
 8003f12:	6821      	ldr	r1, [r4, #0]
 8003f14:	078a      	lsls	r2, r1, #30
 8003f16:	d468      	bmi.n	8003fea <HAL_RCC_ClockConfig+0xfe>
 8003f18:	4a44      	ldr	r2, [pc, #272]	; (800402c <HAL_RCC_ClockConfig+0x140>)
 8003f1a:	6813      	ldr	r3, [r2, #0]
 8003f1c:	f003 0307 	and.w	r3, r3, #7
 8003f20:	42ab      	cmp	r3, r5
 8003f22:	d86f      	bhi.n	8004004 <HAL_RCC_ClockConfig+0x118>
 8003f24:	f011 0f04 	tst.w	r1, #4
 8003f28:	4d41      	ldr	r5, [pc, #260]	; (8004030 <HAL_RCC_ClockConfig+0x144>)
 8003f2a:	d177      	bne.n	800401c <HAL_RCC_ClockConfig+0x130>
 8003f2c:	070b      	lsls	r3, r1, #28
 8003f2e:	d506      	bpl.n	8003f3e <HAL_RCC_ClockConfig+0x52>
 8003f30:	68ab      	ldr	r3, [r5, #8]
 8003f32:	6922      	ldr	r2, [r4, #16]
 8003f34:	f423 5360 	bic.w	r3, r3, #14336	; 0x3800
 8003f38:	ea43 03c2 	orr.w	r3, r3, r2, lsl #3
 8003f3c:	60ab      	str	r3, [r5, #8]
 8003f3e:	f7ff fcb1 	bl	80038a4 <HAL_RCC_GetSysClockFreq>
 8003f42:	68ab      	ldr	r3, [r5, #8]
 8003f44:	4a3b      	ldr	r2, [pc, #236]	; (8004034 <HAL_RCC_ClockConfig+0x148>)
 8003f46:	f3c3 1303 	ubfx	r3, r3, #4, #4
 8003f4a:	e8bd 41f0 	ldmia.w	sp!, {r4, r5, r6, r7, r8, lr}
 8003f4e:	5cd3      	ldrb	r3, [r2, r3]
 8003f50:	f003 031f 	and.w	r3, r3, #31
 8003f54:	40d8      	lsrs	r0, r3
 8003f56:	4b38      	ldr	r3, [pc, #224]	; (8004038 <HAL_RCC_ClockConfig+0x14c>)
 8003f58:	6018      	str	r0, [r3, #0]
 8003f5a:	4b38      	ldr	r3, [pc, #224]	; (800403c <HAL_RCC_ClockConfig+0x150>)
 8003f5c:	6818      	ldr	r0, [r3, #0]
 8003f5e:	f7fd bdcd 	b.w	8001afc <HAL_InitTick>
 8003f62:	6813      	ldr	r3, [r2, #0]
 8003f64:	f023 0307 	bic.w	r3, r3, #7
 8003f68:	430b      	orrs	r3, r1
 8003f6a:	6013      	str	r3, [r2, #0]
 8003f6c:	6813      	ldr	r3, [r2, #0]
 8003f6e:	f003 0307 	and.w	r3, r3, #7
 8003f72:	428b      	cmp	r3, r1
 8003f74:	d1bf      	bne.n	8003ef6 <HAL_RCC_ClockConfig+0xa>
 8003f76:	e7c7      	b.n	8003f08 <HAL_RCC_ClockConfig+0x1c>
 8003f78:	4a2d      	ldr	r2, [pc, #180]	; (8004030 <HAL_RCC_ClockConfig+0x144>)
 8003f7a:	68a6      	ldr	r6, [r4, #8]
 8003f7c:	6891      	ldr	r1, [r2, #8]
 8003f7e:	f001 01f0 	and.w	r1, r1, #240	; 0xf0
 8003f82:	428e      	cmp	r6, r1
 8003f84:	bf81      	itttt	hi
 8003f86:	6893      	ldrhi	r3, [r2, #8]
 8003f88:	f023 03f0 	bichi.w	r3, r3, #240	; 0xf0
 8003f8c:	4333      	orrhi	r3, r6
 8003f8e:	6093      	strhi	r3, [r2, #8]
 8003f90:	e7bd      	b.n	8003f0e <HAL_RCC_ClockConfig+0x22>
 8003f92:	6862      	ldr	r2, [r4, #4]
 8003f94:	4e26      	ldr	r6, [pc, #152]	; (8004030 <HAL_RCC_ClockConfig+0x144>)
 8003f96:	2a03      	cmp	r2, #3
 8003f98:	6833      	ldr	r3, [r6, #0]
 8003f9a:	d11a      	bne.n	8003fd2 <HAL_RCC_ClockConfig+0xe6>
 8003f9c:	f013 7f00 	tst.w	r3, #33554432	; 0x2000000
 8003fa0:	d0a9      	beq.n	8003ef6 <HAL_RCC_ClockConfig+0xa>
 8003fa2:	68b3      	ldr	r3, [r6, #8]
 8003fa4:	f023 0303 	bic.w	r3, r3, #3
 8003fa8:	4313      	orrs	r3, r2
 8003faa:	60b3      	str	r3, [r6, #8]
 8003fac:	f7fd fde8 	bl	8001b80 <HAL_GetTick>
 8003fb0:	f241 3888 	movw	r8, #5000	; 0x1388
 8003fb4:	4607      	mov	r7, r0
 8003fb6:	68b3      	ldr	r3, [r6, #8]
 8003fb8:	6862      	ldr	r2, [r4, #4]
 8003fba:	f003 030c 	and.w	r3, r3, #12
 8003fbe:	ebb3 0f82 	cmp.w	r3, r2, lsl #2
 8003fc2:	d0a6      	beq.n	8003f12 <HAL_RCC_ClockConfig+0x26>
 8003fc4:	f7fd fddc 	bl	8001b80 <HAL_GetTick>
 8003fc8:	1bc0      	subs	r0, r0, r7
 8003fca:	4540      	cmp	r0, r8
 8003fcc:	d9f3      	bls.n	8003fb6 <HAL_RCC_ClockConfig+0xca>
 8003fce:	2003      	movs	r0, #3
 8003fd0:	e792      	b.n	8003ef8 <HAL_RCC_ClockConfig+0xc>
 8003fd2:	2a02      	cmp	r2, #2
 8003fd4:	d102      	bne.n	8003fdc <HAL_RCC_ClockConfig+0xf0>
 8003fd6:	f413 3f00 	tst.w	r3, #131072	; 0x20000
 8003fda:	e7e1      	b.n	8003fa0 <HAL_RCC_ClockConfig+0xb4>
 8003fdc:	b912      	cbnz	r2, 8003fe4 <HAL_RCC_ClockConfig+0xf8>
 8003fde:	f013 0f02 	tst.w	r3, #2
 8003fe2:	e7dd      	b.n	8003fa0 <HAL_RCC_ClockConfig+0xb4>
 8003fe4:	f413 6f80 	tst.w	r3, #1024	; 0x400
 8003fe8:	e7da      	b.n	8003fa0 <HAL_RCC_ClockConfig+0xb4>
 8003fea:	4a11      	ldr	r2, [pc, #68]	; (8004030 <HAL_RCC_ClockConfig+0x144>)
 8003fec:	68a6      	ldr	r6, [r4, #8]
 8003fee:	6890      	ldr	r0, [r2, #8]
 8003ff0:	f000 00f0 	and.w	r0, r0, #240	; 0xf0
 8003ff4:	4286      	cmp	r6, r0
 8003ff6:	bf3f      	itttt	cc
 8003ff8:	6893      	ldrcc	r3, [r2, #8]
 8003ffa:	f023 03f0 	biccc.w	r3, r3, #240	; 0xf0
 8003ffe:	4333      	orrcc	r3, r6
 8004000:	6093      	strcc	r3, [r2, #8]
 8004002:	e789      	b.n	8003f18 <HAL_RCC_ClockConfig+0x2c>
 8004004:	6813      	ldr	r3, [r2, #0]
 8004006:	f023 0307 	bic.w	r3, r3, #7
 800400a:	432b      	orrs	r3, r5
 800400c:	6013      	str	r3, [r2, #0]
 800400e:	6813      	ldr	r3, [r2, #0]
 8004010:	f003 0307 	and.w	r3, r3, #7
 8004014:	42ab      	cmp	r3, r5
 8004016:	f47f af6e 	bne.w	8003ef6 <HAL_RCC_ClockConfig+0xa>
 800401a:	e783      	b.n	8003f24 <HAL_RCC_ClockConfig+0x38>
 800401c:	68ab      	ldr	r3, [r5, #8]
 800401e:	68e2      	ldr	r2, [r4, #12]
 8004020:	f423 63e0 	bic.w	r3, r3, #1792	; 0x700
 8004024:	4313      	orrs	r3, r2
 8004026:	60ab      	str	r3, [r5, #8]
 8004028:	e780      	b.n	8003f2c <HAL_RCC_ClockConfig+0x40>
 800402a:	bf00      	nop
 800402c:	40022000 	.word	0x40022000
 8004030:	40021000 	.word	0x40021000
 8004034:	08005415 	.word	0x08005415
 8004038:	20000008 	.word	0x20000008
 800403c:	20000010 	.word	0x20000010

08004040 <HAL_RCC_GetPCLK1Freq>:
 8004040:	4b05      	ldr	r3, [pc, #20]	; (8004058 <HAL_RCC_GetPCLK1Freq+0x18>)
 8004042:	4a06      	ldr	r2, [pc, #24]	; (800405c <HAL_RCC_GetPCLK1Freq+0x1c>)
 8004044:	689b      	ldr	r3, [r3, #8]
 8004046:	f3c3 2302 	ubfx	r3, r3, #8, #3
 800404a:	5cd3      	ldrb	r3, [r2, r3]
 800404c:	4a04      	ldr	r2, [pc, #16]	; (8004060 <HAL_RCC_GetPCLK1Freq+0x20>)
 800404e:	6810      	ldr	r0, [r2, #0]
 8004050:	f003 031f 	and.w	r3, r3, #31
 8004054:	40d8      	lsrs	r0, r3
 8004056:	4770      	bx	lr
 8004058:	40021000 	.word	0x40021000
 800405c:	08005425 	.word	0x08005425
 8004060:	20000008 	.word	0x20000008

08004064 <HAL_RCC_GetPCLK2Freq>:
 8004064:	4b05      	ldr	r3, [pc, #20]	; (800407c <HAL_RCC_GetPCLK2Freq+0x18>)
 8004066:	4a06      	ldr	r2, [pc, #24]	; (8004080 <HAL_RCC_GetPCLK2Freq+0x1c>)
 8004068:	689b      	ldr	r3, [r3, #8]
 800406a:	f3c3 23c2 	ubfx	r3, r3, #11, #3
 800406e:	5cd3      	ldrb	r3, [r2, r3]
 8004070:	4a04      	ldr	r2, [pc, #16]	; (8004084 <HAL_RCC_GetPCLK2Freq+0x20>)
 8004072:	6810      	ldr	r0, [r2, #0]
 8004074:	f003 031f 	and.w	r3, r3, #31
 8004078:	40d8      	lsrs	r0, r3
 800407a:	4770      	bx	lr
 800407c:	40021000 	.word	0x40021000
 8004080:	08005425 	.word	0x08005425
 8004084:	20000008 	.word	0x20000008

08004088 <HAL_RCCEx_PeriphCLKConfig>:
 8004088:	e92d 41f3 	stmdb	sp!, {r0, r1, r4, r5, r6, r7, r8, lr}
 800408c:	4604      	mov	r4, r0
 800408e:	6800      	ldr	r0, [r0, #0]
 8004090:	f410 3000 	ands.w	r0, r0, #131072	; 0x20000
 8004094:	d039      	beq.n	800410a <HAL_RCCEx_PeriphCLKConfig+0x82>
 8004096:	4d75      	ldr	r5, [pc, #468]	; (800426c <HAL_RCCEx_PeriphCLKConfig+0x1e4>)
 8004098:	6dab      	ldr	r3, [r5, #88]	; 0x58
 800409a:	00d8      	lsls	r0, r3, #3
 800409c:	d427      	bmi.n	80040ee <HAL_RCCEx_PeriphCLKConfig+0x66>
 800409e:	6dab      	ldr	r3, [r5, #88]	; 0x58
 80040a0:	f043 5380 	orr.w	r3, r3, #268435456	; 0x10000000
 80040a4:	65ab      	str	r3, [r5, #88]	; 0x58
 80040a6:	6dab      	ldr	r3, [r5, #88]	; 0x58
 80040a8:	f003 5380 	and.w	r3, r3, #268435456	; 0x10000000
 80040ac:	9301      	str	r3, [sp, #4]
 80040ae:	9b01      	ldr	r3, [sp, #4]
 80040b0:	2601      	movs	r6, #1
 80040b2:	4f6f      	ldr	r7, [pc, #444]	; (8004270 <HAL_RCCEx_PeriphCLKConfig+0x1e8>)
 80040b4:	683b      	ldr	r3, [r7, #0]
 80040b6:	f443 7380 	orr.w	r3, r3, #256	; 0x100
 80040ba:	603b      	str	r3, [r7, #0]
 80040bc:	f7fd fd60 	bl	8001b80 <HAL_GetTick>
 80040c0:	4680      	mov	r8, r0
 80040c2:	683b      	ldr	r3, [r7, #0]
 80040c4:	05d9      	lsls	r1, r3, #23
 80040c6:	d514      	bpl.n	80040f2 <HAL_RCCEx_PeriphCLKConfig+0x6a>
 80040c8:	f8d5 3090 	ldr.w	r3, [r5, #144]	; 0x90
 80040cc:	f413 7340 	ands.w	r3, r3, #768	; 0x300
 80040d0:	d003      	beq.n	80040da <HAL_RCCEx_PeriphCLKConfig+0x52>
 80040d2:	6b22      	ldr	r2, [r4, #48]	; 0x30
 80040d4:	4293      	cmp	r3, r2
 80040d6:	f040 80a3 	bne.w	8004220 <HAL_RCCEx_PeriphCLKConfig+0x198>
 80040da:	f8d5 3090 	ldr.w	r3, [r5, #144]	; 0x90
 80040de:	6b22      	ldr	r2, [r4, #48]	; 0x30
 80040e0:	f423 7340 	bic.w	r3, r3, #768	; 0x300
 80040e4:	4313      	orrs	r3, r2
 80040e6:	f8c5 3090 	str.w	r3, [r5, #144]	; 0x90
 80040ea:	2000      	movs	r0, #0
 80040ec:	e008      	b.n	8004100 <HAL_RCCEx_PeriphCLKConfig+0x78>
 80040ee:	2600      	movs	r6, #0
 80040f0:	e7df      	b.n	80040b2 <HAL_RCCEx_PeriphCLKConfig+0x2a>
 80040f2:	f7fd fd45 	bl	8001b80 <HAL_GetTick>
 80040f6:	eba0 0008 	sub.w	r0, r0, r8
 80040fa:	2802      	cmp	r0, #2
 80040fc:	d9e1      	bls.n	80040c2 <HAL_RCCEx_PeriphCLKConfig+0x3a>
 80040fe:	2003      	movs	r0, #3
 8004100:	b11e      	cbz	r6, 800410a <HAL_RCCEx_PeriphCLKConfig+0x82>
 8004102:	6dab      	ldr	r3, [r5, #88]	; 0x58
 8004104:	f023 5380 	bic.w	r3, r3, #268435456	; 0x10000000
 8004108:	65ab      	str	r3, [r5, #88]	; 0x58
 800410a:	6823      	ldr	r3, [r4, #0]
 800410c:	07df      	lsls	r7, r3, #31
 800410e:	d508      	bpl.n	8004122 <HAL_RCCEx_PeriphCLKConfig+0x9a>
 8004110:	4956      	ldr	r1, [pc, #344]	; (800426c <HAL_RCCEx_PeriphCLKConfig+0x1e4>)
 8004112:	6865      	ldr	r5, [r4, #4]
 8004114:	f8d1 2088 	ldr.w	r2, [r1, #136]	; 0x88
 8004118:	f022 0203 	bic.w	r2, r2, #3
 800411c:	432a      	orrs	r2, r5
 800411e:	f8c1 2088 	str.w	r2, [r1, #136]	; 0x88
 8004122:	079e      	lsls	r6, r3, #30
 8004124:	d508      	bpl.n	8004138 <HAL_RCCEx_PeriphCLKConfig+0xb0>
 8004126:	4951      	ldr	r1, [pc, #324]	; (800426c <HAL_RCCEx_PeriphCLKConfig+0x1e4>)
 8004128:	68a5      	ldr	r5, [r4, #8]
 800412a:	f8d1 2088 	ldr.w	r2, [r1, #136]	; 0x88
 800412e:	f022 020c 	bic.w	r2, r2, #12
 8004132:	432a      	orrs	r2, r5
 8004134:	f8c1 2088 	str.w	r2, [r1, #136]	; 0x88
 8004138:	075d      	lsls	r5, r3, #29
 800413a:	d508      	bpl.n	800414e <HAL_RCCEx_PeriphCLKConfig+0xc6>
 800413c:	494b      	ldr	r1, [pc, #300]	; (800426c <HAL_RCCEx_PeriphCLKConfig+0x1e4>)
 800413e:	68e5      	ldr	r5, [r4, #12]
 8004140:	f8d1 2088 	ldr.w	r2, [r1, #136]	; 0x88
 8004144:	f022 0230 	bic.w	r2, r2, #48	; 0x30
 8004148:	432a      	orrs	r2, r5
 800414a:	f8c1 2088 	str.w	r2, [r1, #136]	; 0x88
 800414e:	0699      	lsls	r1, r3, #26
 8004150:	d508      	bpl.n	8004164 <HAL_RCCEx_PeriphCLKConfig+0xdc>
 8004152:	4946      	ldr	r1, [pc, #280]	; (800426c <HAL_RCCEx_PeriphCLKConfig+0x1e4>)
 8004154:	6925      	ldr	r5, [r4, #16]
 8004156:	f8d1 2088 	ldr.w	r2, [r1, #136]	; 0x88
 800415a:	f422 6240 	bic.w	r2, r2, #3072	; 0xc00
 800415e:	432a      	orrs	r2, r5
 8004160:	f8c1 2088 	str.w	r2, [r1, #136]	; 0x88
 8004164:	059a      	lsls	r2, r3, #22
 8004166:	d508      	bpl.n	800417a <HAL_RCCEx_PeriphCLKConfig+0xf2>
 8004168:	4940      	ldr	r1, [pc, #256]	; (800426c <HAL_RCCEx_PeriphCLKConfig+0x1e4>)
 800416a:	6a25      	ldr	r5, [r4, #32]
 800416c:	f8d1 2088 	ldr.w	r2, [r1, #136]	; 0x88
 8004170:	f422 2240 	bic.w	r2, r2, #786432	; 0xc0000
 8004174:	432a      	orrs	r2, r5
 8004176:	f8c1 2088 	str.w	r2, [r1, #136]	; 0x88
 800417a:	055f      	lsls	r7, r3, #21
 800417c:	d508      	bpl.n	8004190 <HAL_RCCEx_PeriphCLKConfig+0x108>
 800417e:	493b      	ldr	r1, [pc, #236]	; (800426c <HAL_RCCEx_PeriphCLKConfig+0x1e4>)
 8004180:	6a65      	ldr	r5, [r4, #36]	; 0x24
 8004182:	f8d1 2088 	ldr.w	r2, [r1, #136]	; 0x88
 8004186:	f422 1240 	bic.w	r2, r2, #3145728	; 0x300000
 800418a:	432a      	orrs	r2, r5
 800418c:	f8c1 2088 	str.w	r2, [r1, #136]	; 0x88
 8004190:	065e      	lsls	r6, r3, #25
 8004192:	d508      	bpl.n	80041a6 <HAL_RCCEx_PeriphCLKConfig+0x11e>
 8004194:	4935      	ldr	r1, [pc, #212]	; (800426c <HAL_RCCEx_PeriphCLKConfig+0x1e4>)
 8004196:	6965      	ldr	r5, [r4, #20]
 8004198:	f8d1 2088 	ldr.w	r2, [r1, #136]	; 0x88
 800419c:	f422 5240 	bic.w	r2, r2, #12288	; 0x3000
 80041a0:	432a      	orrs	r2, r5
 80041a2:	f8c1 2088 	str.w	r2, [r1, #136]	; 0x88
 80041a6:	061d      	lsls	r5, r3, #24
 80041a8:	d508      	bpl.n	80041bc <HAL_RCCEx_PeriphCLKConfig+0x134>
 80041aa:	4930      	ldr	r1, [pc, #192]	; (800426c <HAL_RCCEx_PeriphCLKConfig+0x1e4>)
 80041ac:	69a5      	ldr	r5, [r4, #24]
 80041ae:	f8d1 2088 	ldr.w	r2, [r1, #136]	; 0x88
 80041b2:	f422 4240 	bic.w	r2, r2, #49152	; 0xc000
 80041b6:	432a      	orrs	r2, r5
 80041b8:	f8c1 2088 	str.w	r2, [r1, #136]	; 0x88
 80041bc:	05d9      	lsls	r1, r3, #23
 80041be:	d508      	bpl.n	80041d2 <HAL_RCCEx_PeriphCLKConfig+0x14a>
 80041c0:	492a      	ldr	r1, [pc, #168]	; (800426c <HAL_RCCEx_PeriphCLKConfig+0x1e4>)
 80041c2:	69e5      	ldr	r5, [r4, #28]
 80041c4:	f8d1 2088 	ldr.w	r2, [r1, #136]	; 0x88
 80041c8:	f422 3240 	bic.w	r2, r2, #196608	; 0x30000
 80041cc:	432a      	orrs	r2, r5
 80041ce:	f8c1 2088 	str.w	r2, [r1, #136]	; 0x88
 80041d2:	049a      	lsls	r2, r3, #18
 80041d4:	d50f      	bpl.n	80041f6 <HAL_RCCEx_PeriphCLKConfig+0x16e>
 80041d6:	4925      	ldr	r1, [pc, #148]	; (800426c <HAL_RCCEx_PeriphCLKConfig+0x1e4>)
 80041d8:	6aa5      	ldr	r5, [r4, #40]	; 0x28
 80041da:	f8d1 2088 	ldr.w	r2, [r1, #136]	; 0x88
 80041de:	f022 6240 	bic.w	r2, r2, #201326592	; 0xc000000
 80041e2:	432a      	orrs	r2, r5
 80041e4:	f8c1 2088 	str.w	r2, [r1, #136]	; 0x88
 80041e8:	f1b5 6f00 	cmp.w	r5, #134217728	; 0x8000000
 80041ec:	bf02      	ittt	eq
 80041ee:	68ca      	ldreq	r2, [r1, #12]
 80041f0:	f442 1280 	orreq.w	r2, r2, #1048576	; 0x100000
 80041f4:	60ca      	streq	r2, [r1, #12]
 80041f6:	035b      	lsls	r3, r3, #13
 80041f8:	d50f      	bpl.n	800421a <HAL_RCCEx_PeriphCLKConfig+0x192>
 80041fa:	4a1c      	ldr	r2, [pc, #112]	; (800426c <HAL_RCCEx_PeriphCLKConfig+0x1e4>)
 80041fc:	6ae1      	ldr	r1, [r4, #44]	; 0x2c
 80041fe:	f8d2 3088 	ldr.w	r3, [r2, #136]	; 0x88
 8004202:	f023 6340 	bic.w	r3, r3, #201326592	; 0xc000000
 8004206:	430b      	orrs	r3, r1
 8004208:	f1b1 6f00 	cmp.w	r1, #134217728	; 0x8000000
 800420c:	f8c2 3088 	str.w	r3, [r2, #136]	; 0x88
 8004210:	d103      	bne.n	800421a <HAL_RCCEx_PeriphCLKConfig+0x192>
 8004212:	68d3      	ldr	r3, [r2, #12]
 8004214:	f443 1380 	orr.w	r3, r3, #1048576	; 0x100000
 8004218:	60d3      	str	r3, [r2, #12]
 800421a:	b002      	add	sp, #8
 800421c:	e8bd 81f0 	ldmia.w	sp!, {r4, r5, r6, r7, r8, pc}
 8004220:	f8d5 2090 	ldr.w	r2, [r5, #144]	; 0x90
 8004224:	f8d5 3090 	ldr.w	r3, [r5, #144]	; 0x90
 8004228:	f443 3380 	orr.w	r3, r3, #65536	; 0x10000
 800422c:	f8c5 3090 	str.w	r3, [r5, #144]	; 0x90
 8004230:	f8d5 3090 	ldr.w	r3, [r5, #144]	; 0x90
 8004234:	f422 7140 	bic.w	r1, r2, #768	; 0x300
 8004238:	f423 3380 	bic.w	r3, r3, #65536	; 0x10000
 800423c:	07d2      	lsls	r2, r2, #31
 800423e:	f8c5 3090 	str.w	r3, [r5, #144]	; 0x90
 8004242:	f8c5 1090 	str.w	r1, [r5, #144]	; 0x90
 8004246:	f57f af48 	bpl.w	80040da <HAL_RCCEx_PeriphCLKConfig+0x52>
 800424a:	f7fd fc99 	bl	8001b80 <HAL_GetTick>
 800424e:	f241 3888 	movw	r8, #5000	; 0x1388
 8004252:	4607      	mov	r7, r0
 8004254:	f8d5 3090 	ldr.w	r3, [r5, #144]	; 0x90
 8004258:	079b      	lsls	r3, r3, #30
 800425a:	f53f af3e 	bmi.w	80040da <HAL_RCCEx_PeriphCLKConfig+0x52>
 800425e:	f7fd fc8f 	bl	8001b80 <HAL_GetTick>
 8004262:	1bc0      	subs	r0, r0, r7
 8004264:	4540      	cmp	r0, r8
 8004266:	d9f5      	bls.n	8004254 <HAL_RCCEx_PeriphCLKConfig+0x1cc>
 8004268:	e749      	b.n	80040fe <HAL_RCCEx_PeriphCLKConfig+0x76>
 800426a:	bf00      	nop
 800426c:	40021000 	.word	0x40021000
 8004270:	40007000 	.word	0x40007000

08004274 <TIM_OC1_SetConfig>:
 8004274:	6a03      	ldr	r3, [r0, #32]
 8004276:	f023 0301 	bic.w	r3, r3, #1
 800427a:	6203      	str	r3, [r0, #32]
 800427c:	6a03      	ldr	r3, [r0, #32]
 800427e:	b570      	push	{r4, r5, r6, lr}
 8004280:	6844      	ldr	r4, [r0, #4]
 8004282:	6982      	ldr	r2, [r0, #24]
 8004284:	680d      	ldr	r5, [r1, #0]
 8004286:	f422 3280 	bic.w	r2, r2, #65536	; 0x10000
 800428a:	f022 0273 	bic.w	r2, r2, #115	; 0x73
 800428e:	432a      	orrs	r2, r5
 8004290:	688d      	ldr	r5, [r1, #8]
 8004292:	f023 0302 	bic.w	r3, r3, #2
 8004296:	432b      	orrs	r3, r5
 8004298:	4d12      	ldr	r5, [pc, #72]	; (80042e4 <TIM_OC1_SetConfig+0x70>)
 800429a:	42a8      	cmp	r0, r5
 800429c:	d006      	beq.n	80042ac <TIM_OC1_SetConfig+0x38>
 800429e:	4e12      	ldr	r6, [pc, #72]	; (80042e8 <TIM_OC1_SetConfig+0x74>)
 80042a0:	42b0      	cmp	r0, r6
 80042a2:	d003      	beq.n	80042ac <TIM_OC1_SetConfig+0x38>
 80042a4:	f506 6680 	add.w	r6, r6, #1024	; 0x400
 80042a8:	42b0      	cmp	r0, r6
 80042aa:	d114      	bne.n	80042d6 <TIM_OC1_SetConfig+0x62>
 80042ac:	68ce      	ldr	r6, [r1, #12]
 80042ae:	f023 0308 	bic.w	r3, r3, #8
 80042b2:	4333      	orrs	r3, r6
 80042b4:	42a8      	cmp	r0, r5
 80042b6:	f023 0304 	bic.w	r3, r3, #4
 80042ba:	d006      	beq.n	80042ca <TIM_OC1_SetConfig+0x56>
 80042bc:	4d0a      	ldr	r5, [pc, #40]	; (80042e8 <TIM_OC1_SetConfig+0x74>)
 80042be:	42a8      	cmp	r0, r5
 80042c0:	d003      	beq.n	80042ca <TIM_OC1_SetConfig+0x56>
 80042c2:	f505 6580 	add.w	r5, r5, #1024	; 0x400
 80042c6:	42a8      	cmp	r0, r5
 80042c8:	d105      	bne.n	80042d6 <TIM_OC1_SetConfig+0x62>
 80042ca:	f424 7540 	bic.w	r5, r4, #768	; 0x300
 80042ce:	e9d1 4605 	ldrd	r4, r6, [r1, #20]
 80042d2:	4334      	orrs	r4, r6
 80042d4:	432c      	orrs	r4, r5
 80042d6:	6044      	str	r4, [r0, #4]
 80042d8:	6182      	str	r2, [r0, #24]
 80042da:	684a      	ldr	r2, [r1, #4]
 80042dc:	6342      	str	r2, [r0, #52]	; 0x34
 80042de:	6203      	str	r3, [r0, #32]
 80042e0:	bd70      	pop	{r4, r5, r6, pc}
 80042e2:	bf00      	nop
 80042e4:	40012c00 	.word	0x40012c00
 80042e8:	40014000 	.word	0x40014000

080042ec <TIM_OC3_SetConfig>:
 80042ec:	6a03      	ldr	r3, [r0, #32]
 80042ee:	f423 7380 	bic.w	r3, r3, #256	; 0x100
 80042f2:	6203      	str	r3, [r0, #32]
 80042f4:	6a03      	ldr	r3, [r0, #32]
 80042f6:	6842      	ldr	r2, [r0, #4]
 80042f8:	b570      	push	{r4, r5, r6, lr}
 80042fa:	69c4      	ldr	r4, [r0, #28]
 80042fc:	680d      	ldr	r5, [r1, #0]
 80042fe:	f424 3480 	bic.w	r4, r4, #65536	; 0x10000
 8004302:	f024 0473 	bic.w	r4, r4, #115	; 0x73
 8004306:	432c      	orrs	r4, r5
 8004308:	688d      	ldr	r5, [r1, #8]
 800430a:	f423 7300 	bic.w	r3, r3, #512	; 0x200
 800430e:	ea43 2305 	orr.w	r3, r3, r5, lsl #8
 8004312:	4d0f      	ldr	r5, [pc, #60]	; (8004350 <TIM_OC3_SetConfig+0x64>)
 8004314:	42a8      	cmp	r0, r5
 8004316:	d10e      	bne.n	8004336 <TIM_OC3_SetConfig+0x4a>
 8004318:	68cd      	ldr	r5, [r1, #12]
 800431a:	f423 6300 	bic.w	r3, r3, #2048	; 0x800
 800431e:	ea43 2305 	orr.w	r3, r3, r5, lsl #8
 8004322:	f423 6380 	bic.w	r3, r3, #1024	; 0x400
 8004326:	e9d1 5605 	ldrd	r5, r6, [r1, #20]
 800432a:	f422 5240 	bic.w	r2, r2, #12288	; 0x3000
 800432e:	4335      	orrs	r5, r6
 8004330:	ea42 1205 	orr.w	r2, r2, r5, lsl #4
 8004334:	e005      	b.n	8004342 <TIM_OC3_SetConfig+0x56>
 8004336:	4d07      	ldr	r5, [pc, #28]	; (8004354 <TIM_OC3_SetConfig+0x68>)
 8004338:	42a8      	cmp	r0, r5
 800433a:	d0f4      	beq.n	8004326 <TIM_OC3_SetConfig+0x3a>
 800433c:	4d06      	ldr	r5, [pc, #24]	; (8004358 <TIM_OC3_SetConfig+0x6c>)
 800433e:	42a8      	cmp	r0, r5
 8004340:	d0f1      	beq.n	8004326 <TIM_OC3_SetConfig+0x3a>
 8004342:	6042      	str	r2, [r0, #4]
 8004344:	684a      	ldr	r2, [r1, #4]
 8004346:	61c4      	str	r4, [r0, #28]
 8004348:	63c2      	str	r2, [r0, #60]	; 0x3c
 800434a:	6203      	str	r3, [r0, #32]
 800434c:	bd70      	pop	{r4, r5, r6, pc}
 800434e:	bf00      	nop
 8004350:	40012c00 	.word	0x40012c00
 8004354:	40014000 	.word	0x40014000
 8004358:	40014400 	.word	0x40014400

0800435c <TIM_OC4_SetConfig>:
 800435c:	6a03      	ldr	r3, [r0, #32]
 800435e:	f423 5380 	bic.w	r3, r3, #4096	; 0x1000
 8004362:	6203      	str	r3, [r0, #32]
 8004364:	6a02      	ldr	r2, [r0, #32]
 8004366:	b530      	push	{r4, r5, lr}
 8004368:	6844      	ldr	r4, [r0, #4]
 800436a:	69c3      	ldr	r3, [r0, #28]
 800436c:	680d      	ldr	r5, [r1, #0]
 800436e:	f023 7380 	bic.w	r3, r3, #16777216	; 0x1000000
 8004372:	f423 43e6 	bic.w	r3, r3, #29440	; 0x7300
 8004376:	ea43 2305 	orr.w	r3, r3, r5, lsl #8
 800437a:	688d      	ldr	r5, [r1, #8]
 800437c:	f422 5200 	bic.w	r2, r2, #8192	; 0x2000
 8004380:	ea42 3205 	orr.w	r2, r2, r5, lsl #12
 8004384:	4d0a      	ldr	r5, [pc, #40]	; (80043b0 <TIM_OC4_SetConfig+0x54>)
 8004386:	42a8      	cmp	r0, r5
 8004388:	d007      	beq.n	800439a <TIM_OC4_SetConfig+0x3e>
 800438a:	f505 55a0 	add.w	r5, r5, #5120	; 0x1400
 800438e:	42a8      	cmp	r0, r5
 8004390:	d003      	beq.n	800439a <TIM_OC4_SetConfig+0x3e>
 8004392:	f505 6580 	add.w	r5, r5, #1024	; 0x400
 8004396:	42a8      	cmp	r0, r5
 8004398:	d104      	bne.n	80043a4 <TIM_OC4_SetConfig+0x48>
 800439a:	694d      	ldr	r5, [r1, #20]
 800439c:	f424 4480 	bic.w	r4, r4, #16384	; 0x4000
 80043a0:	ea44 1485 	orr.w	r4, r4, r5, lsl #6
 80043a4:	6044      	str	r4, [r0, #4]
 80043a6:	61c3      	str	r3, [r0, #28]
 80043a8:	684b      	ldr	r3, [r1, #4]
 80043aa:	6403      	str	r3, [r0, #64]	; 0x40
 80043ac:	6202      	str	r2, [r0, #32]
 80043ae:	bd30      	pop	{r4, r5, pc}
 80043b0:	40012c00 	.word	0x40012c00

080043b4 <TIM_OC5_SetConfig>:
 80043b4:	6a03      	ldr	r3, [r0, #32]
 80043b6:	f423 3380 	bic.w	r3, r3, #65536	; 0x10000
 80043ba:	6203      	str	r3, [r0, #32]
 80043bc:	6a02      	ldr	r2, [r0, #32]
 80043be:	b530      	push	{r4, r5, lr}
 80043c0:	6844      	ldr	r4, [r0, #4]
 80043c2:	6d43      	ldr	r3, [r0, #84]	; 0x54
 80043c4:	680d      	ldr	r5, [r1, #0]
 80043c6:	f423 3380 	bic.w	r3, r3, #65536	; 0x10000
 80043ca:	f023 0370 	bic.w	r3, r3, #112	; 0x70
 80043ce:	432b      	orrs	r3, r5
 80043d0:	688d      	ldr	r5, [r1, #8]
 80043d2:	f422 3200 	bic.w	r2, r2, #131072	; 0x20000
 80043d6:	ea42 4205 	orr.w	r2, r2, r5, lsl #16
 80043da:	4d0b      	ldr	r5, [pc, #44]	; (8004408 <TIM_OC5_SetConfig+0x54>)
 80043dc:	42a8      	cmp	r0, r5
 80043de:	d007      	beq.n	80043f0 <TIM_OC5_SetConfig+0x3c>
 80043e0:	f505 55a0 	add.w	r5, r5, #5120	; 0x1400
 80043e4:	42a8      	cmp	r0, r5
 80043e6:	d003      	beq.n	80043f0 <TIM_OC5_SetConfig+0x3c>
 80043e8:	f505 6580 	add.w	r5, r5, #1024	; 0x400
 80043ec:	42a8      	cmp	r0, r5
 80043ee:	d104      	bne.n	80043fa <TIM_OC5_SetConfig+0x46>
 80043f0:	694d      	ldr	r5, [r1, #20]
 80043f2:	f424 3480 	bic.w	r4, r4, #65536	; 0x10000
 80043f6:	ea44 2405 	orr.w	r4, r4, r5, lsl #8
 80043fa:	6044      	str	r4, [r0, #4]
 80043fc:	6543      	str	r3, [r0, #84]	; 0x54
 80043fe:	684b      	ldr	r3, [r1, #4]
 8004400:	6583      	str	r3, [r0, #88]	; 0x58
 8004402:	6202      	str	r2, [r0, #32]
 8004404:	bd30      	pop	{r4, r5, pc}
 8004406:	bf00      	nop
 8004408:	40012c00 	.word	0x40012c00

0800440c <TIM_OC6_SetConfig>:
 800440c:	6a03      	ldr	r3, [r0, #32]
 800440e:	f423 1380 	bic.w	r3, r3, #1048576	; 0x100000
 8004412:	6203      	str	r3, [r0, #32]
 8004414:	6a02      	ldr	r2, [r0, #32]
 8004416:	b530      	push	{r4, r5, lr}
 8004418:	6844      	ldr	r4, [r0, #4]
 800441a:	6d43      	ldr	r3, [r0, #84]	; 0x54
 800441c:	680d      	ldr	r5, [r1, #0]
 800441e:	f023 7380 	bic.w	r3, r3, #16777216	; 0x1000000
 8004422:	f423 43e0 	bic.w	r3, r3, #28672	; 0x7000
 8004426:	ea43 2305 	orr.w	r3, r3, r5, lsl #8
 800442a:	688d      	ldr	r5, [r1, #8]
 800442c:	f422 1200 	bic.w	r2, r2, #2097152	; 0x200000
 8004430:	ea42 5205 	orr.w	r2, r2, r5, lsl #20
 8004434:	4d0a      	ldr	r5, [pc, #40]	; (8004460 <TIM_OC6_SetConfig+0x54>)
 8004436:	42a8      	cmp	r0, r5
 8004438:	d007      	beq.n	800444a <TIM_OC6_SetConfig+0x3e>
 800443a:	f505 55a0 	add.w	r5, r5, #5120	; 0x1400
 800443e:	42a8      	cmp	r0, r5
 8004440:	d003      	beq.n	800444a <TIM_OC6_SetConfig+0x3e>
 8004442:	f505 6580 	add.w	r5, r5, #1024	; 0x400
 8004446:	42a8      	cmp	r0, r5
 8004448:	d104      	bne.n	8004454 <TIM_OC6_SetConfig+0x48>
 800444a:	694d      	ldr	r5, [r1, #20]
 800444c:	f424 2480 	bic.w	r4, r4, #262144	; 0x40000
 8004450:	ea44 2485 	orr.w	r4, r4, r5, lsl #10
 8004454:	6044      	str	r4, [r0, #4]
 8004456:	6543      	str	r3, [r0, #84]	; 0x54
 8004458:	684b      	ldr	r3, [r1, #4]
 800445a:	65c3      	str	r3, [r0, #92]	; 0x5c
 800445c:	6202      	str	r2, [r0, #32]
 800445e:	bd30      	pop	{r4, r5, pc}
 8004460:	40012c00 	.word	0x40012c00

08004464 <HAL_TIM_Base_Start_IT>:
 8004464:	f890 303d 	ldrb.w	r3, [r0, #61]	; 0x3d
 8004468:	2b01      	cmp	r3, #1
 800446a:	d11f      	bne.n	80044ac <HAL_TIM_Base_Start_IT+0x48>
 800446c:	2302      	movs	r3, #2
 800446e:	f880 303d 	strb.w	r3, [r0, #61]	; 0x3d
 8004472:	6803      	ldr	r3, [r0, #0]
 8004474:	68da      	ldr	r2, [r3, #12]
 8004476:	f042 0201 	orr.w	r2, r2, #1
 800447a:	60da      	str	r2, [r3, #12]
 800447c:	4a0c      	ldr	r2, [pc, #48]	; (80044b0 <HAL_TIM_Base_Start_IT+0x4c>)
 800447e:	4293      	cmp	r3, r2
 8004480:	d006      	beq.n	8004490 <HAL_TIM_Base_Start_IT+0x2c>
 8004482:	f1b3 4f80 	cmp.w	r3, #1073741824	; 0x40000000
 8004486:	d003      	beq.n	8004490 <HAL_TIM_Base_Start_IT+0x2c>
 8004488:	f502 52a0 	add.w	r2, r2, #5120	; 0x1400
 800448c:	4293      	cmp	r3, r2
 800448e:	d107      	bne.n	80044a0 <HAL_TIM_Base_Start_IT+0x3c>
 8004490:	6899      	ldr	r1, [r3, #8]
 8004492:	4a08      	ldr	r2, [pc, #32]	; (80044b4 <HAL_TIM_Base_Start_IT+0x50>)
 8004494:	400a      	ands	r2, r1
 8004496:	2a06      	cmp	r2, #6
 8004498:	d006      	beq.n	80044a8 <HAL_TIM_Base_Start_IT+0x44>
 800449a:	f5b2 3f80 	cmp.w	r2, #65536	; 0x10000
 800449e:	d003      	beq.n	80044a8 <HAL_TIM_Base_Start_IT+0x44>
 80044a0:	681a      	ldr	r2, [r3, #0]
 80044a2:	f042 0201 	orr.w	r2, r2, #1
 80044a6:	601a      	str	r2, [r3, #0]
 80044a8:	2000      	movs	r0, #0
 80044aa:	4770      	bx	lr
 80044ac:	2001      	movs	r0, #1
 80044ae:	4770      	bx	lr
 80044b0:	40012c00 	.word	0x40012c00
 80044b4:	00010007 	.word	0x00010007

080044b8 <HAL_TIM_Base_Stop_IT>:
 80044b8:	6803      	ldr	r3, [r0, #0]
 80044ba:	68da      	ldr	r2, [r3, #12]
 80044bc:	f022 0201 	bic.w	r2, r2, #1
 80044c0:	60da      	str	r2, [r3, #12]
 80044c2:	6a19      	ldr	r1, [r3, #32]
 80044c4:	f241 1211 	movw	r2, #4369	; 0x1111
 80044c8:	4211      	tst	r1, r2
 80044ca:	d108      	bne.n	80044de <HAL_TIM_Base_Stop_IT+0x26>
 80044cc:	6a19      	ldr	r1, [r3, #32]
 80044ce:	f240 4244 	movw	r2, #1092	; 0x444
 80044d2:	4211      	tst	r1, r2
 80044d4:	bf02      	ittt	eq
 80044d6:	681a      	ldreq	r2, [r3, #0]
 80044d8:	f022 0201 	biceq.w	r2, r2, #1
 80044dc:	601a      	streq	r2, [r3, #0]
 80044de:	2301      	movs	r3, #1
 80044e0:	f880 303d 	strb.w	r3, [r0, #61]	; 0x3d
 80044e4:	2000      	movs	r0, #0
 80044e6:	4770      	bx	lr

080044e8 <HAL_TIM_OC_MspInit>:
 80044e8:	4770      	bx	lr

080044ea <HAL_TIM_OnePulse_MspInit>:
 80044ea:	4770      	bx	lr

080044ec <HAL_TIM_PeriodElapsedCallback>:
 80044ec:	4770      	bx	lr

080044ee <HAL_TIM_OC_DelayElapsedCallback>:
 80044ee:	4770      	bx	lr

080044f0 <HAL_TIM_IC_CaptureCallback>:
 80044f0:	4770      	bx	lr

080044f2 <HAL_TIM_PWM_PulseFinishedCallback>:
 80044f2:	4770      	bx	lr

080044f4 <HAL_TIM_TriggerCallback>:
 80044f4:	4770      	bx	lr

080044f6 <HAL_TIM_IRQHandler>:
 80044f6:	6803      	ldr	r3, [r0, #0]
 80044f8:	691a      	ldr	r2, [r3, #16]
 80044fa:	0791      	lsls	r1, r2, #30
 80044fc:	b510      	push	{r4, lr}
 80044fe:	4604      	mov	r4, r0
 8004500:	d50f      	bpl.n	8004522 <HAL_TIM_IRQHandler+0x2c>
 8004502:	68da      	ldr	r2, [r3, #12]
 8004504:	0792      	lsls	r2, r2, #30
 8004506:	d50c      	bpl.n	8004522 <HAL_TIM_IRQHandler+0x2c>
 8004508:	f06f 0202 	mvn.w	r2, #2
 800450c:	611a      	str	r2, [r3, #16]
 800450e:	2201      	movs	r2, #1
 8004510:	7702      	strb	r2, [r0, #28]
 8004512:	699b      	ldr	r3, [r3, #24]
 8004514:	0799      	lsls	r1, r3, #30
 8004516:	f000 8085 	beq.w	8004624 <HAL_TIM_IRQHandler+0x12e>
 800451a:	f7ff ffe9 	bl	80044f0 <HAL_TIM_IC_CaptureCallback>
 800451e:	2300      	movs	r3, #0
 8004520:	7723      	strb	r3, [r4, #28]
 8004522:	6823      	ldr	r3, [r4, #0]
 8004524:	691a      	ldr	r2, [r3, #16]
 8004526:	0752      	lsls	r2, r2, #29
 8004528:	d510      	bpl.n	800454c <HAL_TIM_IRQHandler+0x56>
 800452a:	68da      	ldr	r2, [r3, #12]
 800452c:	0750      	lsls	r0, r2, #29
 800452e:	d50d      	bpl.n	800454c <HAL_TIM_IRQHandler+0x56>
 8004530:	f06f 0204 	mvn.w	r2, #4
 8004534:	611a      	str	r2, [r3, #16]
 8004536:	2202      	movs	r2, #2
 8004538:	7722      	strb	r2, [r4, #28]
 800453a:	699b      	ldr	r3, [r3, #24]
 800453c:	f413 7f40 	tst.w	r3, #768	; 0x300
 8004540:	4620      	mov	r0, r4
 8004542:	d075      	beq.n	8004630 <HAL_TIM_IRQHandler+0x13a>
 8004544:	f7ff ffd4 	bl	80044f0 <HAL_TIM_IC_CaptureCallback>
 8004548:	2300      	movs	r3, #0
 800454a:	7723      	strb	r3, [r4, #28]
 800454c:	6823      	ldr	r3, [r4, #0]
 800454e:	691a      	ldr	r2, [r3, #16]
 8004550:	0711      	lsls	r1, r2, #28
 8004552:	d50f      	bpl.n	8004574 <HAL_TIM_IRQHandler+0x7e>
 8004554:	68da      	ldr	r2, [r3, #12]
 8004556:	0712      	lsls	r2, r2, #28
 8004558:	d50c      	bpl.n	8004574 <HAL_TIM_IRQHandler+0x7e>
 800455a:	f06f 0208 	mvn.w	r2, #8
 800455e:	611a      	str	r2, [r3, #16]
 8004560:	2204      	movs	r2, #4
 8004562:	7722      	strb	r2, [r4, #28]
 8004564:	69db      	ldr	r3, [r3, #28]
 8004566:	079b      	lsls	r3, r3, #30
 8004568:	4620      	mov	r0, r4
 800456a:	d067      	beq.n	800463c <HAL_TIM_IRQHandler+0x146>
 800456c:	f7ff ffc0 	bl	80044f0 <HAL_TIM_IC_CaptureCallback>
 8004570:	2300      	movs	r3, #0
 8004572:	7723      	strb	r3, [r4, #28]
 8004574:	6823      	ldr	r3, [r4, #0]
 8004576:	691a      	ldr	r2, [r3, #16]
 8004578:	06d0      	lsls	r0, r2, #27
 800457a:	d510      	bpl.n	800459e <HAL_TIM_IRQHandler+0xa8>
 800457c:	68da      	ldr	r2, [r3, #12]
 800457e:	06d1      	lsls	r1, r2, #27
 8004580:	d50d      	bpl.n	800459e <HAL_TIM_IRQHandler+0xa8>
 8004582:	f06f 0210 	mvn.w	r2, #16
 8004586:	611a      	str	r2, [r3, #16]
 8004588:	2208      	movs	r2, #8
 800458a:	7722      	strb	r2, [r4, #28]
 800458c:	69db      	ldr	r3, [r3, #28]
 800458e:	f413 7f40 	tst.w	r3, #768	; 0x300
 8004592:	4620      	mov	r0, r4
 8004594:	d058      	beq.n	8004648 <HAL_TIM_IRQHandler+0x152>
 8004596:	f7ff ffab 	bl	80044f0 <HAL_TIM_IC_CaptureCallback>
 800459a:	2300      	movs	r3, #0
 800459c:	7723      	strb	r3, [r4, #28]
 800459e:	6823      	ldr	r3, [r4, #0]
 80045a0:	691a      	ldr	r2, [r3, #16]
 80045a2:	07d2      	lsls	r2, r2, #31
 80045a4:	d508      	bpl.n	80045b8 <HAL_TIM_IRQHandler+0xc2>
 80045a6:	68da      	ldr	r2, [r3, #12]
 80045a8:	07d0      	lsls	r0, r2, #31
 80045aa:	d505      	bpl.n	80045b8 <HAL_TIM_IRQHandler+0xc2>
 80045ac:	f06f 0201 	mvn.w	r2, #1
 80045b0:	611a      	str	r2, [r3, #16]
 80045b2:	4620      	mov	r0, r4
 80045b4:	f7ff ff9a 	bl	80044ec <HAL_TIM_PeriodElapsedCallback>
 80045b8:	6823      	ldr	r3, [r4, #0]
 80045ba:	691a      	ldr	r2, [r3, #16]
 80045bc:	0611      	lsls	r1, r2, #24
 80045be:	d508      	bpl.n	80045d2 <HAL_TIM_IRQHandler+0xdc>
 80045c0:	68da      	ldr	r2, [r3, #12]
 80045c2:	0612      	lsls	r2, r2, #24
 80045c4:	d505      	bpl.n	80045d2 <HAL_TIM_IRQHandler+0xdc>
 80045c6:	f06f 0280 	mvn.w	r2, #128	; 0x80
 80045ca:	611a      	str	r2, [r3, #16]
 80045cc:	4620      	mov	r0, r4
 80045ce:	f000 fb1e 	bl	8004c0e <HAL_TIMEx_BreakCallback>
 80045d2:	6823      	ldr	r3, [r4, #0]
 80045d4:	691a      	ldr	r2, [r3, #16]
 80045d6:	05d0      	lsls	r0, r2, #23
 80045d8:	d508      	bpl.n	80045ec <HAL_TIM_IRQHandler+0xf6>
 80045da:	68da      	ldr	r2, [r3, #12]
 80045dc:	0611      	lsls	r1, r2, #24
 80045de:	d505      	bpl.n	80045ec <HAL_TIM_IRQHandler+0xf6>
 80045e0:	f46f 7280 	mvn.w	r2, #256	; 0x100
 80045e4:	611a      	str	r2, [r3, #16]
 80045e6:	4620      	mov	r0, r4
 80045e8:	f000 fb12 	bl	8004c10 <HAL_TIMEx_Break2Callback>
 80045ec:	6823      	ldr	r3, [r4, #0]
 80045ee:	691a      	ldr	r2, [r3, #16]
 80045f0:	0652      	lsls	r2, r2, #25
 80045f2:	d508      	bpl.n	8004606 <HAL_TIM_IRQHandler+0x110>
 80045f4:	68da      	ldr	r2, [r3, #12]
 80045f6:	0650      	lsls	r0, r2, #25
 80045f8:	d505      	bpl.n	8004606 <HAL_TIM_IRQHandler+0x110>
 80045fa:	f06f 0240 	mvn.w	r2, #64	; 0x40
 80045fe:	611a      	str	r2, [r3, #16]
 8004600:	4620      	mov	r0, r4
 8004602:	f7ff ff77 	bl	80044f4 <HAL_TIM_TriggerCallback>
 8004606:	6823      	ldr	r3, [r4, #0]
 8004608:	691a      	ldr	r2, [r3, #16]
 800460a:	0691      	lsls	r1, r2, #26
 800460c:	d522      	bpl.n	8004654 <HAL_TIM_IRQHandler+0x15e>
 800460e:	68da      	ldr	r2, [r3, #12]
 8004610:	0692      	lsls	r2, r2, #26
 8004612:	d51f      	bpl.n	8004654 <HAL_TIM_IRQHandler+0x15e>
 8004614:	f06f 0220 	mvn.w	r2, #32
 8004618:	4620      	mov	r0, r4
 800461a:	611a      	str	r2, [r3, #16]
 800461c:	e8bd 4010 	ldmia.w	sp!, {r4, lr}
 8004620:	f000 baf4 	b.w	8004c0c <HAL_TIMEx_CommutCallback>
 8004624:	f7ff ff63 	bl	80044ee <HAL_TIM_OC_DelayElapsedCallback>
 8004628:	4620      	mov	r0, r4
 800462a:	f7ff ff62 	bl	80044f2 <HAL_TIM_PWM_PulseFinishedCallback>
 800462e:	e776      	b.n	800451e <HAL_TIM_IRQHandler+0x28>
 8004630:	f7ff ff5d 	bl	80044ee <HAL_TIM_OC_DelayElapsedCallback>
 8004634:	4620      	mov	r0, r4
 8004636:	f7ff ff5c 	bl	80044f2 <HAL_TIM_PWM_PulseFinishedCallback>
 800463a:	e785      	b.n	8004548 <HAL_TIM_IRQHandler+0x52>
 800463c:	f7ff ff57 	bl	80044ee <HAL_TIM_OC_DelayElapsedCallback>
 8004640:	4620      	mov	r0, r4
 8004642:	f7ff ff56 	bl	80044f2 <HAL_TIM_PWM_PulseFinishedCallback>
 8004646:	e793      	b.n	8004570 <HAL_TIM_IRQHandler+0x7a>
 8004648:	f7ff ff51 	bl	80044ee <HAL_TIM_OC_DelayElapsedCallback>
 800464c:	4620      	mov	r0, r4
 800464e:	f7ff ff50 	bl	80044f2 <HAL_TIM_PWM_PulseFinishedCallback>
 8004652:	e7a2      	b.n	800459a <HAL_TIM_IRQHandler+0xa4>
 8004654:	bd10      	pop	{r4, pc}
	...

08004658 <TIM_Base_SetConfig>:
 8004658:	4a1a      	ldr	r2, [pc, #104]	; (80046c4 <TIM_Base_SetConfig+0x6c>)
 800465a:	6803      	ldr	r3, [r0, #0]
 800465c:	4290      	cmp	r0, r2
 800465e:	b510      	push	{r4, lr}
 8004660:	d002      	beq.n	8004668 <TIM_Base_SetConfig+0x10>
 8004662:	f1b0 4f80 	cmp.w	r0, #1073741824	; 0x40000000
 8004666:	d109      	bne.n	800467c <TIM_Base_SetConfig+0x24>
 8004668:	684c      	ldr	r4, [r1, #4]
 800466a:	f023 0370 	bic.w	r3, r3, #112	; 0x70
 800466e:	4290      	cmp	r0, r2
 8004670:	ea43 0304 	orr.w	r3, r3, r4
 8004674:	d009      	beq.n	800468a <TIM_Base_SetConfig+0x32>
 8004676:	f1b0 4f80 	cmp.w	r0, #1073741824	; 0x40000000
 800467a:	d006      	beq.n	800468a <TIM_Base_SetConfig+0x32>
 800467c:	4a12      	ldr	r2, [pc, #72]	; (80046c8 <TIM_Base_SetConfig+0x70>)
 800467e:	4290      	cmp	r0, r2
 8004680:	d003      	beq.n	800468a <TIM_Base_SetConfig+0x32>
 8004682:	f502 6280 	add.w	r2, r2, #1024	; 0x400
 8004686:	4290      	cmp	r0, r2
 8004688:	d103      	bne.n	8004692 <TIM_Base_SetConfig+0x3a>
 800468a:	68ca      	ldr	r2, [r1, #12]
 800468c:	f423 7340 	bic.w	r3, r3, #768	; 0x300
 8004690:	4313      	orrs	r3, r2
 8004692:	694a      	ldr	r2, [r1, #20]
 8004694:	f023 0380 	bic.w	r3, r3, #128	; 0x80
 8004698:	4313      	orrs	r3, r2
 800469a:	6003      	str	r3, [r0, #0]
 800469c:	688b      	ldr	r3, [r1, #8]
 800469e:	62c3      	str	r3, [r0, #44]	; 0x2c
 80046a0:	680b      	ldr	r3, [r1, #0]
 80046a2:	6283      	str	r3, [r0, #40]	; 0x28
 80046a4:	4b07      	ldr	r3, [pc, #28]	; (80046c4 <TIM_Base_SetConfig+0x6c>)
 80046a6:	4298      	cmp	r0, r3
 80046a8:	d007      	beq.n	80046ba <TIM_Base_SetConfig+0x62>
 80046aa:	f503 53a0 	add.w	r3, r3, #5120	; 0x1400
 80046ae:	4298      	cmp	r0, r3
 80046b0:	d003      	beq.n	80046ba <TIM_Base_SetConfig+0x62>
 80046b2:	f503 6380 	add.w	r3, r3, #1024	; 0x400
 80046b6:	4298      	cmp	r0, r3
 80046b8:	d101      	bne.n	80046be <TIM_Base_SetConfig+0x66>
 80046ba:	690b      	ldr	r3, [r1, #16]
 80046bc:	6303      	str	r3, [r0, #48]	; 0x30
 80046be:	2301      	movs	r3, #1
 80046c0:	6143      	str	r3, [r0, #20]
 80046c2:	bd10      	pop	{r4, pc}
 80046c4:	40012c00 	.word	0x40012c00
 80046c8:	40014000 	.word	0x40014000

080046cc <HAL_TIM_Base_Init>:
 80046cc:	b510      	push	{r4, lr}
 80046ce:	4604      	mov	r4, r0
 80046d0:	b350      	cbz	r0, 8004728 <HAL_TIM_Base_Init+0x5c>
 80046d2:	f890 303d 	ldrb.w	r3, [r0, #61]	; 0x3d
 80046d6:	f003 02ff 	and.w	r2, r3, #255	; 0xff
 80046da:	b91b      	cbnz	r3, 80046e4 <HAL_TIM_Base_Init+0x18>
 80046dc:	f880 203c 	strb.w	r2, [r0, #60]	; 0x3c
 80046e0:	f7fc fecc 	bl	800147c <HAL_TIM_Base_MspInit>
 80046e4:	2302      	movs	r3, #2
 80046e6:	6820      	ldr	r0, [r4, #0]
 80046e8:	f884 303d 	strb.w	r3, [r4, #61]	; 0x3d
 80046ec:	1d21      	adds	r1, r4, #4
 80046ee:	f7ff ffb3 	bl	8004658 <TIM_Base_SetConfig>
 80046f2:	2301      	movs	r3, #1
 80046f4:	f884 3048 	strb.w	r3, [r4, #72]	; 0x48
 80046f8:	2000      	movs	r0, #0
 80046fa:	f884 303e 	strb.w	r3, [r4, #62]	; 0x3e
 80046fe:	f884 303f 	strb.w	r3, [r4, #63]	; 0x3f
 8004702:	f884 3040 	strb.w	r3, [r4, #64]	; 0x40
 8004706:	f884 3041 	strb.w	r3, [r4, #65]	; 0x41
 800470a:	f884 3042 	strb.w	r3, [r4, #66]	; 0x42
 800470e:	f884 3043 	strb.w	r3, [r4, #67]	; 0x43
 8004712:	f884 3044 	strb.w	r3, [r4, #68]	; 0x44
 8004716:	f884 3045 	strb.w	r3, [r4, #69]	; 0x45
 800471a:	f884 3046 	strb.w	r3, [r4, #70]	; 0x46
 800471e:	f884 3047 	strb.w	r3, [r4, #71]	; 0x47
 8004722:	f884 303d 	strb.w	r3, [r4, #61]	; 0x3d
 8004726:	bd10      	pop	{r4, pc}
 8004728:	2001      	movs	r0, #1
 800472a:	e7fc      	b.n	8004726 <HAL_TIM_Base_Init+0x5a>

0800472c <HAL_TIM_OC_Init>:
 800472c:	b510      	push	{r4, lr}
 800472e:	4604      	mov	r4, r0
 8004730:	b350      	cbz	r0, 8004788 <HAL_TIM_OC_Init+0x5c>
 8004732:	f890 303d 	ldrb.w	r3, [r0, #61]	; 0x3d
 8004736:	f003 02ff 	and.w	r2, r3, #255	; 0xff
 800473a:	b91b      	cbnz	r3, 8004744 <HAL_TIM_OC_Init+0x18>
 800473c:	f880 203c 	strb.w	r2, [r0, #60]	; 0x3c
 8004740:	f7ff fed2 	bl	80044e8 <HAL_TIM_OC_MspInit>
 8004744:	2302      	movs	r3, #2
 8004746:	6820      	ldr	r0, [r4, #0]
 8004748:	f884 303d 	strb.w	r3, [r4, #61]	; 0x3d
 800474c:	1d21      	adds	r1, r4, #4
 800474e:	f7ff ff83 	bl	8004658 <TIM_Base_SetConfig>
 8004752:	2301      	movs	r3, #1
 8004754:	f884 3048 	strb.w	r3, [r4, #72]	; 0x48
 8004758:	2000      	movs	r0, #0
 800475a:	f884 303e 	strb.w	r3, [r4, #62]	; 0x3e
 800475e:	f884 303f 	strb.w	r3, [r4, #63]	; 0x3f
 8004762:	f884 3040 	strb.w	r3, [r4, #64]	; 0x40
 8004766:	f884 3041 	strb.w	r3, [r4, #65]	; 0x41
 800476a:	f884 3042 	strb.w	r3, [r4, #66]	; 0x42
 800476e:	f884 3043 	strb.w	r3, [r4, #67]	; 0x43
 8004772:	f884 3044 	strb.w	r3, [r4, #68]	; 0x44
 8004776:	f884 3045 	strb.w	r3, [r4, #69]	; 0x45
 800477a:	f884 3046 	strb.w	r3, [r4, #70]	; 0x46
 800477e:	f884 3047 	strb.w	r3, [r4, #71]	; 0x47
 8004782:	f884 303d 	strb.w	r3, [r4, #61]	; 0x3d
 8004786:	bd10      	pop	{r4, pc}
 8004788:	2001      	movs	r0, #1
 800478a:	e7fc      	b.n	8004786 <HAL_TIM_OC_Init+0x5a>

0800478c <HAL_TIM_OnePulse_Init>:
 800478c:	b538      	push	{r3, r4, r5, lr}
 800478e:	460d      	mov	r5, r1
 8004790:	4604      	mov	r4, r0
 8004792:	b330      	cbz	r0, 80047e2 <HAL_TIM_OnePulse_Init+0x56>
 8004794:	f890 303d 	ldrb.w	r3, [r0, #61]	; 0x3d
 8004798:	f003 02ff 	and.w	r2, r3, #255	; 0xff
 800479c:	b91b      	cbnz	r3, 80047a6 <HAL_TIM_OnePulse_Init+0x1a>
 800479e:	f880 203c 	strb.w	r2, [r0, #60]	; 0x3c
 80047a2:	f7ff fea2 	bl	80044ea <HAL_TIM_OnePulse_MspInit>
 80047a6:	2302      	movs	r3, #2
 80047a8:	6820      	ldr	r0, [r4, #0]
 80047aa:	f884 303d 	strb.w	r3, [r4, #61]	; 0x3d
 80047ae:	1d21      	adds	r1, r4, #4
 80047b0:	f7ff ff52 	bl	8004658 <TIM_Base_SetConfig>
 80047b4:	6823      	ldr	r3, [r4, #0]
 80047b6:	681a      	ldr	r2, [r3, #0]
 80047b8:	f022 0208 	bic.w	r2, r2, #8
 80047bc:	601a      	str	r2, [r3, #0]
 80047be:	681a      	ldr	r2, [r3, #0]
 80047c0:	432a      	orrs	r2, r5
 80047c2:	601a      	str	r2, [r3, #0]
 80047c4:	2301      	movs	r3, #1
 80047c6:	f884 3048 	strb.w	r3, [r4, #72]	; 0x48
 80047ca:	2000      	movs	r0, #0
 80047cc:	f884 303e 	strb.w	r3, [r4, #62]	; 0x3e
 80047d0:	f884 303f 	strb.w	r3, [r4, #63]	; 0x3f
 80047d4:	f884 3044 	strb.w	r3, [r4, #68]	; 0x44
 80047d8:	f884 3045 	strb.w	r3, [r4, #69]	; 0x45
 80047dc:	f884 303d 	strb.w	r3, [r4, #61]	; 0x3d
 80047e0:	bd38      	pop	{r3, r4, r5, pc}
 80047e2:	2001      	movs	r0, #1
 80047e4:	e7fc      	b.n	80047e0 <HAL_TIM_OnePulse_Init+0x54>
	...

080047e8 <TIM_OC2_SetConfig>:
 80047e8:	6a03      	ldr	r3, [r0, #32]
 80047ea:	f023 0310 	bic.w	r3, r3, #16
 80047ee:	6203      	str	r3, [r0, #32]
 80047f0:	6a03      	ldr	r3, [r0, #32]
 80047f2:	6842      	ldr	r2, [r0, #4]
 80047f4:	b570      	push	{r4, r5, r6, lr}
 80047f6:	6984      	ldr	r4, [r0, #24]
 80047f8:	680d      	ldr	r5, [r1, #0]
 80047fa:	f024 7480 	bic.w	r4, r4, #16777216	; 0x1000000
 80047fe:	f424 44e6 	bic.w	r4, r4, #29440	; 0x7300
 8004802:	ea44 2405 	orr.w	r4, r4, r5, lsl #8
 8004806:	688d      	ldr	r5, [r1, #8]
 8004808:	f023 0320 	bic.w	r3, r3, #32
 800480c:	ea43 1305 	orr.w	r3, r3, r5, lsl #4
 8004810:	4d0e      	ldr	r5, [pc, #56]	; (800484c <TIM_OC2_SetConfig+0x64>)
 8004812:	42a8      	cmp	r0, r5
 8004814:	d10e      	bne.n	8004834 <TIM_OC2_SetConfig+0x4c>
 8004816:	68cd      	ldr	r5, [r1, #12]
 8004818:	f023 0380 	bic.w	r3, r3, #128	; 0x80
 800481c:	ea43 1305 	orr.w	r3, r3, r5, lsl #4
 8004820:	f023 0340 	bic.w	r3, r3, #64	; 0x40
 8004824:	e9d1 5605 	ldrd	r5, r6, [r1, #20]
 8004828:	f422 6240 	bic.w	r2, r2, #3072	; 0xc00
 800482c:	4335      	orrs	r5, r6
 800482e:	ea42 0285 	orr.w	r2, r2, r5, lsl #2
 8004832:	e005      	b.n	8004840 <TIM_OC2_SetConfig+0x58>
 8004834:	4d06      	ldr	r5, [pc, #24]	; (8004850 <TIM_OC2_SetConfig+0x68>)
 8004836:	42a8      	cmp	r0, r5
 8004838:	d0f4      	beq.n	8004824 <TIM_OC2_SetConfig+0x3c>
 800483a:	4d06      	ldr	r5, [pc, #24]	; (8004854 <TIM_OC2_SetConfig+0x6c>)
 800483c:	42a8      	cmp	r0, r5
 800483e:	d0f1      	beq.n	8004824 <TIM_OC2_SetConfig+0x3c>
 8004840:	6042      	str	r2, [r0, #4]
 8004842:	684a      	ldr	r2, [r1, #4]
 8004844:	6184      	str	r4, [r0, #24]
 8004846:	6382      	str	r2, [r0, #56]	; 0x38
 8004848:	6203      	str	r3, [r0, #32]
 800484a:	bd70      	pop	{r4, r5, r6, pc}
 800484c:	40012c00 	.word	0x40012c00
 8004850:	40014000 	.word	0x40014000
 8004854:	40014400 	.word	0x40014400

08004858 <HAL_TIM_OC_ConfigChannel>:
 8004858:	b538      	push	{r3, r4, r5, lr}
 800485a:	f890 303c 	ldrb.w	r3, [r0, #60]	; 0x3c
 800485e:	2b01      	cmp	r3, #1
 8004860:	4605      	mov	r5, r0
 8004862:	d02b      	beq.n	80048bc <HAL_TIM_OC_ConfigChannel+0x64>
 8004864:	2001      	movs	r0, #1
 8004866:	2a0c      	cmp	r2, #12
 8004868:	f885 003c 	strb.w	r0, [r5, #60]	; 0x3c
 800486c:	d01e      	beq.n	80048ac <HAL_TIM_OC_ConfigChannel+0x54>
 800486e:	d808      	bhi.n	8004882 <HAL_TIM_OC_ConfigChannel+0x2a>
 8004870:	2a04      	cmp	r2, #4
 8004872:	d013      	beq.n	800489c <HAL_TIM_OC_ConfigChannel+0x44>
 8004874:	2a08      	cmp	r2, #8
 8004876:	d015      	beq.n	80048a4 <HAL_TIM_OC_ConfigChannel+0x4c>
 8004878:	b15a      	cbz	r2, 8004892 <HAL_TIM_OC_ConfigChannel+0x3a>
 800487a:	2300      	movs	r3, #0
 800487c:	f885 303c 	strb.w	r3, [r5, #60]	; 0x3c
 8004880:	bd38      	pop	{r3, r4, r5, pc}
 8004882:	2a10      	cmp	r2, #16
 8004884:	d016      	beq.n	80048b4 <HAL_TIM_OC_ConfigChannel+0x5c>
 8004886:	2a14      	cmp	r2, #20
 8004888:	d1f7      	bne.n	800487a <HAL_TIM_OC_ConfigChannel+0x22>
 800488a:	6828      	ldr	r0, [r5, #0]
 800488c:	f7ff fdbe 	bl	800440c <TIM_OC6_SetConfig>
 8004890:	e002      	b.n	8004898 <HAL_TIM_OC_ConfigChannel+0x40>
 8004892:	6828      	ldr	r0, [r5, #0]
 8004894:	f7ff fcee 	bl	8004274 <TIM_OC1_SetConfig>
 8004898:	2000      	movs	r0, #0
 800489a:	e7ee      	b.n	800487a <HAL_TIM_OC_ConfigChannel+0x22>
 800489c:	6828      	ldr	r0, [r5, #0]
 800489e:	f7ff ffa3 	bl	80047e8 <TIM_OC2_SetConfig>
 80048a2:	e7f9      	b.n	8004898 <HAL_TIM_OC_ConfigChannel+0x40>
 80048a4:	6828      	ldr	r0, [r5, #0]
 80048a6:	f7ff fd21 	bl	80042ec <TIM_OC3_SetConfig>
 80048aa:	e7f5      	b.n	8004898 <HAL_TIM_OC_ConfigChannel+0x40>
 80048ac:	6828      	ldr	r0, [r5, #0]
 80048ae:	f7ff fd55 	bl	800435c <TIM_OC4_SetConfig>
 80048b2:	e7f1      	b.n	8004898 <HAL_TIM_OC_ConfigChannel+0x40>
 80048b4:	6828      	ldr	r0, [r5, #0]
 80048b6:	f7ff fd7d 	bl	80043b4 <TIM_OC5_SetConfig>
 80048ba:	e7ed      	b.n	8004898 <HAL_TIM_OC_ConfigChannel+0x40>
 80048bc:	2002      	movs	r0, #2
 80048be:	e7df      	b.n	8004880 <HAL_TIM_OC_ConfigChannel+0x28>

080048c0 <TIM_ETR_SetConfig>:
 80048c0:	b510      	push	{r4, lr}
 80048c2:	6884      	ldr	r4, [r0, #8]
 80048c4:	4311      	orrs	r1, r2
 80048c6:	f424 447f 	bic.w	r4, r4, #65280	; 0xff00
 80048ca:	ea41 2303 	orr.w	r3, r1, r3, lsl #8
 80048ce:	4323      	orrs	r3, r4
 80048d0:	6083      	str	r3, [r0, #8]
 80048d2:	bd10      	pop	{r4, pc}

080048d4 <HAL_TIM_ConfigClockSource>:
 80048d4:	b570      	push	{r4, r5, r6, lr}
 80048d6:	f890 303c 	ldrb.w	r3, [r0, #60]	; 0x3c
 80048da:	2b01      	cmp	r3, #1
 80048dc:	4604      	mov	r4, r0
 80048de:	f04f 0302 	mov.w	r3, #2
 80048e2:	f000 808f 	beq.w	8004a04 <HAL_TIM_ConfigClockSource+0x130>
 80048e6:	2201      	movs	r2, #1
 80048e8:	f880 303d 	strb.w	r3, [r0, #61]	; 0x3d
 80048ec:	f880 203c 	strb.w	r2, [r0, #60]	; 0x3c
 80048f0:	6800      	ldr	r0, [r0, #0]
 80048f2:	4b45      	ldr	r3, [pc, #276]	; (8004a08 <HAL_TIM_ConfigClockSource+0x134>)
 80048f4:	6885      	ldr	r5, [r0, #8]
 80048f6:	402b      	ands	r3, r5
 80048f8:	6083      	str	r3, [r0, #8]
 80048fa:	680b      	ldr	r3, [r1, #0]
 80048fc:	2b60      	cmp	r3, #96	; 0x60
 80048fe:	d052      	beq.n	80049a6 <HAL_TIM_ConfigClockSource+0xd2>
 8004900:	d833      	bhi.n	800496a <HAL_TIM_ConfigClockSource+0x96>
 8004902:	2b40      	cmp	r3, #64	; 0x40
 8004904:	d067      	beq.n	80049d6 <HAL_TIM_ConfigClockSource+0x102>
 8004906:	d816      	bhi.n	8004936 <HAL_TIM_ConfigClockSource+0x62>
 8004908:	2b20      	cmp	r3, #32
 800490a:	d00d      	beq.n	8004928 <HAL_TIM_ConfigClockSource+0x54>
 800490c:	d80a      	bhi.n	8004924 <HAL_TIM_ConfigClockSource+0x50>
 800490e:	f033 0110 	bics.w	r1, r3, #16
 8004912:	d009      	beq.n	8004928 <HAL_TIM_ConfigClockSource+0x54>
 8004914:	2301      	movs	r3, #1
 8004916:	f884 303d 	strb.w	r3, [r4, #61]	; 0x3d
 800491a:	2300      	movs	r3, #0
 800491c:	f884 303c 	strb.w	r3, [r4, #60]	; 0x3c
 8004920:	4610      	mov	r0, r2
 8004922:	bd70      	pop	{r4, r5, r6, pc}
 8004924:	2b30      	cmp	r3, #48	; 0x30
 8004926:	d1f5      	bne.n	8004914 <HAL_TIM_ConfigClockSource+0x40>
 8004928:	6882      	ldr	r2, [r0, #8]
 800492a:	f022 0270 	bic.w	r2, r2, #112	; 0x70
 800492e:	4313      	orrs	r3, r2
 8004930:	f043 0307 	orr.w	r3, r3, #7
 8004934:	e017      	b.n	8004966 <HAL_TIM_ConfigClockSource+0x92>
 8004936:	2b50      	cmp	r3, #80	; 0x50
 8004938:	d1ec      	bne.n	8004914 <HAL_TIM_ConfigClockSource+0x40>
 800493a:	684a      	ldr	r2, [r1, #4]
 800493c:	68ce      	ldr	r6, [r1, #12]
 800493e:	6a01      	ldr	r1, [r0, #32]
 8004940:	6a05      	ldr	r5, [r0, #32]
 8004942:	f025 0501 	bic.w	r5, r5, #1
 8004946:	6205      	str	r5, [r0, #32]
 8004948:	6983      	ldr	r3, [r0, #24]
 800494a:	f021 010a 	bic.w	r1, r1, #10
 800494e:	f023 03f0 	bic.w	r3, r3, #240	; 0xf0
 8004952:	ea43 1306 	orr.w	r3, r3, r6, lsl #4
 8004956:	430a      	orrs	r2, r1
 8004958:	6183      	str	r3, [r0, #24]
 800495a:	6202      	str	r2, [r0, #32]
 800495c:	6883      	ldr	r3, [r0, #8]
 800495e:	f023 0370 	bic.w	r3, r3, #112	; 0x70
 8004962:	f043 0357 	orr.w	r3, r3, #87	; 0x57
 8004966:	6083      	str	r3, [r0, #8]
 8004968:	e011      	b.n	800498e <HAL_TIM_ConfigClockSource+0xba>
 800496a:	f5b3 5f80 	cmp.w	r3, #4096	; 0x1000
 800496e:	d00e      	beq.n	800498e <HAL_TIM_ConfigClockSource+0xba>
 8004970:	f5b3 5f00 	cmp.w	r3, #8192	; 0x2000
 8004974:	d00d      	beq.n	8004992 <HAL_TIM_ConfigClockSource+0xbe>
 8004976:	2b70      	cmp	r3, #112	; 0x70
 8004978:	d1cc      	bne.n	8004914 <HAL_TIM_ConfigClockSource+0x40>
 800497a:	68cb      	ldr	r3, [r1, #12]
 800497c:	e9d1 2101 	ldrd	r2, r1, [r1, #4]
 8004980:	f7ff ff9e 	bl	80048c0 <TIM_ETR_SetConfig>
 8004984:	6822      	ldr	r2, [r4, #0]
 8004986:	6893      	ldr	r3, [r2, #8]
 8004988:	f043 0377 	orr.w	r3, r3, #119	; 0x77
 800498c:	6093      	str	r3, [r2, #8]
 800498e:	2200      	movs	r2, #0
 8004990:	e7c0      	b.n	8004914 <HAL_TIM_ConfigClockSource+0x40>
 8004992:	68cb      	ldr	r3, [r1, #12]
 8004994:	e9d1 2101 	ldrd	r2, r1, [r1, #4]
 8004998:	f7ff ff92 	bl	80048c0 <TIM_ETR_SetConfig>
 800499c:	6822      	ldr	r2, [r4, #0]
 800499e:	6893      	ldr	r3, [r2, #8]
 80049a0:	f443 4380 	orr.w	r3, r3, #16384	; 0x4000
 80049a4:	e7f2      	b.n	800498c <HAL_TIM_ConfigClockSource+0xb8>
 80049a6:	684d      	ldr	r5, [r1, #4]
 80049a8:	68ce      	ldr	r6, [r1, #12]
 80049aa:	6a01      	ldr	r1, [r0, #32]
 80049ac:	f021 0110 	bic.w	r1, r1, #16
 80049b0:	6201      	str	r1, [r0, #32]
 80049b2:	6982      	ldr	r2, [r0, #24]
 80049b4:	6a03      	ldr	r3, [r0, #32]
 80049b6:	f422 4270 	bic.w	r2, r2, #61440	; 0xf000
 80049ba:	f023 03a0 	bic.w	r3, r3, #160	; 0xa0
 80049be:	ea43 1305 	orr.w	r3, r3, r5, lsl #4
 80049c2:	ea42 3206 	orr.w	r2, r2, r6, lsl #12
 80049c6:	6182      	str	r2, [r0, #24]
 80049c8:	6203      	str	r3, [r0, #32]
 80049ca:	6883      	ldr	r3, [r0, #8]
 80049cc:	f023 0370 	bic.w	r3, r3, #112	; 0x70
 80049d0:	f043 0367 	orr.w	r3, r3, #103	; 0x67
 80049d4:	e7c7      	b.n	8004966 <HAL_TIM_ConfigClockSource+0x92>
 80049d6:	684a      	ldr	r2, [r1, #4]
 80049d8:	68ce      	ldr	r6, [r1, #12]
 80049da:	6a01      	ldr	r1, [r0, #32]
 80049dc:	6a05      	ldr	r5, [r0, #32]
 80049de:	f025 0501 	bic.w	r5, r5, #1
 80049e2:	6205      	str	r5, [r0, #32]
 80049e4:	6983      	ldr	r3, [r0, #24]
 80049e6:	f021 010a 	bic.w	r1, r1, #10
 80049ea:	f023 03f0 	bic.w	r3, r3, #240	; 0xf0
 80049ee:	ea43 1306 	orr.w	r3, r3, r6, lsl #4
 80049f2:	430a      	orrs	r2, r1
 80049f4:	6183      	str	r3, [r0, #24]
 80049f6:	6202      	str	r2, [r0, #32]
 80049f8:	6883      	ldr	r3, [r0, #8]
 80049fa:	f023 0370 	bic.w	r3, r3, #112	; 0x70
 80049fe:	f043 0347 	orr.w	r3, r3, #71	; 0x47
 8004a02:	e7b0      	b.n	8004966 <HAL_TIM_ConfigClockSource+0x92>
 8004a04:	461a      	mov	r2, r3
 8004a06:	e78b      	b.n	8004920 <HAL_TIM_ConfigClockSource+0x4c>
 8004a08:	fffe0088 	.word	0xfffe0088

08004a0c <TIM_CCxChannelCmd>:
 8004a0c:	6a03      	ldr	r3, [r0, #32]
 8004a0e:	f001 011f 	and.w	r1, r1, #31
 8004a12:	b510      	push	{r4, lr}
 8004a14:	2401      	movs	r4, #1
 8004a16:	408c      	lsls	r4, r1
 8004a18:	ea23 0304 	bic.w	r3, r3, r4
 8004a1c:	6203      	str	r3, [r0, #32]
 8004a1e:	6a03      	ldr	r3, [r0, #32]
 8004a20:	408a      	lsls	r2, r1
 8004a22:	431a      	orrs	r2, r3
 8004a24:	6202      	str	r2, [r0, #32]
 8004a26:	bd10      	pop	{r4, pc}

08004a28 <HAL_TIM_OC_Start>:
 8004a28:	b510      	push	{r4, lr}
 8004a2a:	4604      	mov	r4, r0
 8004a2c:	b929      	cbnz	r1, 8004a3a <HAL_TIM_OC_Start+0x12>
 8004a2e:	f890 303e 	ldrb.w	r3, [r0, #62]	; 0x3e
 8004a32:	2b01      	cmp	r3, #1
 8004a34:	d027      	beq.n	8004a86 <HAL_TIM_OC_Start+0x5e>
 8004a36:	2001      	movs	r0, #1
 8004a38:	e043      	b.n	8004ac2 <HAL_TIM_OC_Start+0x9a>
 8004a3a:	2904      	cmp	r1, #4
 8004a3c:	d107      	bne.n	8004a4e <HAL_TIM_OC_Start+0x26>
 8004a3e:	f890 303f 	ldrb.w	r3, [r0, #63]	; 0x3f
 8004a42:	2b01      	cmp	r3, #1
 8004a44:	d1f7      	bne.n	8004a36 <HAL_TIM_OC_Start+0xe>
 8004a46:	2302      	movs	r3, #2
 8004a48:	f880 303f 	strb.w	r3, [r0, #63]	; 0x3f
 8004a4c:	e01e      	b.n	8004a8c <HAL_TIM_OC_Start+0x64>
 8004a4e:	2908      	cmp	r1, #8
 8004a50:	d10d      	bne.n	8004a6e <HAL_TIM_OC_Start+0x46>
 8004a52:	f890 3040 	ldrb.w	r3, [r0, #64]	; 0x40
 8004a56:	3b01      	subs	r3, #1
 8004a58:	bf18      	it	ne
 8004a5a:	2301      	movne	r3, #1
 8004a5c:	2b00      	cmp	r3, #0
 8004a5e:	d1ea      	bne.n	8004a36 <HAL_TIM_OC_Start+0xe>
 8004a60:	2908      	cmp	r1, #8
 8004a62:	f04f 0302 	mov.w	r3, #2
 8004a66:	d12d      	bne.n	8004ac4 <HAL_TIM_OC_Start+0x9c>
 8004a68:	f884 3040 	strb.w	r3, [r4, #64]	; 0x40
 8004a6c:	e00e      	b.n	8004a8c <HAL_TIM_OC_Start+0x64>
 8004a6e:	290c      	cmp	r1, #12
 8004a70:	d102      	bne.n	8004a78 <HAL_TIM_OC_Start+0x50>
 8004a72:	f890 3041 	ldrb.w	r3, [r0, #65]	; 0x41
 8004a76:	e7ee      	b.n	8004a56 <HAL_TIM_OC_Start+0x2e>
 8004a78:	2910      	cmp	r1, #16
 8004a7a:	bf0c      	ite	eq
 8004a7c:	f890 3042 	ldrbeq.w	r3, [r0, #66]	; 0x42
 8004a80:	f890 3043 	ldrbne.w	r3, [r0, #67]	; 0x43
 8004a84:	e7e7      	b.n	8004a56 <HAL_TIM_OC_Start+0x2e>
 8004a86:	2302      	movs	r3, #2
 8004a88:	f880 303e 	strb.w	r3, [r0, #62]	; 0x3e
 8004a8c:	6820      	ldr	r0, [r4, #0]
 8004a8e:	2201      	movs	r2, #1
 8004a90:	f7ff ffbc 	bl	8004a0c <TIM_CCxChannelCmd>
 8004a94:	6823      	ldr	r3, [r4, #0]
 8004a96:	491a      	ldr	r1, [pc, #104]	; (8004b00 <HAL_TIM_OC_Start+0xd8>)
 8004a98:	428b      	cmp	r3, r1
 8004a9a:	d006      	beq.n	8004aaa <HAL_TIM_OC_Start+0x82>
 8004a9c:	4a19      	ldr	r2, [pc, #100]	; (8004b04 <HAL_TIM_OC_Start+0xdc>)
 8004a9e:	4293      	cmp	r3, r2
 8004aa0:	d003      	beq.n	8004aaa <HAL_TIM_OC_Start+0x82>
 8004aa2:	f502 6280 	add.w	r2, r2, #1024	; 0x400
 8004aa6:	4293      	cmp	r3, r2
 8004aa8:	d127      	bne.n	8004afa <HAL_TIM_OC_Start+0xd2>
 8004aaa:	6c5a      	ldr	r2, [r3, #68]	; 0x44
 8004aac:	428b      	cmp	r3, r1
 8004aae:	f442 4200 	orr.w	r2, r2, #32768	; 0x8000
 8004ab2:	645a      	str	r2, [r3, #68]	; 0x44
 8004ab4:	d112      	bne.n	8004adc <HAL_TIM_OC_Start+0xb4>
 8004ab6:	6899      	ldr	r1, [r3, #8]
 8004ab8:	4a13      	ldr	r2, [pc, #76]	; (8004b08 <HAL_TIM_OC_Start+0xe0>)
 8004aba:	400a      	ands	r2, r1
 8004abc:	2a06      	cmp	r2, #6
 8004abe:	d114      	bne.n	8004aea <HAL_TIM_OC_Start+0xc2>
 8004ac0:	2000      	movs	r0, #0
 8004ac2:	bd10      	pop	{r4, pc}
 8004ac4:	290c      	cmp	r1, #12
 8004ac6:	d102      	bne.n	8004ace <HAL_TIM_OC_Start+0xa6>
 8004ac8:	f884 3041 	strb.w	r3, [r4, #65]	; 0x41
 8004acc:	e7de      	b.n	8004a8c <HAL_TIM_OC_Start+0x64>
 8004ace:	2910      	cmp	r1, #16
 8004ad0:	bf0c      	ite	eq
 8004ad2:	f884 3042 	strbeq.w	r3, [r4, #66]	; 0x42
 8004ad6:	f884 3043 	strbne.w	r3, [r4, #67]	; 0x43
 8004ada:	e7d7      	b.n	8004a8c <HAL_TIM_OC_Start+0x64>
 8004adc:	f1b3 4f80 	cmp.w	r3, #1073741824	; 0x40000000
 8004ae0:	d0e9      	beq.n	8004ab6 <HAL_TIM_OC_Start+0x8e>
 8004ae2:	4a08      	ldr	r2, [pc, #32]	; (8004b04 <HAL_TIM_OC_Start+0xdc>)
 8004ae4:	4293      	cmp	r3, r2
 8004ae6:	d103      	bne.n	8004af0 <HAL_TIM_OC_Start+0xc8>
 8004ae8:	e7e5      	b.n	8004ab6 <HAL_TIM_OC_Start+0x8e>
 8004aea:	f5b2 3f80 	cmp.w	r2, #65536	; 0x10000
 8004aee:	d0e7      	beq.n	8004ac0 <HAL_TIM_OC_Start+0x98>
 8004af0:	681a      	ldr	r2, [r3, #0]
 8004af2:	f042 0201 	orr.w	r2, r2, #1
 8004af6:	601a      	str	r2, [r3, #0]
 8004af8:	e7e2      	b.n	8004ac0 <HAL_TIM_OC_Start+0x98>
 8004afa:	f1b3 4f80 	cmp.w	r3, #1073741824	; 0x40000000
 8004afe:	e7f2      	b.n	8004ae6 <HAL_TIM_OC_Start+0xbe>
 8004b00:	40012c00 	.word	0x40012c00
 8004b04:	40014000 	.word	0x40014000
 8004b08:	00010007 	.word	0x00010007

08004b0c <HAL_TIM_OC_Stop>:
 8004b0c:	b538      	push	{r3, r4, r5, lr}
 8004b0e:	4604      	mov	r4, r0
 8004b10:	2200      	movs	r2, #0
 8004b12:	6800      	ldr	r0, [r0, #0]
 8004b14:	460d      	mov	r5, r1
 8004b16:	f7ff ff79 	bl	8004a0c <TIM_CCxChannelCmd>
 8004b1a:	6823      	ldr	r3, [r4, #0]
 8004b1c:	4a21      	ldr	r2, [pc, #132]	; (8004ba4 <HAL_TIM_OC_Stop+0x98>)
 8004b1e:	4293      	cmp	r3, r2
 8004b20:	d007      	beq.n	8004b32 <HAL_TIM_OC_Stop+0x26>
 8004b22:	f502 52a0 	add.w	r2, r2, #5120	; 0x1400
 8004b26:	4293      	cmp	r3, r2
 8004b28:	d003      	beq.n	8004b32 <HAL_TIM_OC_Stop+0x26>
 8004b2a:	f502 6280 	add.w	r2, r2, #1024	; 0x400
 8004b2e:	4293      	cmp	r3, r2
 8004b30:	d10d      	bne.n	8004b4e <HAL_TIM_OC_Stop+0x42>
 8004b32:	6a19      	ldr	r1, [r3, #32]
 8004b34:	f241 1211 	movw	r2, #4369	; 0x1111
 8004b38:	4211      	tst	r1, r2
 8004b3a:	d108      	bne.n	8004b4e <HAL_TIM_OC_Stop+0x42>
 8004b3c:	6a19      	ldr	r1, [r3, #32]
 8004b3e:	f240 4244 	movw	r2, #1092	; 0x444
 8004b42:	4211      	tst	r1, r2
 8004b44:	bf02      	ittt	eq
 8004b46:	6c5a      	ldreq	r2, [r3, #68]	; 0x44
 8004b48:	f422 4200 	biceq.w	r2, r2, #32768	; 0x8000
 8004b4c:	645a      	streq	r2, [r3, #68]	; 0x44
 8004b4e:	6a19      	ldr	r1, [r3, #32]
 8004b50:	f241 1211 	movw	r2, #4369	; 0x1111
 8004b54:	4211      	tst	r1, r2
 8004b56:	d108      	bne.n	8004b6a <HAL_TIM_OC_Stop+0x5e>
 8004b58:	6a19      	ldr	r1, [r3, #32]
 8004b5a:	f240 4244 	movw	r2, #1092	; 0x444
 8004b5e:	4211      	tst	r1, r2
 8004b60:	bf02      	ittt	eq
 8004b62:	681a      	ldreq	r2, [r3, #0]
 8004b64:	f022 0201 	biceq.w	r2, r2, #1
 8004b68:	601a      	streq	r2, [r3, #0]
 8004b6a:	2301      	movs	r3, #1
 8004b6c:	b91d      	cbnz	r5, 8004b76 <HAL_TIM_OC_Stop+0x6a>
 8004b6e:	f884 303e 	strb.w	r3, [r4, #62]	; 0x3e
 8004b72:	2000      	movs	r0, #0
 8004b74:	bd38      	pop	{r3, r4, r5, pc}
 8004b76:	2d04      	cmp	r5, #4
 8004b78:	d102      	bne.n	8004b80 <HAL_TIM_OC_Stop+0x74>
 8004b7a:	f884 303f 	strb.w	r3, [r4, #63]	; 0x3f
 8004b7e:	e7f8      	b.n	8004b72 <HAL_TIM_OC_Stop+0x66>
 8004b80:	2d08      	cmp	r5, #8
 8004b82:	d102      	bne.n	8004b8a <HAL_TIM_OC_Stop+0x7e>
 8004b84:	f884 3040 	strb.w	r3, [r4, #64]	; 0x40
 8004b88:	e7f3      	b.n	8004b72 <HAL_TIM_OC_Stop+0x66>
 8004b8a:	2d0c      	cmp	r5, #12
 8004b8c:	d102      	bne.n	8004b94 <HAL_TIM_OC_Stop+0x88>
 8004b8e:	f884 3041 	strb.w	r3, [r4, #65]	; 0x41
 8004b92:	e7ee      	b.n	8004b72 <HAL_TIM_OC_Stop+0x66>
 8004b94:	2d10      	cmp	r5, #16
 8004b96:	bf0c      	ite	eq
 8004b98:	f884 3042 	strbeq.w	r3, [r4, #66]	; 0x42
 8004b9c:	f884 3043 	strbne.w	r3, [r4, #67]	; 0x43
 8004ba0:	e7e7      	b.n	8004b72 <HAL_TIM_OC_Stop+0x66>
 8004ba2:	bf00      	nop
 8004ba4:	40012c00 	.word	0x40012c00

08004ba8 <HAL_TIMEx_MasterConfigSynchronization>:
 8004ba8:	b570      	push	{r4, r5, r6, lr}
 8004baa:	f890 303c 	ldrb.w	r3, [r0, #60]	; 0x3c
 8004bae:	2b01      	cmp	r3, #1
 8004bb0:	f04f 0302 	mov.w	r3, #2
 8004bb4:	d023      	beq.n	8004bfe <HAL_TIMEx_MasterConfigSynchronization+0x56>
 8004bb6:	6802      	ldr	r2, [r0, #0]
 8004bb8:	4d12      	ldr	r5, [pc, #72]	; (8004c04 <HAL_TIMEx_MasterConfigSynchronization+0x5c>)
 8004bba:	f880 303d 	strb.w	r3, [r0, #61]	; 0x3d
 8004bbe:	6853      	ldr	r3, [r2, #4]
 8004bc0:	6894      	ldr	r4, [r2, #8]
 8004bc2:	42aa      	cmp	r2, r5
 8004bc4:	bf02      	ittt	eq
 8004bc6:	684e      	ldreq	r6, [r1, #4]
 8004bc8:	f423 0370 	biceq.w	r3, r3, #15728640	; 0xf00000
 8004bcc:	4333      	orreq	r3, r6
 8004bce:	680e      	ldr	r6, [r1, #0]
 8004bd0:	f023 0370 	bic.w	r3, r3, #112	; 0x70
 8004bd4:	4333      	orrs	r3, r6
 8004bd6:	42aa      	cmp	r2, r5
 8004bd8:	6053      	str	r3, [r2, #4]
 8004bda:	d005      	beq.n	8004be8 <HAL_TIMEx_MasterConfigSynchronization+0x40>
 8004bdc:	f1b2 4f80 	cmp.w	r2, #1073741824	; 0x40000000
 8004be0:	d002      	beq.n	8004be8 <HAL_TIMEx_MasterConfigSynchronization+0x40>
 8004be2:	4b09      	ldr	r3, [pc, #36]	; (8004c08 <HAL_TIMEx_MasterConfigSynchronization+0x60>)
 8004be4:	429a      	cmp	r2, r3
 8004be6:	d104      	bne.n	8004bf2 <HAL_TIMEx_MasterConfigSynchronization+0x4a>
 8004be8:	6889      	ldr	r1, [r1, #8]
 8004bea:	f024 0380 	bic.w	r3, r4, #128	; 0x80
 8004bee:	430b      	orrs	r3, r1
 8004bf0:	6093      	str	r3, [r2, #8]
 8004bf2:	2301      	movs	r3, #1
 8004bf4:	f880 303d 	strb.w	r3, [r0, #61]	; 0x3d
 8004bf8:	2300      	movs	r3, #0
 8004bfa:	f880 303c 	strb.w	r3, [r0, #60]	; 0x3c
 8004bfe:	4618      	mov	r0, r3
 8004c00:	bd70      	pop	{r4, r5, r6, pc}
 8004c02:	bf00      	nop
 8004c04:	40012c00 	.word	0x40012c00
 8004c08:	40014000 	.word	0x40014000

08004c0c <HAL_TIMEx_CommutCallback>:
 8004c0c:	4770      	bx	lr

08004c0e <HAL_TIMEx_BreakCallback>:
 8004c0e:	4770      	bx	lr

08004c10 <HAL_TIMEx_Break2Callback>:
 8004c10:	4770      	bx	lr

08004c12 <UART_EndRxTransfer>:
 8004c12:	6802      	ldr	r2, [r0, #0]
 8004c14:	e852 3f00 	ldrex	r3, [r2]
 8004c18:	f423 7390 	bic.w	r3, r3, #288	; 0x120
 8004c1c:	e842 3100 	strex	r1, r3, [r2]
 8004c20:	6802      	ldr	r2, [r0, #0]
 8004c22:	2900      	cmp	r1, #0
 8004c24:	d1f5      	bne.n	8004c12 <UART_EndRxTransfer>
 8004c26:	f102 0308 	add.w	r3, r2, #8
 8004c2a:	e853 3f00 	ldrex	r3, [r3]
 8004c2e:	f023 0301 	bic.w	r3, r3, #1
 8004c32:	f102 0c08 	add.w	ip, r2, #8
 8004c36:	e84c 3100 	strex	r1, r3, [ip]
 8004c3a:	2900      	cmp	r1, #0
 8004c3c:	d1f3      	bne.n	8004c26 <UART_EndRxTransfer+0x14>
 8004c3e:	6e03      	ldr	r3, [r0, #96]	; 0x60
 8004c40:	2b01      	cmp	r3, #1
 8004c42:	d107      	bne.n	8004c54 <UART_EndRxTransfer+0x42>
 8004c44:	e852 3f00 	ldrex	r3, [r2]
 8004c48:	f023 0310 	bic.w	r3, r3, #16
 8004c4c:	e842 3100 	strex	r1, r3, [r2]
 8004c50:	2900      	cmp	r1, #0
 8004c52:	d1f7      	bne.n	8004c44 <UART_EndRxTransfer+0x32>
 8004c54:	2320      	movs	r3, #32
 8004c56:	67c3      	str	r3, [r0, #124]	; 0x7c
 8004c58:	2300      	movs	r3, #0
 8004c5a:	6603      	str	r3, [r0, #96]	; 0x60
 8004c5c:	6643      	str	r3, [r0, #100]	; 0x64
 8004c5e:	4770      	bx	lr

08004c60 <HAL_UART_DeInit>:
 8004c60:	b538      	push	{r3, r4, r5, lr}
 8004c62:	4605      	mov	r5, r0
 8004c64:	b1a8      	cbz	r0, 8004c92 <HAL_UART_DeInit+0x32>
 8004c66:	2324      	movs	r3, #36	; 0x24
 8004c68:	6783      	str	r3, [r0, #120]	; 0x78
 8004c6a:	6803      	ldr	r3, [r0, #0]
 8004c6c:	681a      	ldr	r2, [r3, #0]
 8004c6e:	2400      	movs	r4, #0
 8004c70:	f022 0201 	bic.w	r2, r2, #1
 8004c74:	601a      	str	r2, [r3, #0]
 8004c76:	601c      	str	r4, [r3, #0]
 8004c78:	605c      	str	r4, [r3, #4]
 8004c7a:	609c      	str	r4, [r3, #8]
 8004c7c:	f7fc fcda 	bl	8001634 <HAL_UART_MspDeInit>
 8004c80:	f8c5 4080 	str.w	r4, [r5, #128]	; 0x80
 8004c84:	f885 4074 	strb.w	r4, [r5, #116]	; 0x74
 8004c88:	67ac      	str	r4, [r5, #120]	; 0x78
 8004c8a:	4620      	mov	r0, r4
 8004c8c:	67ec      	str	r4, [r5, #124]	; 0x7c
 8004c8e:	662c      	str	r4, [r5, #96]	; 0x60
 8004c90:	bd38      	pop	{r3, r4, r5, pc}
 8004c92:	2001      	movs	r0, #1
 8004c94:	e7fc      	b.n	8004c90 <HAL_UART_DeInit+0x30>

08004c96 <HAL_UART_RxCpltCallback>:
 8004c96:	4770      	bx	lr

08004c98 <HAL_UART_RxHalfCpltCallback>:
 8004c98:	4770      	bx	lr

08004c9a <HAL_UART_ErrorCallback>:
 8004c9a:	4770      	bx	lr

08004c9c <UART_DMAError>:
 8004c9c:	6a80      	ldr	r0, [r0, #40]	; 0x28
 8004c9e:	6803      	ldr	r3, [r0, #0]
 8004ca0:	6f82      	ldr	r2, [r0, #120]	; 0x78
 8004ca2:	6fc1      	ldr	r1, [r0, #124]	; 0x7c
 8004ca4:	b510      	push	{r4, lr}
 8004ca6:	689c      	ldr	r4, [r3, #8]
 8004ca8:	0624      	lsls	r4, r4, #24
 8004caa:	d50e      	bpl.n	8004cca <UART_DMAError+0x2e>
 8004cac:	2a21      	cmp	r2, #33	; 0x21
 8004cae:	d10c      	bne.n	8004cca <UART_DMAError+0x2e>
 8004cb0:	2200      	movs	r2, #0
 8004cb2:	f8a0 2052 	strh.w	r2, [r0, #82]	; 0x52
 8004cb6:	e853 2f00 	ldrex	r2, [r3]
 8004cba:	f022 02c0 	bic.w	r2, r2, #192	; 0xc0
 8004cbe:	e843 2400 	strex	r4, r2, [r3]
 8004cc2:	2c00      	cmp	r4, #0
 8004cc4:	d1f7      	bne.n	8004cb6 <UART_DMAError+0x1a>
 8004cc6:	2220      	movs	r2, #32
 8004cc8:	6782      	str	r2, [r0, #120]	; 0x78
 8004cca:	689b      	ldr	r3, [r3, #8]
 8004ccc:	065b      	lsls	r3, r3, #25
 8004cce:	d506      	bpl.n	8004cde <UART_DMAError+0x42>
 8004cd0:	2922      	cmp	r1, #34	; 0x22
 8004cd2:	d104      	bne.n	8004cde <UART_DMAError+0x42>
 8004cd4:	2300      	movs	r3, #0
 8004cd6:	f8a0 305a 	strh.w	r3, [r0, #90]	; 0x5a
 8004cda:	f7ff ff9a 	bl	8004c12 <UART_EndRxTransfer>
 8004cde:	f8d0 3080 	ldr.w	r3, [r0, #128]	; 0x80
 8004ce2:	f043 0310 	orr.w	r3, r3, #16
 8004ce6:	f8c0 3080 	str.w	r3, [r0, #128]	; 0x80
 8004cea:	f7ff ffd6 	bl	8004c9a <HAL_UART_ErrorCallback>
 8004cee:	bd10      	pop	{r4, pc}

08004cf0 <HAL_UARTEx_RxEventCallback>:
 8004cf0:	4770      	bx	lr

08004cf2 <UART_DMARxHalfCplt>:
 8004cf2:	6a80      	ldr	r0, [r0, #40]	; 0x28
 8004cf4:	b508      	push	{r3, lr}
 8004cf6:	6e03      	ldr	r3, [r0, #96]	; 0x60
 8004cf8:	2b01      	cmp	r3, #1
 8004cfa:	d105      	bne.n	8004d08 <UART_DMARxHalfCplt+0x16>
 8004cfc:	f8b0 1058 	ldrh.w	r1, [r0, #88]	; 0x58
 8004d00:	0849      	lsrs	r1, r1, #1
 8004d02:	f7ff fff5 	bl	8004cf0 <HAL_UARTEx_RxEventCallback>
 8004d06:	bd08      	pop	{r3, pc}
 8004d08:	f7ff ffc6 	bl	8004c98 <HAL_UART_RxHalfCpltCallback>
 8004d0c:	e7fb      	b.n	8004d06 <UART_DMARxHalfCplt+0x14>

08004d0e <UART_DMAReceiveCplt>:
 8004d0e:	b508      	push	{r3, lr}
 8004d10:	4603      	mov	r3, r0
 8004d12:	6a80      	ldr	r0, [r0, #40]	; 0x28
 8004d14:	681b      	ldr	r3, [r3, #0]
 8004d16:	681b      	ldr	r3, [r3, #0]
 8004d18:	f013 0320 	ands.w	r3, r3, #32
 8004d1c:	d130      	bne.n	8004d80 <UART_DMAReceiveCplt+0x72>
 8004d1e:	f8a0 305a 	strh.w	r3, [r0, #90]	; 0x5a
 8004d22:	6802      	ldr	r2, [r0, #0]
 8004d24:	e852 3f00 	ldrex	r3, [r2]
 8004d28:	f423 7380 	bic.w	r3, r3, #256	; 0x100
 8004d2c:	e842 3100 	strex	r1, r3, [r2]
 8004d30:	6803      	ldr	r3, [r0, #0]
 8004d32:	2900      	cmp	r1, #0
 8004d34:	d1f5      	bne.n	8004d22 <UART_DMAReceiveCplt+0x14>
 8004d36:	f103 0208 	add.w	r2, r3, #8
 8004d3a:	e852 2f00 	ldrex	r2, [r2]
 8004d3e:	f022 0201 	bic.w	r2, r2, #1
 8004d42:	f103 0c08 	add.w	ip, r3, #8
 8004d46:	e84c 2100 	strex	r1, r2, [ip]
 8004d4a:	2900      	cmp	r1, #0
 8004d4c:	d1f3      	bne.n	8004d36 <UART_DMAReceiveCplt+0x28>
 8004d4e:	f103 0208 	add.w	r2, r3, #8
 8004d52:	e852 2f00 	ldrex	r2, [r2]
 8004d56:	f022 0240 	bic.w	r2, r2, #64	; 0x40
 8004d5a:	f103 0c08 	add.w	ip, r3, #8
 8004d5e:	e84c 2100 	strex	r1, r2, [ip]
 8004d62:	2900      	cmp	r1, #0
 8004d64:	d1f3      	bne.n	8004d4e <UART_DMAReceiveCplt+0x40>
 8004d66:	2220      	movs	r2, #32
 8004d68:	67c2      	str	r2, [r0, #124]	; 0x7c
 8004d6a:	6e02      	ldr	r2, [r0, #96]	; 0x60
 8004d6c:	2a01      	cmp	r2, #1
 8004d6e:	d107      	bne.n	8004d80 <UART_DMAReceiveCplt+0x72>
 8004d70:	e853 2f00 	ldrex	r2, [r3]
 8004d74:	f022 0210 	bic.w	r2, r2, #16
 8004d78:	e843 2100 	strex	r1, r2, [r3]
 8004d7c:	2900      	cmp	r1, #0
 8004d7e:	d1f7      	bne.n	8004d70 <UART_DMAReceiveCplt+0x62>
 8004d80:	6e03      	ldr	r3, [r0, #96]	; 0x60
 8004d82:	2b01      	cmp	r3, #1
 8004d84:	d104      	bne.n	8004d90 <UART_DMAReceiveCplt+0x82>
 8004d86:	f8b0 1058 	ldrh.w	r1, [r0, #88]	; 0x58
 8004d8a:	f7ff ffb1 	bl	8004cf0 <HAL_UARTEx_RxEventCallback>
 8004d8e:	bd08      	pop	{r3, pc}
 8004d90:	f7ff ff81 	bl	8004c96 <HAL_UART_RxCpltCallback>
 8004d94:	e7fb      	b.n	8004d8e <UART_DMAReceiveCplt+0x80>
	...

08004d98 <UART_SetConfig>:
 8004d98:	b570      	push	{r4, r5, r6, lr}
 8004d9a:	4604      	mov	r4, r0
 8004d9c:	6803      	ldr	r3, [r0, #0]
 8004d9e:	6921      	ldr	r1, [r4, #16]
 8004da0:	68a2      	ldr	r2, [r4, #8]
 8004da2:	681d      	ldr	r5, [r3, #0]
 8004da4:	69c0      	ldr	r0, [r0, #28]
 8004da6:	430a      	orrs	r2, r1
 8004da8:	6961      	ldr	r1, [r4, #20]
 8004daa:	430a      	orrs	r2, r1
 8004dac:	4979      	ldr	r1, [pc, #484]	; (8004f94 <UART_SetConfig+0x1fc>)
 8004dae:	4302      	orrs	r2, r0
 8004db0:	4029      	ands	r1, r5
 8004db2:	430a      	orrs	r2, r1
 8004db4:	601a      	str	r2, [r3, #0]
 8004db6:	685a      	ldr	r2, [r3, #4]
 8004db8:	68e1      	ldr	r1, [r4, #12]
 8004dba:	f422 5240 	bic.w	r2, r2, #12288	; 0x3000
 8004dbe:	430a      	orrs	r2, r1
 8004dc0:	605a      	str	r2, [r3, #4]
 8004dc2:	4a75      	ldr	r2, [pc, #468]	; (8004f98 <UART_SetConfig+0x200>)
 8004dc4:	69a1      	ldr	r1, [r4, #24]
 8004dc6:	4293      	cmp	r3, r2
 8004dc8:	bf1c      	itt	ne
 8004dca:	6a22      	ldrne	r2, [r4, #32]
 8004dcc:	4311      	orrne	r1, r2
 8004dce:	689a      	ldr	r2, [r3, #8]
 8004dd0:	f422 6230 	bic.w	r2, r2, #2816	; 0xb00
 8004dd4:	430a      	orrs	r2, r1
 8004dd6:	609a      	str	r2, [r3, #8]
 8004dd8:	4a70      	ldr	r2, [pc, #448]	; (8004f9c <UART_SetConfig+0x204>)
 8004dda:	4293      	cmp	r3, r2
 8004ddc:	d117      	bne.n	8004e0e <UART_SetConfig+0x76>
 8004dde:	4b70      	ldr	r3, [pc, #448]	; (8004fa0 <UART_SetConfig+0x208>)
 8004de0:	f8d3 3088 	ldr.w	r3, [r3, #136]	; 0x88
 8004de4:	f003 0303 	and.w	r3, r3, #3
 8004de8:	3b01      	subs	r3, #1
 8004dea:	2b02      	cmp	r3, #2
 8004dec:	f200 80b0 	bhi.w	8004f50 <UART_SetConfig+0x1b8>
 8004df0:	4a6c      	ldr	r2, [pc, #432]	; (8004fa4 <UART_SetConfig+0x20c>)
 8004df2:	5cd3      	ldrb	r3, [r2, r3]
 8004df4:	f5b0 4f00 	cmp.w	r0, #32768	; 0x8000
 8004df8:	f040 808b 	bne.w	8004f12 <UART_SetConfig+0x17a>
 8004dfc:	2b08      	cmp	r3, #8
 8004dfe:	d822      	bhi.n	8004e46 <UART_SetConfig+0xae>
 8004e00:	e8df f003 	tbb	[pc, r3]
 8004e04:	2185a969 	.word	0x2185a969
 8004e08:	21212182 	.word	0x21212182
 8004e0c:	6d          	.byte	0x6d
 8004e0d:	00          	.byte	0x00
 8004e0e:	4a66      	ldr	r2, [pc, #408]	; (8004fa8 <UART_SetConfig+0x210>)
 8004e10:	4293      	cmp	r3, r2
 8004e12:	d106      	bne.n	8004e22 <UART_SetConfig+0x8a>
 8004e14:	4b62      	ldr	r3, [pc, #392]	; (8004fa0 <UART_SetConfig+0x208>)
 8004e16:	4a65      	ldr	r2, [pc, #404]	; (8004fac <UART_SetConfig+0x214>)
 8004e18:	f8d3 3088 	ldr.w	r3, [r3, #136]	; 0x88
 8004e1c:	f003 030c 	and.w	r3, r3, #12
 8004e20:	e7e7      	b.n	8004df2 <UART_SetConfig+0x5a>
 8004e22:	4a63      	ldr	r2, [pc, #396]	; (8004fb0 <UART_SetConfig+0x218>)
 8004e24:	4293      	cmp	r3, r2
 8004e26:	d118      	bne.n	8004e5a <UART_SetConfig+0xc2>
 8004e28:	4b5d      	ldr	r3, [pc, #372]	; (8004fa0 <UART_SetConfig+0x208>)
 8004e2a:	f8d3 3088 	ldr.w	r3, [r3, #136]	; 0x88
 8004e2e:	f003 0330 	and.w	r3, r3, #48	; 0x30
 8004e32:	2b20      	cmp	r3, #32
 8004e34:	f000 8087 	beq.w	8004f46 <UART_SetConfig+0x1ae>
 8004e38:	d807      	bhi.n	8004e4a <UART_SetConfig+0xb2>
 8004e3a:	2b00      	cmp	r3, #0
 8004e3c:	f000 8094 	beq.w	8004f68 <UART_SetConfig+0x1d0>
 8004e40:	2b10      	cmp	r3, #16
 8004e42:	f000 808b 	beq.w	8004f5c <UART_SetConfig+0x1c4>
 8004e46:	2001      	movs	r0, #1
 8004e48:	e024      	b.n	8004e94 <UART_SetConfig+0xfc>
 8004e4a:	2b30      	cmp	r3, #48	; 0x30
 8004e4c:	d1fb      	bne.n	8004e46 <UART_SetConfig+0xae>
 8004e4e:	f5b0 4f00 	cmp.w	r0, #32768	; 0x8000
 8004e52:	d044      	beq.n	8004ede <UART_SetConfig+0x146>
 8004e54:	f44f 4000 	mov.w	r0, #32768	; 0x8000
 8004e58:	e08d      	b.n	8004f76 <UART_SetConfig+0x1de>
 8004e5a:	4a4f      	ldr	r2, [pc, #316]	; (8004f98 <UART_SetConfig+0x200>)
 8004e5c:	4293      	cmp	r3, r2
 8004e5e:	d1f2      	bne.n	8004e46 <UART_SetConfig+0xae>
 8004e60:	4b4f      	ldr	r3, [pc, #316]	; (8004fa0 <UART_SetConfig+0x208>)
 8004e62:	f8d3 3088 	ldr.w	r3, [r3, #136]	; 0x88
 8004e66:	f403 6340 	and.w	r3, r3, #3072	; 0xc00
 8004e6a:	f5b3 6f00 	cmp.w	r3, #2048	; 0x800
 8004e6e:	d015      	beq.n	8004e9c <UART_SetConfig+0x104>
 8004e70:	d806      	bhi.n	8004e80 <UART_SetConfig+0xe8>
 8004e72:	b15b      	cbz	r3, 8004e8c <UART_SetConfig+0xf4>
 8004e74:	f5b3 6f80 	cmp.w	r3, #1024	; 0x400
 8004e78:	d1e5      	bne.n	8004e46 <UART_SetConfig+0xae>
 8004e7a:	f7fe fd13 	bl	80038a4 <HAL_RCC_GetSysClockFreq>
 8004e7e:	e007      	b.n	8004e90 <UART_SetConfig+0xf8>
 8004e80:	f5b3 6f40 	cmp.w	r3, #3072	; 0xc00
 8004e84:	d1df      	bne.n	8004e46 <UART_SetConfig+0xae>
 8004e86:	f44f 4000 	mov.w	r0, #32768	; 0x8000
 8004e8a:	e008      	b.n	8004e9e <UART_SetConfig+0x106>
 8004e8c:	f7ff f8d8 	bl	8004040 <HAL_RCC_GetPCLK1Freq>
 8004e90:	b928      	cbnz	r0, 8004e9e <UART_SetConfig+0x106>
 8004e92:	2000      	movs	r0, #0
 8004e94:	2300      	movs	r3, #0
 8004e96:	e9c4 3319 	strd	r3, r3, [r4, #100]	; 0x64
 8004e9a:	bd70      	pop	{r4, r5, r6, pc}
 8004e9c:	4845      	ldr	r0, [pc, #276]	; (8004fb4 <UART_SetConfig+0x21c>)
 8004e9e:	6862      	ldr	r2, [r4, #4]
 8004ea0:	eb02 0342 	add.w	r3, r2, r2, lsl #1
 8004ea4:	4283      	cmp	r3, r0
 8004ea6:	d8ce      	bhi.n	8004e46 <UART_SetConfig+0xae>
 8004ea8:	ebb0 3f02 	cmp.w	r0, r2, lsl #12
 8004eac:	d8cb      	bhi.n	8004e46 <UART_SetConfig+0xae>
 8004eae:	0851      	lsrs	r1, r2, #1
 8004eb0:	2500      	movs	r5, #0
 8004eb2:	468c      	mov	ip, r1
 8004eb4:	f44f 7680 	mov.w	r6, #256	; 0x100
 8004eb8:	4629      	mov	r1, r5
 8004eba:	fbe0 c106 	umlal	ip, r1, r0, r6
 8004ebe:	462b      	mov	r3, r5
 8004ec0:	4660      	mov	r0, ip
 8004ec2:	f7fb f983 	bl	80001cc <__aeabi_uldivmod>
 8004ec6:	4b3c      	ldr	r3, [pc, #240]	; (8004fb8 <UART_SetConfig+0x220>)
 8004ec8:	f5a0 7240 	sub.w	r2, r0, #768	; 0x300
 8004ecc:	429a      	cmp	r2, r3
 8004ece:	d8ba      	bhi.n	8004e46 <UART_SetConfig+0xae>
 8004ed0:	6823      	ldr	r3, [r4, #0]
 8004ed2:	60d8      	str	r0, [r3, #12]
 8004ed4:	e7dd      	b.n	8004e92 <UART_SetConfig+0xfa>
 8004ed6:	f7ff f8b3 	bl	8004040 <HAL_RCC_GetPCLK1Freq>
 8004eda:	2800      	cmp	r0, #0
 8004edc:	d0d9      	beq.n	8004e92 <UART_SetConfig+0xfa>
 8004ede:	6862      	ldr	r2, [r4, #4]
 8004ee0:	0853      	lsrs	r3, r2, #1
 8004ee2:	eb03 0040 	add.w	r0, r3, r0, lsl #1
 8004ee6:	f64f 73ef 	movw	r3, #65519	; 0xffef
 8004eea:	fbb0 f0f2 	udiv	r0, r0, r2
 8004eee:	f1a0 0210 	sub.w	r2, r0, #16
 8004ef2:	429a      	cmp	r2, r3
 8004ef4:	d8a7      	bhi.n	8004e46 <UART_SetConfig+0xae>
 8004ef6:	f020 030f 	bic.w	r3, r0, #15
 8004efa:	6822      	ldr	r2, [r4, #0]
 8004efc:	b29b      	uxth	r3, r3
 8004efe:	f3c0 0042 	ubfx	r0, r0, #1, #3
 8004f02:	4318      	orrs	r0, r3
 8004f04:	60d0      	str	r0, [r2, #12]
 8004f06:	e7c4      	b.n	8004e92 <UART_SetConfig+0xfa>
 8004f08:	f7fe fccc 	bl	80038a4 <HAL_RCC_GetSysClockFreq>
 8004f0c:	e7e5      	b.n	8004eda <UART_SetConfig+0x142>
 8004f0e:	4829      	ldr	r0, [pc, #164]	; (8004fb4 <UART_SetConfig+0x21c>)
 8004f10:	e7e5      	b.n	8004ede <UART_SetConfig+0x146>
 8004f12:	2b08      	cmp	r3, #8
 8004f14:	d897      	bhi.n	8004e46 <UART_SetConfig+0xae>
 8004f16:	a201      	add	r2, pc, #4	; (adr r2, 8004f1c <UART_SetConfig+0x184>)
 8004f18:	f852 f023 	ldr.w	pc, [r2, r3, lsl #2]
 8004f1c:	08004f6f 	.word	0x08004f6f
 8004f20:	08004f41 	.word	0x08004f41
 8004f24:	08004f4d 	.word	0x08004f4d
 8004f28:	08004e47 	.word	0x08004e47
 8004f2c:	08004f63 	.word	0x08004f63
 8004f30:	08004e47 	.word	0x08004e47
 8004f34:	08004e47 	.word	0x08004e47
 8004f38:	08004e47 	.word	0x08004e47
 8004f3c:	08004e55 	.word	0x08004e55
 8004f40:	f7ff f890 	bl	8004064 <HAL_RCC_GetPCLK2Freq>
 8004f44:	e015      	b.n	8004f72 <UART_SetConfig+0x1da>
 8004f46:	f5b0 4f00 	cmp.w	r0, #32768	; 0x8000
 8004f4a:	d0e0      	beq.n	8004f0e <UART_SetConfig+0x176>
 8004f4c:	4819      	ldr	r0, [pc, #100]	; (8004fb4 <UART_SetConfig+0x21c>)
 8004f4e:	e012      	b.n	8004f76 <UART_SetConfig+0x1de>
 8004f50:	f5b0 4f00 	cmp.w	r0, #32768	; 0x8000
 8004f54:	d1f4      	bne.n	8004f40 <UART_SetConfig+0x1a8>
 8004f56:	f7ff f885 	bl	8004064 <HAL_RCC_GetPCLK2Freq>
 8004f5a:	e7be      	b.n	8004eda <UART_SetConfig+0x142>
 8004f5c:	f5b0 4f00 	cmp.w	r0, #32768	; 0x8000
 8004f60:	d0d2      	beq.n	8004f08 <UART_SetConfig+0x170>
 8004f62:	f7fe fc9f 	bl	80038a4 <HAL_RCC_GetSysClockFreq>
 8004f66:	e004      	b.n	8004f72 <UART_SetConfig+0x1da>
 8004f68:	f5b0 4f00 	cmp.w	r0, #32768	; 0x8000
 8004f6c:	d0b3      	beq.n	8004ed6 <UART_SetConfig+0x13e>
 8004f6e:	f7ff f867 	bl	8004040 <HAL_RCC_GetPCLK1Freq>
 8004f72:	2800      	cmp	r0, #0
 8004f74:	d08d      	beq.n	8004e92 <UART_SetConfig+0xfa>
 8004f76:	6862      	ldr	r2, [r4, #4]
 8004f78:	eb00 0352 	add.w	r3, r0, r2, lsr #1
 8004f7c:	fbb3 f3f2 	udiv	r3, r3, r2
 8004f80:	f64f 72ef 	movw	r2, #65519	; 0xffef
 8004f84:	f1a3 0110 	sub.w	r1, r3, #16
 8004f88:	4291      	cmp	r1, r2
 8004f8a:	f63f af5c 	bhi.w	8004e46 <UART_SetConfig+0xae>
 8004f8e:	6822      	ldr	r2, [r4, #0]
 8004f90:	60d3      	str	r3, [r2, #12]
 8004f92:	e77e      	b.n	8004e92 <UART_SetConfig+0xfa>
 8004f94:	efff69f3 	.word	0xefff69f3
 8004f98:	40008000 	.word	0x40008000
 8004f9c:	40013800 	.word	0x40013800
 8004fa0:	40021000 	.word	0x40021000
 8004fa4:	08005460 	.word	0x08005460
 8004fa8:	40004400 	.word	0x40004400
 8004fac:	08005463 	.word	0x08005463
 8004fb0:	40004800 	.word	0x40004800
 8004fb4:	00f42400 	.word	0x00f42400
 8004fb8:	000ffcff 	.word	0x000ffcff

08004fbc <UART_AdvFeatureConfig>:
 8004fbc:	6a43      	ldr	r3, [r0, #36]	; 0x24
 8004fbe:	07da      	lsls	r2, r3, #31
 8004fc0:	b510      	push	{r4, lr}
 8004fc2:	d506      	bpl.n	8004fd2 <UART_AdvFeatureConfig+0x16>
 8004fc4:	6801      	ldr	r1, [r0, #0]
 8004fc6:	6a84      	ldr	r4, [r0, #40]	; 0x28
 8004fc8:	684a      	ldr	r2, [r1, #4]
 8004fca:	f422 3200 	bic.w	r2, r2, #131072	; 0x20000
 8004fce:	4322      	orrs	r2, r4
 8004fd0:	604a      	str	r2, [r1, #4]
 8004fd2:	079c      	lsls	r4, r3, #30
 8004fd4:	d506      	bpl.n	8004fe4 <UART_AdvFeatureConfig+0x28>
 8004fd6:	6801      	ldr	r1, [r0, #0]
 8004fd8:	6ac4      	ldr	r4, [r0, #44]	; 0x2c
 8004fda:	684a      	ldr	r2, [r1, #4]
 8004fdc:	f422 3280 	bic.w	r2, r2, #65536	; 0x10000
 8004fe0:	4322      	orrs	r2, r4
 8004fe2:	604a      	str	r2, [r1, #4]
 8004fe4:	0759      	lsls	r1, r3, #29
 8004fe6:	d506      	bpl.n	8004ff6 <UART_AdvFeatureConfig+0x3a>
 8004fe8:	6801      	ldr	r1, [r0, #0]
 8004fea:	6b04      	ldr	r4, [r0, #48]	; 0x30
 8004fec:	684a      	ldr	r2, [r1, #4]
 8004fee:	f422 2280 	bic.w	r2, r2, #262144	; 0x40000
 8004ff2:	4322      	orrs	r2, r4
 8004ff4:	604a      	str	r2, [r1, #4]
 8004ff6:	071a      	lsls	r2, r3, #28
 8004ff8:	d506      	bpl.n	8005008 <UART_AdvFeatureConfig+0x4c>
 8004ffa:	6801      	ldr	r1, [r0, #0]
 8004ffc:	6b44      	ldr	r4, [r0, #52]	; 0x34
 8004ffe:	684a      	ldr	r2, [r1, #4]
 8005000:	f422 4200 	bic.w	r2, r2, #32768	; 0x8000
 8005004:	4322      	orrs	r2, r4
 8005006:	604a      	str	r2, [r1, #4]
 8005008:	06dc      	lsls	r4, r3, #27
 800500a:	d506      	bpl.n	800501a <UART_AdvFeatureConfig+0x5e>
 800500c:	6801      	ldr	r1, [r0, #0]
 800500e:	6b84      	ldr	r4, [r0, #56]	; 0x38
 8005010:	688a      	ldr	r2, [r1, #8]
 8005012:	f422 5280 	bic.w	r2, r2, #4096	; 0x1000
 8005016:	4322      	orrs	r2, r4
 8005018:	608a      	str	r2, [r1, #8]
 800501a:	0699      	lsls	r1, r3, #26
 800501c:	d506      	bpl.n	800502c <UART_AdvFeatureConfig+0x70>
 800501e:	6801      	ldr	r1, [r0, #0]
 8005020:	6bc4      	ldr	r4, [r0, #60]	; 0x3c
 8005022:	688a      	ldr	r2, [r1, #8]
 8005024:	f422 5200 	bic.w	r2, r2, #8192	; 0x2000
 8005028:	4322      	orrs	r2, r4
 800502a:	608a      	str	r2, [r1, #8]
 800502c:	065a      	lsls	r2, r3, #25
 800502e:	d50f      	bpl.n	8005050 <UART_AdvFeatureConfig+0x94>
 8005030:	6801      	ldr	r1, [r0, #0]
 8005032:	6c04      	ldr	r4, [r0, #64]	; 0x40
 8005034:	684a      	ldr	r2, [r1, #4]
 8005036:	f422 1280 	bic.w	r2, r2, #1048576	; 0x100000
 800503a:	4322      	orrs	r2, r4
 800503c:	f5b4 1f80 	cmp.w	r4, #1048576	; 0x100000
 8005040:	604a      	str	r2, [r1, #4]
 8005042:	d105      	bne.n	8005050 <UART_AdvFeatureConfig+0x94>
 8005044:	684a      	ldr	r2, [r1, #4]
 8005046:	6c44      	ldr	r4, [r0, #68]	; 0x44
 8005048:	f422 02c0 	bic.w	r2, r2, #6291456	; 0x600000
 800504c:	4322      	orrs	r2, r4
 800504e:	604a      	str	r2, [r1, #4]
 8005050:	061b      	lsls	r3, r3, #24
 8005052:	d506      	bpl.n	8005062 <UART_AdvFeatureConfig+0xa6>
 8005054:	6802      	ldr	r2, [r0, #0]
 8005056:	6c81      	ldr	r1, [r0, #72]	; 0x48
 8005058:	6853      	ldr	r3, [r2, #4]
 800505a:	f423 2300 	bic.w	r3, r3, #524288	; 0x80000
 800505e:	430b      	orrs	r3, r1
 8005060:	6053      	str	r3, [r2, #4]
 8005062:	bd10      	pop	{r4, pc}

08005064 <UART_WaitOnFlagUntilTimeout>:
 8005064:	e92d 41f0 	stmdb	sp!, {r4, r5, r6, r7, r8, lr}
 8005068:	f8dd 8018 	ldr.w	r8, [sp, #24]
 800506c:	4604      	mov	r4, r0
 800506e:	460e      	mov	r6, r1
 8005070:	4615      	mov	r5, r2
 8005072:	461f      	mov	r7, r3
 8005074:	6822      	ldr	r2, [r4, #0]
 8005076:	69d3      	ldr	r3, [r2, #28]
 8005078:	ea36 0303 	bics.w	r3, r6, r3
 800507c:	bf0c      	ite	eq
 800507e:	2301      	moveq	r3, #1
 8005080:	2300      	movne	r3, #0
 8005082:	42ab      	cmp	r3, r5
 8005084:	d001      	beq.n	800508a <UART_WaitOnFlagUntilTimeout+0x26>
 8005086:	2000      	movs	r0, #0
 8005088:	e025      	b.n	80050d6 <UART_WaitOnFlagUntilTimeout+0x72>
 800508a:	f1b8 3fff 	cmp.w	r8, #4294967295	; 0xffffffff
 800508e:	d0f2      	beq.n	8005076 <UART_WaitOnFlagUntilTimeout+0x12>
 8005090:	f7fc fd76 	bl	8001b80 <HAL_GetTick>
 8005094:	1bc0      	subs	r0, r0, r7
 8005096:	4540      	cmp	r0, r8
 8005098:	6820      	ldr	r0, [r4, #0]
 800509a:	d802      	bhi.n	80050a2 <UART_WaitOnFlagUntilTimeout+0x3e>
 800509c:	f1b8 0f00 	cmp.w	r8, #0
 80050a0:	d11b      	bne.n	80050da <UART_WaitOnFlagUntilTimeout+0x76>
 80050a2:	e850 3f00 	ldrex	r3, [r0]
 80050a6:	f423 73d0 	bic.w	r3, r3, #416	; 0x1a0
 80050aa:	e840 3200 	strex	r2, r3, [r0]
 80050ae:	2a00      	cmp	r2, #0
 80050b0:	d1f7      	bne.n	80050a2 <UART_WaitOnFlagUntilTimeout+0x3e>
 80050b2:	f100 0308 	add.w	r3, r0, #8
 80050b6:	e853 3f00 	ldrex	r3, [r3]
 80050ba:	f023 0301 	bic.w	r3, r3, #1
 80050be:	f100 0108 	add.w	r1, r0, #8
 80050c2:	e841 3200 	strex	r2, r3, [r1]
 80050c6:	2a00      	cmp	r2, #0
 80050c8:	d1f3      	bne.n	80050b2 <UART_WaitOnFlagUntilTimeout+0x4e>
 80050ca:	2320      	movs	r3, #32
 80050cc:	67a3      	str	r3, [r4, #120]	; 0x78
 80050ce:	67e3      	str	r3, [r4, #124]	; 0x7c
 80050d0:	f884 2074 	strb.w	r2, [r4, #116]	; 0x74
 80050d4:	2003      	movs	r0, #3
 80050d6:	e8bd 81f0 	ldmia.w	sp!, {r4, r5, r6, r7, r8, pc}
 80050da:	6803      	ldr	r3, [r0, #0]
 80050dc:	075a      	lsls	r2, r3, #29
 80050de:	d5c9      	bpl.n	8005074 <UART_WaitOnFlagUntilTimeout+0x10>
 80050e0:	69c3      	ldr	r3, [r0, #28]
 80050e2:	051b      	lsls	r3, r3, #20
 80050e4:	d5c6      	bpl.n	8005074 <UART_WaitOnFlagUntilTimeout+0x10>
 80050e6:	f44f 6300 	mov.w	r3, #2048	; 0x800
 80050ea:	6203      	str	r3, [r0, #32]
 80050ec:	e850 3f00 	ldrex	r3, [r0]
 80050f0:	f423 73d0 	bic.w	r3, r3, #416	; 0x1a0
 80050f4:	e840 3200 	strex	r2, r3, [r0]
 80050f8:	2a00      	cmp	r2, #0
 80050fa:	d1f7      	bne.n	80050ec <UART_WaitOnFlagUntilTimeout+0x88>
 80050fc:	f100 0308 	add.w	r3, r0, #8
 8005100:	e853 3f00 	ldrex	r3, [r3]
 8005104:	f023 0301 	bic.w	r3, r3, #1
 8005108:	f100 0108 	add.w	r1, r0, #8
 800510c:	e841 3200 	strex	r2, r3, [r1]
 8005110:	2a00      	cmp	r2, #0
 8005112:	d1f3      	bne.n	80050fc <UART_WaitOnFlagUntilTimeout+0x98>
 8005114:	2320      	movs	r3, #32
 8005116:	67a3      	str	r3, [r4, #120]	; 0x78
 8005118:	67e3      	str	r3, [r4, #124]	; 0x7c
 800511a:	f8c4 3080 	str.w	r3, [r4, #128]	; 0x80
 800511e:	e7d7      	b.n	80050d0 <UART_WaitOnFlagUntilTimeout+0x6c>

08005120 <HAL_UART_Transmit>:
 8005120:	e92d 41ff 	stmdb	sp!, {r0, r1, r2, r3, r4, r5, r6, r7, r8, lr}
 8005124:	4698      	mov	r8, r3
 8005126:	6f83      	ldr	r3, [r0, #120]	; 0x78
 8005128:	2b20      	cmp	r3, #32
 800512a:	4604      	mov	r4, r0
 800512c:	460e      	mov	r6, r1
 800512e:	4617      	mov	r7, r2
 8005130:	d14e      	bne.n	80051d0 <HAL_UART_Transmit+0xb0>
 8005132:	2900      	cmp	r1, #0
 8005134:	d04a      	beq.n	80051cc <HAL_UART_Transmit+0xac>
 8005136:	2a00      	cmp	r2, #0
 8005138:	d048      	beq.n	80051cc <HAL_UART_Transmit+0xac>
 800513a:	f890 3074 	ldrb.w	r3, [r0, #116]	; 0x74
 800513e:	2b01      	cmp	r3, #1
 8005140:	d046      	beq.n	80051d0 <HAL_UART_Transmit+0xb0>
 8005142:	2301      	movs	r3, #1
 8005144:	f880 3074 	strb.w	r3, [r0, #116]	; 0x74
 8005148:	2500      	movs	r5, #0
 800514a:	2321      	movs	r3, #33	; 0x21
 800514c:	f8c0 5080 	str.w	r5, [r0, #128]	; 0x80
 8005150:	6783      	str	r3, [r0, #120]	; 0x78
 8005152:	f7fc fd15 	bl	8001b80 <HAL_GetTick>
 8005156:	68a2      	ldr	r2, [r4, #8]
 8005158:	f8a4 7050 	strh.w	r7, [r4, #80]	; 0x50
 800515c:	f5b2 5f80 	cmp.w	r2, #4096	; 0x1000
 8005160:	4603      	mov	r3, r0
 8005162:	f8a4 7052 	strh.w	r7, [r4, #82]	; 0x52
 8005166:	d103      	bne.n	8005170 <HAL_UART_Transmit+0x50>
 8005168:	6922      	ldr	r2, [r4, #16]
 800516a:	b90a      	cbnz	r2, 8005170 <HAL_UART_Transmit+0x50>
 800516c:	4635      	mov	r5, r6
 800516e:	4616      	mov	r6, r2
 8005170:	2200      	movs	r2, #0
 8005172:	f884 2074 	strb.w	r2, [r4, #116]	; 0x74
 8005176:	f8b4 2052 	ldrh.w	r2, [r4, #82]	; 0x52
 800517a:	f8cd 8000 	str.w	r8, [sp]
 800517e:	b292      	uxth	r2, r2
 8005180:	b93a      	cbnz	r2, 8005192 <HAL_UART_Transmit+0x72>
 8005182:	2140      	movs	r1, #64	; 0x40
 8005184:	4620      	mov	r0, r4
 8005186:	f7ff ff6d 	bl	8005064 <UART_WaitOnFlagUntilTimeout>
 800518a:	b950      	cbnz	r0, 80051a2 <HAL_UART_Transmit+0x82>
 800518c:	2320      	movs	r3, #32
 800518e:	67a3      	str	r3, [r4, #120]	; 0x78
 8005190:	e008      	b.n	80051a4 <HAL_UART_Transmit+0x84>
 8005192:	2200      	movs	r2, #0
 8005194:	2180      	movs	r1, #128	; 0x80
 8005196:	4620      	mov	r0, r4
 8005198:	9303      	str	r3, [sp, #12]
 800519a:	f7ff ff63 	bl	8005064 <UART_WaitOnFlagUntilTimeout>
 800519e:	9b03      	ldr	r3, [sp, #12]
 80051a0:	b118      	cbz	r0, 80051aa <HAL_UART_Transmit+0x8a>
 80051a2:	2003      	movs	r0, #3
 80051a4:	b004      	add	sp, #16
 80051a6:	e8bd 81f0 	ldmia.w	sp!, {r4, r5, r6, r7, r8, pc}
 80051aa:	6821      	ldr	r1, [r4, #0]
 80051ac:	b95e      	cbnz	r6, 80051c6 <HAL_UART_Transmit+0xa6>
 80051ae:	f835 2b02 	ldrh.w	r2, [r5], #2
 80051b2:	f3c2 0208 	ubfx	r2, r2, #0, #9
 80051b6:	850a      	strh	r2, [r1, #40]	; 0x28
 80051b8:	f8b4 2052 	ldrh.w	r2, [r4, #82]	; 0x52
 80051bc:	3a01      	subs	r2, #1
 80051be:	b292      	uxth	r2, r2
 80051c0:	f8a4 2052 	strh.w	r2, [r4, #82]	; 0x52
 80051c4:	e7d7      	b.n	8005176 <HAL_UART_Transmit+0x56>
 80051c6:	f816 2b01 	ldrb.w	r2, [r6], #1
 80051ca:	e7f4      	b.n	80051b6 <HAL_UART_Transmit+0x96>
 80051cc:	2001      	movs	r0, #1
 80051ce:	e7e9      	b.n	80051a4 <HAL_UART_Transmit+0x84>
 80051d0:	2002      	movs	r0, #2
 80051d2:	e7e7      	b.n	80051a4 <HAL_UART_Transmit+0x84>

080051d4 <UART_CheckIdleState>:
 80051d4:	b530      	push	{r4, r5, lr}
 80051d6:	4604      	mov	r4, r0
 80051d8:	2500      	movs	r5, #0
 80051da:	b085      	sub	sp, #20
 80051dc:	f8c0 5080 	str.w	r5, [r0, #128]	; 0x80
 80051e0:	f7fc fcce 	bl	8001b80 <HAL_GetTick>
 80051e4:	6822      	ldr	r2, [r4, #0]
 80051e6:	6812      	ldr	r2, [r2, #0]
 80051e8:	0711      	lsls	r1, r2, #28
 80051ea:	4603      	mov	r3, r0
 80051ec:	d415      	bmi.n	800521a <UART_CheckIdleState+0x46>
 80051ee:	6822      	ldr	r2, [r4, #0]
 80051f0:	6812      	ldr	r2, [r2, #0]
 80051f2:	0752      	lsls	r2, r2, #29
 80051f4:	d509      	bpl.n	800520a <UART_CheckIdleState+0x36>
 80051f6:	f06f 427e 	mvn.w	r2, #4261412864	; 0xfe000000
 80051fa:	9200      	str	r2, [sp, #0]
 80051fc:	f44f 0180 	mov.w	r1, #4194304	; 0x400000
 8005200:	2200      	movs	r2, #0
 8005202:	4620      	mov	r0, r4
 8005204:	f7ff ff2e 	bl	8005064 <UART_WaitOnFlagUntilTimeout>
 8005208:	b9a0      	cbnz	r0, 8005234 <UART_CheckIdleState+0x60>
 800520a:	2320      	movs	r3, #32
 800520c:	2000      	movs	r0, #0
 800520e:	67a3      	str	r3, [r4, #120]	; 0x78
 8005210:	f884 0074 	strb.w	r0, [r4, #116]	; 0x74
 8005214:	67e3      	str	r3, [r4, #124]	; 0x7c
 8005216:	6620      	str	r0, [r4, #96]	; 0x60
 8005218:	e00d      	b.n	8005236 <UART_CheckIdleState+0x62>
 800521a:	f06f 427e 	mvn.w	r2, #4261412864	; 0xfe000000
 800521e:	9200      	str	r2, [sp, #0]
 8005220:	9003      	str	r0, [sp, #12]
 8005222:	462a      	mov	r2, r5
 8005224:	f44f 1100 	mov.w	r1, #2097152	; 0x200000
 8005228:	4620      	mov	r0, r4
 800522a:	f7ff ff1b 	bl	8005064 <UART_WaitOnFlagUntilTimeout>
 800522e:	9b03      	ldr	r3, [sp, #12]
 8005230:	2800      	cmp	r0, #0
 8005232:	d0dc      	beq.n	80051ee <UART_CheckIdleState+0x1a>
 8005234:	2003      	movs	r0, #3
 8005236:	b005      	add	sp, #20
 8005238:	bd30      	pop	{r4, r5, pc}

0800523a <HAL_UART_Init>:
 800523a:	b510      	push	{r4, lr}
 800523c:	4604      	mov	r4, r0
 800523e:	b340      	cbz	r0, 8005292 <HAL_UART_Init+0x58>
 8005240:	6f83      	ldr	r3, [r0, #120]	; 0x78
 8005242:	b91b      	cbnz	r3, 800524c <HAL_UART_Init+0x12>
 8005244:	f880 3074 	strb.w	r3, [r0, #116]	; 0x74
 8005248:	f7fc f998 	bl	800157c <HAL_UART_MspInit>
 800524c:	6822      	ldr	r2, [r4, #0]
 800524e:	2324      	movs	r3, #36	; 0x24
 8005250:	67a3      	str	r3, [r4, #120]	; 0x78
 8005252:	6813      	ldr	r3, [r2, #0]
 8005254:	f023 0301 	bic.w	r3, r3, #1
 8005258:	6013      	str	r3, [r2, #0]
 800525a:	4620      	mov	r0, r4
 800525c:	f7ff fd9c 	bl	8004d98 <UART_SetConfig>
 8005260:	2801      	cmp	r0, #1
 8005262:	d016      	beq.n	8005292 <HAL_UART_Init+0x58>
 8005264:	6a63      	ldr	r3, [r4, #36]	; 0x24
 8005266:	b113      	cbz	r3, 800526e <HAL_UART_Init+0x34>
 8005268:	4620      	mov	r0, r4
 800526a:	f7ff fea7 	bl	8004fbc <UART_AdvFeatureConfig>
 800526e:	6823      	ldr	r3, [r4, #0]
 8005270:	685a      	ldr	r2, [r3, #4]
 8005272:	f422 4290 	bic.w	r2, r2, #18432	; 0x4800
 8005276:	605a      	str	r2, [r3, #4]
 8005278:	689a      	ldr	r2, [r3, #8]
 800527a:	f022 022a 	bic.w	r2, r2, #42	; 0x2a
 800527e:	609a      	str	r2, [r3, #8]
 8005280:	681a      	ldr	r2, [r3, #0]
 8005282:	f042 0201 	orr.w	r2, r2, #1
 8005286:	4620      	mov	r0, r4
 8005288:	601a      	str	r2, [r3, #0]
 800528a:	e8bd 4010 	ldmia.w	sp!, {r4, lr}
 800528e:	f7ff bfa1 	b.w	80051d4 <UART_CheckIdleState>
 8005292:	2001      	movs	r0, #1
 8005294:	bd10      	pop	{r4, pc}
	...

08005298 <UART_Start_Receive_DMA>:
 8005298:	b570      	push	{r4, r5, r6, lr}
 800529a:	2322      	movs	r3, #34	; 0x22
 800529c:	2500      	movs	r5, #0
 800529e:	f8c0 5080 	str.w	r5, [r0, #128]	; 0x80
 80052a2:	4604      	mov	r4, r0
 80052a4:	6541      	str	r1, [r0, #84]	; 0x54
 80052a6:	f8a0 2058 	strh.w	r2, [r0, #88]	; 0x58
 80052aa:	67c3      	str	r3, [r0, #124]	; 0x7c
 80052ac:	6f00      	ldr	r0, [r0, #112]	; 0x70
 80052ae:	b1b8      	cbz	r0, 80052e0 <UART_Start_Receive_DMA+0x48>
 80052b0:	4b1f      	ldr	r3, [pc, #124]	; (8005330 <UART_Start_Receive_DMA+0x98>)
 80052b2:	6826      	ldr	r6, [r4, #0]
 80052b4:	62c3      	str	r3, [r0, #44]	; 0x2c
 80052b6:	4b1f      	ldr	r3, [pc, #124]	; (8005334 <UART_Start_Receive_DMA+0x9c>)
 80052b8:	6303      	str	r3, [r0, #48]	; 0x30
 80052ba:	4b1f      	ldr	r3, [pc, #124]	; (8005338 <UART_Start_Receive_DMA+0xa0>)
 80052bc:	e9c0 350d 	strd	r3, r5, [r0, #52]	; 0x34
 80052c0:	4613      	mov	r3, r2
 80052c2:	460a      	mov	r2, r1
 80052c4:	f106 0124 	add.w	r1, r6, #36	; 0x24
 80052c8:	f7fd fcc4 	bl	8002c54 <HAL_DMA_Start_IT>
 80052cc:	b140      	cbz	r0, 80052e0 <UART_Start_Receive_DMA+0x48>
 80052ce:	2310      	movs	r3, #16
 80052d0:	f8c4 3080 	str.w	r3, [r4, #128]	; 0x80
 80052d4:	2320      	movs	r3, #32
 80052d6:	f884 5074 	strb.w	r5, [r4, #116]	; 0x74
 80052da:	67e3      	str	r3, [r4, #124]	; 0x7c
 80052dc:	2001      	movs	r0, #1
 80052de:	bd70      	pop	{r4, r5, r6, pc}
 80052e0:	6922      	ldr	r2, [r4, #16]
 80052e2:	2300      	movs	r3, #0
 80052e4:	f884 3074 	strb.w	r3, [r4, #116]	; 0x74
 80052e8:	6823      	ldr	r3, [r4, #0]
 80052ea:	b13a      	cbz	r2, 80052fc <UART_Start_Receive_DMA+0x64>
 80052ec:	e853 2f00 	ldrex	r2, [r3]
 80052f0:	f442 7280 	orr.w	r2, r2, #256	; 0x100
 80052f4:	e843 2100 	strex	r1, r2, [r3]
 80052f8:	2900      	cmp	r1, #0
 80052fa:	d1f7      	bne.n	80052ec <UART_Start_Receive_DMA+0x54>
 80052fc:	f103 0208 	add.w	r2, r3, #8
 8005300:	e852 2f00 	ldrex	r2, [r2]
 8005304:	f042 0201 	orr.w	r2, r2, #1
 8005308:	f103 0008 	add.w	r0, r3, #8
 800530c:	e840 2100 	strex	r1, r2, [r0]
 8005310:	2900      	cmp	r1, #0
 8005312:	d1f3      	bne.n	80052fc <UART_Start_Receive_DMA+0x64>
 8005314:	f103 0208 	add.w	r2, r3, #8
 8005318:	e852 2f00 	ldrex	r2, [r2]
 800531c:	f042 0240 	orr.w	r2, r2, #64	; 0x40
 8005320:	f103 0108 	add.w	r1, r3, #8
 8005324:	e841 2000 	strex	r0, r2, [r1]
 8005328:	2800      	cmp	r0, #0
 800532a:	d1f3      	bne.n	8005314 <UART_Start_Receive_DMA+0x7c>
 800532c:	e7d7      	b.n	80052de <UART_Start_Receive_DMA+0x46>
 800532e:	bf00      	nop
 8005330:	08004d0f 	.word	0x08004d0f
 8005334:	08004cf3 	.word	0x08004cf3
 8005338:	08004c9d 	.word	0x08004c9d

0800533c <HAL_UART_Receive_DMA>:
 800533c:	6fc3      	ldr	r3, [r0, #124]	; 0x7c
 800533e:	2b20      	cmp	r3, #32
 8005340:	b430      	push	{r4, r5}
 8005342:	d11f      	bne.n	8005384 <HAL_UART_Receive_DMA+0x48>
 8005344:	b1d9      	cbz	r1, 800537e <HAL_UART_Receive_DMA+0x42>
 8005346:	b1d2      	cbz	r2, 800537e <HAL_UART_Receive_DMA+0x42>
 8005348:	f890 3074 	ldrb.w	r3, [r0, #116]	; 0x74
 800534c:	2b01      	cmp	r3, #1
 800534e:	d019      	beq.n	8005384 <HAL_UART_Receive_DMA+0x48>
 8005350:	2301      	movs	r3, #1
 8005352:	f880 3074 	strb.w	r3, [r0, #116]	; 0x74
 8005356:	2300      	movs	r3, #0
 8005358:	6804      	ldr	r4, [r0, #0]
 800535a:	6603      	str	r3, [r0, #96]	; 0x60
 800535c:	4b0a      	ldr	r3, [pc, #40]	; (8005388 <HAL_UART_Receive_DMA+0x4c>)
 800535e:	429c      	cmp	r4, r3
 8005360:	d00a      	beq.n	8005378 <HAL_UART_Receive_DMA+0x3c>
 8005362:	6863      	ldr	r3, [r4, #4]
 8005364:	021b      	lsls	r3, r3, #8
 8005366:	d507      	bpl.n	8005378 <HAL_UART_Receive_DMA+0x3c>
 8005368:	e854 3f00 	ldrex	r3, [r4]
 800536c:	f043 6380 	orr.w	r3, r3, #67108864	; 0x4000000
 8005370:	e844 3500 	strex	r5, r3, [r4]
 8005374:	2d00      	cmp	r5, #0
 8005376:	d1f7      	bne.n	8005368 <HAL_UART_Receive_DMA+0x2c>
 8005378:	bc30      	pop	{r4, r5}
 800537a:	f7ff bf8d 	b.w	8005298 <UART_Start_Receive_DMA>
 800537e:	2001      	movs	r0, #1
 8005380:	bc30      	pop	{r4, r5}
 8005382:	4770      	bx	lr
 8005384:	2002      	movs	r0, #2
 8005386:	e7fb      	b.n	8005380 <HAL_UART_Receive_DMA+0x44>
 8005388:	40008000 	.word	0x40008000

0800538c <__libc_init_array>:
 800538c:	b570      	push	{r4, r5, r6, lr}
 800538e:	4d0d      	ldr	r5, [pc, #52]	; (80053c4 <__libc_init_array+0x38>)
 8005390:	4c0d      	ldr	r4, [pc, #52]	; (80053c8 <__libc_init_array+0x3c>)
 8005392:	1b64      	subs	r4, r4, r5
 8005394:	10a4      	asrs	r4, r4, #2
 8005396:	2600      	movs	r6, #0
 8005398:	42a6      	cmp	r6, r4
 800539a:	d109      	bne.n	80053b0 <__libc_init_array+0x24>
 800539c:	4d0b      	ldr	r5, [pc, #44]	; (80053cc <__libc_init_array+0x40>)
 800539e:	4c0c      	ldr	r4, [pc, #48]	; (80053d0 <__libc_init_array+0x44>)
 80053a0:	f000 f820 	bl	80053e4 <_init>
 80053a4:	1b64      	subs	r4, r4, r5
 80053a6:	10a4      	asrs	r4, r4, #2
 80053a8:	2600      	movs	r6, #0
 80053aa:	42a6      	cmp	r6, r4
 80053ac:	d105      	bne.n	80053ba <__libc_init_array+0x2e>
 80053ae:	bd70      	pop	{r4, r5, r6, pc}
 80053b0:	f855 3b04 	ldr.w	r3, [r5], #4
 80053b4:	4798      	blx	r3
 80053b6:	3601      	adds	r6, #1
 80053b8:	e7ee      	b.n	8005398 <__libc_init_array+0xc>
 80053ba:	f855 3b04 	ldr.w	r3, [r5], #4
 80053be:	4798      	blx	r3
 80053c0:	3601      	adds	r6, #1
 80053c2:	e7f2      	b.n	80053aa <__libc_init_array+0x1e>
 80053c4:	08005478 	.word	0x08005478
 80053c8:	08005478 	.word	0x08005478
 80053cc:	08005478 	.word	0x08005478
 80053d0:	0800547c 	.word	0x0800547c

080053d4 <memset>:
 80053d4:	4402      	add	r2, r0
 80053d6:	4603      	mov	r3, r0
 80053d8:	4293      	cmp	r3, r2
 80053da:	d100      	bne.n	80053de <memset+0xa>
 80053dc:	4770      	bx	lr
 80053de:	f803 1b01 	strb.w	r1, [r3], #1
 80053e2:	e7f9      	b.n	80053d8 <memset+0x4>

080053e4 <_init>:
 80053e4:	b5f8      	push	{r3, r4, r5, r6, r7, lr}
 80053e6:	bf00      	nop
 80053e8:	bcf8      	pop	{r3, r4, r5, r6, r7}
 80053ea:	bc08      	pop	{r3}
 80053ec:	469e      	mov	lr, r3
 80053ee:	4770      	bx	lr

080053f0 <_fini>:
 80053f0:	b5f8      	push	{r3, r4, r5, r6, r7, lr}
 80053f2:	bf00      	nop
 80053f4:	bcf8      	pop	{r3, r4, r5, r6, r7}
 80053f6:	bc08      	pop	{r3}
 80053f8:	469e      	mov	lr, r3
 80053fa:	4770      	bx	lr
