
SC4-LCD128x32.elf:     file format elf32-littlearm

Sections:
Idx Name          Size      VMA       LMA       File off  Algn
  0 .isr_vector   0000010c  08000000  08000000  00010000  2**0
                  CONTENTS, ALLOC, LOAD, READONLY, DATA
  1 .text         00001ee8  0800010c  0800010c  0001010c  2**2
                  CONTENTS, ALLOC, LOAD, READONLY, CODE
  2 .rodata       0000003c  08001ff4  08001ff4  00011ff4  2**0
                  CONTENTS, ALLOC, LOAD, READONLY, DATA
  3 .ARM.extab    00000000  08002030  08002030  00020010  2**0
                  CONTENTS
  4 .ARM          00000000  08002030  08002030  00020010  2**0
                  CONTENTS
  5 .preinit_array 00000000  08002030  08002030  00020010  2**0
                  CONTENTS, ALLOC, LOAD, DATA
  6 .init_array   00000004  08002030  08002030  00012030  2**2
                  CONTENTS, ALLOC, LOAD, DATA
  7 .fini_array   00000004  08002034  08002034  00012034  2**2
                  CONTENTS, ALLOC, LOAD, DATA
  8 .data         00000010  20000000  08002038  00020000  2**2
                  CONTENTS, ALLOC, LOAD, DATA
  9 .bss          00001180  20000010  08002048  00020010  2**2
                  ALLOC
 10 ._user_heap_stack 00000600  20001190  08002048  00021190  2**0
                  ALLOC
 11 .ARM.attributes 00000029  00000000  00000000  00020010  2**0
                  CONTENTS, READONLY
 12 .comment      0000007b  00000000  00000000  00020039  2**0
                  CONTENTS, READONLY
 13 .debug_frame  0000004c  00000000  00000000  000200b4  2**2
                  CONTENTS, READONLY, DEBUGGING

Disassembly of section .text:

0800010c <__do_global_dtors_aux>:
 800010c:	b510      	push	{r4, lr}
 800010e:	4c05      	ldr	r4, [pc, #20]	; (8000124 <__do_global_dtors_aux+0x18>)
 8000110:	7823      	ldrb	r3, [r4, #0]
 8000112:	b933      	cbnz	r3, 8000122 <__do_global_dtors_aux+0x16>
 8000114:	4b04      	ldr	r3, [pc, #16]	; (8000128 <__do_global_dtors_aux+0x1c>)
 8000116:	b113      	cbz	r3, 800011e <__do_global_dtors_aux+0x12>
 8000118:	4804      	ldr	r0, [pc, #16]	; (800012c <__do_global_dtors_aux+0x20>)
 800011a:	f3af 8000 	nop.w
 800011e:	2301      	movs	r3, #1
 8000120:	7023      	strb	r3, [r4, #0]
 8000122:	bd10      	pop	{r4, pc}
 8000124:	20000010 	.word	0x20000010
 8000128:	00000000 	.word	0x00000000
 800012c:	08001fdc 	.word	0x08001fdc

08000130 <frame_dummy>:
 8000130:	b508      	push	{r3, lr}
 8000132:	4b03      	ldr	r3, [pc, #12]	; (8000140 <frame_dummy+0x10>)
 8000134:	b11b      	cbz	r3, 800013e <frame_dummy+0xe>
 8000136:	4903      	ldr	r1, [pc, #12]	; (8000144 <frame_dummy+0x14>)
 8000138:	4803      	ldr	r0, [pc, #12]	; (8000148 <frame_dummy+0x18>)
 800013a:	f3af 8000 	nop.w
 800013e:	bd08      	pop	{r3, pc}
 8000140:	00000000 	.word	0x00000000
 8000144:	20000014 	.word	0x20000014
 8000148:	08001fdc 	.word	0x08001fdc

0800014c <SystemClock_Config>:
 800014c:	b570      	push	{r4, r5, r6, lr}
 800014e:	b094      	sub	sp, #80	; 0x50
 8000150:	2220      	movs	r2, #32
 8000152:	2100      	movs	r1, #0
 8000154:	a80b      	add	r0, sp, #44	; 0x2c
 8000156:	f001 ff39 	bl	8001fcc <memset>
 800015a:	2214      	movs	r2, #20
 800015c:	2410      	movs	r4, #16
 800015e:	eb0d 0002 	add.w	r0, sp, r2
 8000162:	2100      	movs	r1, #0
 8000164:	f001 ff32 	bl	8001fcc <memset>
 8000168:	4622      	mov	r2, r4
 800016a:	2100      	movs	r1, #0
 800016c:	a801      	add	r0, sp, #4
 800016e:	f001 ff2d 	bl	8001fcc <memset>
 8000172:	2502      	movs	r5, #2
 8000174:	2601      	movs	r6, #1
 8000176:	f44f 13a0 	mov.w	r3, #1310720	; 0x140000
 800017a:	a80a      	add	r0, sp, #40	; 0x28
 800017c:	e9cd 640e 	strd	r6, r4, [sp, #56]	; 0x38
 8000180:	9313      	str	r3, [sp, #76]	; 0x4c
 8000182:	2400      	movs	r4, #0
 8000184:	950a      	str	r5, [sp, #40]	; 0x28
 8000186:	9511      	str	r5, [sp, #68]	; 0x44
 8000188:	f001 f830 	bl	80011ec <HAL_RCC_OscConfig>
 800018c:	230f      	movs	r3, #15
 800018e:	4631      	mov	r1, r6
 8000190:	a805      	add	r0, sp, #20
 8000192:	e9cd 3505 	strd	r3, r5, [sp, #20]
 8000196:	e9cd 4407 	strd	r4, r4, [sp, #28]
 800019a:	9409      	str	r4, [sp, #36]	; 0x24
 800019c:	f001 f9fe 	bl	800159c <HAL_RCC_ClockConfig>
 80001a0:	a801      	add	r0, sp, #4
 80001a2:	9501      	str	r5, [sp, #4]
 80001a4:	9403      	str	r4, [sp, #12]
 80001a6:	f001 fab5 	bl	8001714 <HAL_RCCEx_PeriphCLKConfig>
 80001aa:	b014      	add	sp, #80	; 0x50
 80001ac:	bd70      	pop	{r4, r5, r6, pc}
	...

080001b0 <main>:
 80001b0:	e92d 47f0 	stmdb	sp!, {r4, r5, r6, r7, r8, r9, sl, lr}
 80001b4:	2710      	movs	r7, #16
 80001b6:	b08a      	sub	sp, #40	; 0x28
 80001b8:	f000 fb3c 	bl	8000834 <HAL_Init>
 80001bc:	f7ff ffc6 	bl	800014c <SystemClock_Config>
 80001c0:	463a      	mov	r2, r7
 80001c2:	2100      	movs	r1, #0
 80001c4:	a806      	add	r0, sp, #24
 80001c6:	f001 ff01 	bl	8001fcc <memset>
 80001ca:	4b9c      	ldr	r3, [pc, #624]	; (800043c <main+0x28c>)
 80001cc:	f640 0118 	movw	r1, #2072	; 0x818
 80001d0:	699a      	ldr	r2, [r3, #24]
 80001d2:	489b      	ldr	r0, [pc, #620]	; (8000440 <main+0x290>)
 80001d4:	f042 0204 	orr.w	r2, r2, #4
 80001d8:	619a      	str	r2, [r3, #24]
 80001da:	699a      	ldr	r2, [r3, #24]
 80001dc:	f04f 0801 	mov.w	r8, #1
 80001e0:	f002 0204 	and.w	r2, r2, #4
 80001e4:	9202      	str	r2, [sp, #8]
 80001e6:	9a02      	ldr	r2, [sp, #8]
 80001e8:	699a      	ldr	r2, [r3, #24]
 80001ea:	2400      	movs	r4, #0
 80001ec:	f042 0208 	orr.w	r2, r2, #8
 80001f0:	619a      	str	r2, [r3, #24]
 80001f2:	699b      	ldr	r3, [r3, #24]
 80001f4:	2200      	movs	r2, #0
 80001f6:	f003 0308 	and.w	r3, r3, #8
 80001fa:	9303      	str	r3, [sp, #12]
 80001fc:	9b03      	ldr	r3, [sp, #12]
 80001fe:	f000 ff43 	bl	8001088 <HAL_GPIO_WritePin>
 8000202:	f640 0318 	movw	r3, #2072	; 0x818
 8000206:	e9cd 3806 	strd	r3, r8, [sp, #24]
 800020a:	2302      	movs	r3, #2
 800020c:	a906      	add	r1, sp, #24
 800020e:	488c      	ldr	r0, [pc, #560]	; (8000440 <main+0x290>)
 8000210:	e9cd 4308 	strd	r4, r3, [sp, #32]
 8000214:	f000 fe52 	bl	8000ebc <HAL_GPIO_Init>
 8000218:	f44f 6200 	mov.w	r2, #2048	; 0x800
 800021c:	f44f 5980 	mov.w	r9, #4096	; 0x1000
 8000220:	4b88      	ldr	r3, [pc, #544]	; (8000444 <main+0x294>)
 8000222:	a906      	add	r1, sp, #24
 8000224:	4888      	ldr	r0, [pc, #544]	; (8000448 <main+0x298>)
 8000226:	e9cd 2306 	strd	r2, r3, [sp, #24]
 800022a:	9408      	str	r4, [sp, #32]
 800022c:	f000 fe46 	bl	8000ebc <HAL_GPIO_Init>
 8000230:	a906      	add	r1, sp, #24
 8000232:	4885      	ldr	r0, [pc, #532]	; (8000448 <main+0x298>)
 8000234:	4e85      	ldr	r6, [pc, #532]	; (800044c <main+0x29c>)
 8000236:	e9cd 9406 	strd	r9, r4, [sp, #24]
 800023a:	9408      	str	r4, [sp, #32]
 800023c:	f000 fe3e 	bl	8000ebc <HAL_GPIO_Init>
 8000240:	4b83      	ldr	r3, [pc, #524]	; (8000450 <main+0x2a0>)
 8000242:	f04f 0a08 	mov.w	sl, #8
 8000246:	6033      	str	r3, [r6, #0]
 8000248:	f44f 2340 	mov.w	r3, #786432	; 0xc0000
 800024c:	4630      	mov	r0, r6
 800024e:	61f3      	str	r3, [r6, #28]
 8000250:	f8c6 8010 	str.w	r8, [r6, #16]
 8000254:	60b4      	str	r4, [r6, #8]
 8000256:	7334      	strb	r4, [r6, #12]
 8000258:	7534      	strb	r4, [r6, #20]
 800025a:	6074      	str	r4, [r6, #4]
 800025c:	e9cd 4406 	strd	r4, r4, [sp, #24]
 8000260:	9408      	str	r4, [sp, #32]
 8000262:	f000 fcd7 	bl	8000c14 <HAL_ADC_Init>
 8000266:	a906      	add	r1, sp, #24
 8000268:	4630      	mov	r0, r6
 800026a:	e9cd a806 	strd	sl, r8, [sp, #24]
 800026e:	f8cd 8020 	str.w	r8, [sp, #32]
 8000272:	f000 fb91 	bl	8000998 <HAL_ADC_ConfigChannel>
 8000276:	4877      	ldr	r0, [pc, #476]	; (8000454 <main+0x2a4>)
 8000278:	4977      	ldr	r1, [pc, #476]	; (8000458 <main+0x2a8>)
 800027a:	4b78      	ldr	r3, [pc, #480]	; (800045c <main+0x2ac>)
 800027c:	e9c0 4402 	strd	r4, r4, [r0, #8]
 8000280:	e9c0 1300 	strd	r1, r3, [r0]
 8000284:	f44f 4380 	mov.w	r3, #16384	; 0x4000
 8000288:	e9c0 4406 	strd	r4, r4, [r0, #24]
 800028c:	e9c0 3404 	strd	r3, r4, [r0, #16]
 8000290:	6204      	str	r4, [r0, #32]
 8000292:	f000 feff 	bl	8001094 <HAL_I2C_Init>
 8000296:	f44f 33e1 	mov.w	r3, #115200	; 0x1c200
 800029a:	4871      	ldr	r0, [pc, #452]	; (8000460 <main+0x2b0>)
 800029c:	4d71      	ldr	r5, [pc, #452]	; (8000464 <main+0x2b4>)
 800029e:	e9c0 4402 	strd	r4, r4, [r0, #8]
 80002a2:	e9c0 5300 	strd	r5, r3, [r0]
 80002a6:	230c      	movs	r3, #12
 80002a8:	6104      	str	r4, [r0, #16]
 80002aa:	e9c0 3405 	strd	r3, r4, [r0, #20]
 80002ae:	61c4      	str	r4, [r0, #28]
 80002b0:	f001 fd86 	bl	8001dc0 <HAL_UART_Init>
 80002b4:	463a      	mov	r2, r7
 80002b6:	4621      	mov	r1, r4
 80002b8:	a806      	add	r0, sp, #24
 80002ba:	f001 fe87 	bl	8001fcc <memset>
 80002be:	4d6a      	ldr	r5, [pc, #424]	; (8000468 <main+0x2b8>)
 80002c0:	4b6a      	ldr	r3, [pc, #424]	; (800046c <main+0x2bc>)
 80002c2:	4628      	mov	r0, r5
 80002c4:	e9c5 3a00 	strd	r3, sl, [r5]
 80002c8:	f241 3388 	movw	r3, #5000	; 0x1388
 80002cc:	e9c5 3403 	strd	r3, r4, [r5, #12]
 80002d0:	2380      	movs	r3, #128	; 0x80
 80002d2:	60af      	str	r7, [r5, #8]
 80002d4:	61ab      	str	r3, [r5, #24]
 80002d6:	e9cd 4404 	strd	r4, r4, [sp, #16]
 80002da:	f001 fc11 	bl	8001b00 <HAL_TIM_Base_Init>
 80002de:	a906      	add	r1, sp, #24
 80002e0:	4628      	mov	r0, r5
 80002e2:	f8cd 9018 	str.w	r9, [sp, #24]
 80002e6:	f001 fc41 	bl	8001b6c <HAL_TIM_ConfigClockSource>
 80002ea:	eb0d 0107 	add.w	r1, sp, r7
 80002ee:	4628      	mov	r0, r5
 80002f0:	4f5f      	ldr	r7, [pc, #380]	; (8000470 <main+0x2c0>)
 80002f2:	e9cd 4404 	strd	r4, r4, [sp, #16]
 80002f6:	f001 fccd 	bl	8001c94 <HAL_TIMEx_MasterConfigSynchronization>
 80002fa:	4b5e      	ldr	r3, [pc, #376]	; (8000474 <main+0x2c4>)
 80002fc:	4638      	mov	r0, r7
 80002fe:	603b      	str	r3, [r7, #0]
 8000300:	f44f 2360 	mov.w	r3, #917504	; 0xe0000
 8000304:	f8c7 8010 	str.w	r8, [r7, #16]
 8000308:	61fb      	str	r3, [r7, #28]
 800030a:	60bc      	str	r4, [r7, #8]
 800030c:	733c      	strb	r4, [r7, #12]
 800030e:	753c      	strb	r4, [r7, #20]
 8000310:	607c      	str	r4, [r7, #4]
 8000312:	e9cd 4406 	strd	r4, r4, [sp, #24]
 8000316:	9408      	str	r4, [sp, #32]
 8000318:	f000 fc7c 	bl	8000c14 <HAL_ADC_Init>
 800031c:	2305      	movs	r3, #5
 800031e:	a906      	add	r1, sp, #24
 8000320:	4638      	mov	r0, r7
 8000322:	e9cd 3806 	strd	r3, r8, [sp, #24]
 8000326:	9408      	str	r4, [sp, #32]
 8000328:	f000 fb36 	bl	8000998 <HAL_ADC_ConfigChannel>
 800032c:	4630      	mov	r0, r6
 800032e:	f000 fcf1 	bl	8000d14 <HAL_ADCEx_Calibration_Start>
 8000332:	4b51      	ldr	r3, [pc, #324]	; (8000478 <main+0x2c8>)
 8000334:	4f51      	ldr	r7, [pc, #324]	; (800047c <main+0x2cc>)
 8000336:	881a      	ldrh	r2, [r3, #0]
 8000338:	789b      	ldrb	r3, [r3, #2]
 800033a:	f8ad 2010 	strh.w	r2, [sp, #16]
 800033e:	f88d 3012 	strb.w	r3, [sp, #18]
 8000342:	f000 fa95 	bl	8000870 <HAL_GetTick>
 8000346:	4606      	mov	r6, r0
 8000348:	4b4d      	ldr	r3, [pc, #308]	; (8000480 <main+0x2d0>)
 800034a:	4642      	mov	r2, r8
 800034c:	2104      	movs	r1, #4
 800034e:	483c      	ldr	r0, [pc, #240]	; (8000440 <main+0x290>)
 8000350:	601c      	str	r4, [r3, #0]
 8000352:	f000 fe99 	bl	8001088 <HAL_GPIO_WritePin>
 8000356:	4628      	mov	r0, r5
 8000358:	f001 fac8 	bl	80018ec <HAL_TIM_Base_Start_IT>
 800035c:	46b1      	mov	r9, r6
 800035e:	f8df 8128 	ldr.w	r8, [pc, #296]	; 8000488 <main+0x2d8>
 8000362:	f898 3000 	ldrb.w	r3, [r8]
 8000366:	b173      	cbz	r3, 8000386 <main+0x1d6>
 8000368:	f000 fa82 	bl	8000870 <HAL_GetTick>
 800036c:	1b80      	subs	r0, r0, r6
 800036e:	f5b0 6ffa 	cmp.w	r0, #2000	; 0x7d0
 8000372:	d908      	bls.n	8000386 <main+0x1d6>
 8000374:	2300      	movs	r3, #0
 8000376:	4835      	ldr	r0, [pc, #212]	; (800044c <main+0x29c>)
 8000378:	f888 3000 	strb.w	r3, [r8]
 800037c:	f000 fbc2 	bl	8000b04 <HAL_ADC_Start_IT>
 8000380:	f000 fa76 	bl	8000870 <HAL_GetTick>
 8000384:	4681      	mov	r9, r0
 8000386:	f44f 5180 	mov.w	r1, #4096	; 0x1000
 800038a:	482f      	ldr	r0, [pc, #188]	; (8000448 <main+0x298>)
 800038c:	f000 fe76 	bl	800107c <HAL_GPIO_ReadPin>
 8000390:	2801      	cmp	r0, #1
 8000392:	d1e6      	bne.n	8000362 <main+0x1b2>
 8000394:	f44f 737a 	mov.w	r3, #1000	; 0x3e8
 8000398:	2203      	movs	r2, #3
 800039a:	a904      	add	r1, sp, #16
 800039c:	4830      	ldr	r0, [pc, #192]	; (8000460 <main+0x2b0>)
 800039e:	f001 fd3d 	bl	8001e1c <HAL_UART_Transmit>
 80003a2:	f000 fa65 	bl	8000870 <HAL_GetTick>
 80003a6:	f44f 737a 	mov.w	r3, #1000	; 0x3e8
 80003aa:	eba0 0009 	sub.w	r0, r0, r9
 80003ae:	fbb0 f0f3 	udiv	r0, r0, r3
 80003b2:	2400      	movs	r4, #0
 80003b4:	8038      	strh	r0, [r7, #0]
 80003b6:	2014      	movs	r0, #20
 80003b8:	f000 fa60 	bl	800087c <HAL_Delay>
 80003bc:	4625      	mov	r5, r4
 80003be:	f8df a0a0 	ldr.w	sl, [pc, #160]	; 8000460 <main+0x2b0>
 80003c2:	f837 3014 	ldrh.w	r3, [r7, r4, lsl #1]
 80003c6:	a90a      	add	r1, sp, #40	; 0x28
 80003c8:	f88d 3006 	strb.w	r3, [sp, #6]
 80003cc:	0a1b      	lsrs	r3, r3, #8
 80003ce:	f801 3d21 	strb.w	r3, [r1, #-33]!
 80003d2:	2201      	movs	r2, #1
 80003d4:	f44f 737a 	mov.w	r3, #1000	; 0x3e8
 80003d8:	4650      	mov	r0, sl
 80003da:	f001 fd1f 	bl	8001e1c <HAL_UART_Transmit>
 80003de:	f44f 737a 	mov.w	r3, #1000	; 0x3e8
 80003e2:	2201      	movs	r2, #1
 80003e4:	f10d 0106 	add.w	r1, sp, #6
 80003e8:	4650      	mov	r0, sl
 80003ea:	f001 fd17 	bl	8001e1c <HAL_UART_Transmit>
 80003ee:	2d08      	cmp	r5, #8
 80003f0:	dc1e      	bgt.n	8000430 <main+0x280>
 80003f2:	3501      	adds	r5, #1
 80003f4:	3401      	adds	r4, #1
 80003f6:	f5b4 6f82 	cmp.w	r4, #1040	; 0x410
 80003fa:	d1e2      	bne.n	80003c2 <main+0x212>
 80003fc:	230a      	movs	r3, #10
 80003fe:	a906      	add	r1, sp, #24
 8000400:	461a      	mov	r2, r3
 8000402:	4817      	ldr	r0, [pc, #92]	; (8000460 <main+0x2b0>)
 8000404:	f001 fd61 	bl	8001eca <HAL_UART_Receive>
 8000408:	2800      	cmp	r0, #0
 800040a:	d1aa      	bne.n	8000362 <main+0x1b2>
 800040c:	f89d 3018 	ldrb.w	r3, [sp, #24]
 8000410:	2b43      	cmp	r3, #67	; 0x43
 8000412:	d1a6      	bne.n	8000362 <main+0x1b2>
 8000414:	4604      	mov	r4, r0
 8000416:	f640 0302 	movw	r3, #2050	; 0x802
 800041a:	f827 4010 	strh.w	r4, [r7, r0, lsl #1]
 800041e:	3001      	adds	r0, #1
 8000420:	4298      	cmp	r0, r3
 8000422:	d1fa      	bne.n	800041a <main+0x26a>
 8000424:	f000 fa24 	bl	8000870 <HAL_GetTick>
 8000428:	4b16      	ldr	r3, [pc, #88]	; (8000484 <main+0x2d4>)
 800042a:	4681      	mov	r9, r0
 800042c:	601c      	str	r4, [r3, #0]
 800042e:	e798      	b.n	8000362 <main+0x1b2>
 8000430:	2014      	movs	r0, #20
 8000432:	f000 fa23 	bl	800087c <HAL_Delay>
 8000436:	2500      	movs	r5, #0
 8000438:	e7dc      	b.n	80003f4 <main+0x244>
 800043a:	bf00      	nop
 800043c:	40021000 	.word	0x40021000
 8000440:	40010800 	.word	0x40010800
 8000444:	10110000 	.word	0x10110000
 8000448:	40010c00 	.word	0x40010c00
 800044c:	2000111c 	.word	0x2000111c
 8000450:	40012400 	.word	0x40012400
 8000454:	2000106c 	.word	0x2000106c
 8000458:	40005400 	.word	0x40005400
 800045c:	00061a80 	.word	0x00061a80
 8000460:	2000114c 	.word	0x2000114c
 8000464:	40013800 	.word	0x40013800
 8000468:	200010d4 	.word	0x200010d4
 800046c:	40000400 	.word	0x40000400
 8000470:	2000103c 	.word	0x2000103c
 8000474:	40012800 	.word	0x40012800
 8000478:	08001ff4 	.word	0x08001ff4
 800047c:	20000038 	.word	0x20000038
 8000480:	20000034 	.word	0x20000034
 8000484:	20000030 	.word	0x20000030
 8000488:	20000000 	.word	0x20000000

0800048c <HAL_MspInit>:
 800048c:	4b0e      	ldr	r3, [pc, #56]	; (80004c8 <HAL_MspInit+0x3c>)
 800048e:	b082      	sub	sp, #8
 8000490:	699a      	ldr	r2, [r3, #24]
 8000492:	f042 0201 	orr.w	r2, r2, #1
 8000496:	619a      	str	r2, [r3, #24]
 8000498:	699a      	ldr	r2, [r3, #24]
 800049a:	f002 0201 	and.w	r2, r2, #1
 800049e:	9200      	str	r2, [sp, #0]
 80004a0:	9a00      	ldr	r2, [sp, #0]
 80004a2:	69da      	ldr	r2, [r3, #28]
 80004a4:	f042 5280 	orr.w	r2, r2, #268435456	; 0x10000000
 80004a8:	61da      	str	r2, [r3, #28]
 80004aa:	69db      	ldr	r3, [r3, #28]
 80004ac:	4a07      	ldr	r2, [pc, #28]	; (80004cc <HAL_MspInit+0x40>)
 80004ae:	f003 5380 	and.w	r3, r3, #268435456	; 0x10000000
 80004b2:	9301      	str	r3, [sp, #4]
 80004b4:	9b01      	ldr	r3, [sp, #4]
 80004b6:	6853      	ldr	r3, [r2, #4]
 80004b8:	f023 63e0 	bic.w	r3, r3, #117440512	; 0x7000000
 80004bc:	f043 6380 	orr.w	r3, r3, #67108864	; 0x4000000
 80004c0:	6053      	str	r3, [r2, #4]
 80004c2:	b002      	add	sp, #8
 80004c4:	4770      	bx	lr
 80004c6:	bf00      	nop
 80004c8:	40021000 	.word	0x40021000
 80004cc:	40010000 	.word	0x40010000

080004d0 <HAL_ADC_MspInit>:
 80004d0:	2210      	movs	r2, #16
 80004d2:	b510      	push	{r4, lr}
 80004d4:	4604      	mov	r4, r0
 80004d6:	b088      	sub	sp, #32
 80004d8:	eb0d 0002 	add.w	r0, sp, r2
 80004dc:	2100      	movs	r1, #0
 80004de:	f001 fd75 	bl	8001fcc <memset>
 80004e2:	6823      	ldr	r3, [r4, #0]
 80004e4:	4a22      	ldr	r2, [pc, #136]	; (8000570 <HAL_ADC_MspInit+0xa0>)
 80004e6:	4293      	cmp	r3, r2
 80004e8:	d124      	bne.n	8000534 <HAL_ADC_MspInit+0x64>
 80004ea:	4b22      	ldr	r3, [pc, #136]	; (8000574 <HAL_ADC_MspInit+0xa4>)
 80004ec:	2101      	movs	r1, #1
 80004ee:	699a      	ldr	r2, [r3, #24]
 80004f0:	4821      	ldr	r0, [pc, #132]	; (8000578 <HAL_ADC_MspInit+0xa8>)
 80004f2:	f442 7200 	orr.w	r2, r2, #512	; 0x200
 80004f6:	619a      	str	r2, [r3, #24]
 80004f8:	699a      	ldr	r2, [r3, #24]
 80004fa:	f402 7200 	and.w	r2, r2, #512	; 0x200
 80004fe:	9200      	str	r2, [sp, #0]
 8000500:	9a00      	ldr	r2, [sp, #0]
 8000502:	699a      	ldr	r2, [r3, #24]
 8000504:	f042 0208 	orr.w	r2, r2, #8
 8000508:	619a      	str	r2, [r3, #24]
 800050a:	699b      	ldr	r3, [r3, #24]
 800050c:	f003 0308 	and.w	r3, r3, #8
 8000510:	9301      	str	r3, [sp, #4]
 8000512:	9b01      	ldr	r3, [sp, #4]
 8000514:	2303      	movs	r3, #3
 8000516:	e9cd 1304 	strd	r1, r3, [sp, #16]
 800051a:	a904      	add	r1, sp, #16
 800051c:	f000 fcce 	bl	8000ebc <HAL_GPIO_Init>
 8000520:	2200      	movs	r2, #0
 8000522:	2012      	movs	r0, #18
 8000524:	4611      	mov	r1, r2
 8000526:	f000 fc71 	bl	8000e0c <HAL_NVIC_SetPriority>
 800052a:	2012      	movs	r0, #18
 800052c:	f000 fca2 	bl	8000e74 <HAL_NVIC_EnableIRQ>
 8000530:	b008      	add	sp, #32
 8000532:	bd10      	pop	{r4, pc}
 8000534:	4a11      	ldr	r2, [pc, #68]	; (800057c <HAL_ADC_MspInit+0xac>)
 8000536:	4293      	cmp	r3, r2
 8000538:	d1fa      	bne.n	8000530 <HAL_ADC_MspInit+0x60>
 800053a:	4b0e      	ldr	r3, [pc, #56]	; (8000574 <HAL_ADC_MspInit+0xa4>)
 800053c:	a904      	add	r1, sp, #16
 800053e:	699a      	ldr	r2, [r3, #24]
 8000540:	480f      	ldr	r0, [pc, #60]	; (8000580 <HAL_ADC_MspInit+0xb0>)
 8000542:	f442 6280 	orr.w	r2, r2, #1024	; 0x400
 8000546:	619a      	str	r2, [r3, #24]
 8000548:	699a      	ldr	r2, [r3, #24]
 800054a:	f402 6280 	and.w	r2, r2, #1024	; 0x400
 800054e:	9202      	str	r2, [sp, #8]
 8000550:	9a02      	ldr	r2, [sp, #8]
 8000552:	699a      	ldr	r2, [r3, #24]
 8000554:	f042 0204 	orr.w	r2, r2, #4
 8000558:	619a      	str	r2, [r3, #24]
 800055a:	699b      	ldr	r3, [r3, #24]
 800055c:	2220      	movs	r2, #32
 800055e:	f003 0304 	and.w	r3, r3, #4
 8000562:	9303      	str	r3, [sp, #12]
 8000564:	9b03      	ldr	r3, [sp, #12]
 8000566:	2303      	movs	r3, #3
 8000568:	e9cd 2304 	strd	r2, r3, [sp, #16]
 800056c:	e7d6      	b.n	800051c <HAL_ADC_MspInit+0x4c>
 800056e:	bf00      	nop
 8000570:	40012400 	.word	0x40012400
 8000574:	40021000 	.word	0x40021000
 8000578:	40010c00 	.word	0x40010c00
 800057c:	40012800 	.word	0x40012800
 8000580:	40010800 	.word	0x40010800

08000584 <HAL_I2C_MspInit>:
 8000584:	b510      	push	{r4, lr}
 8000586:	4604      	mov	r4, r0
 8000588:	b086      	sub	sp, #24
 800058a:	2210      	movs	r2, #16
 800058c:	2100      	movs	r1, #0
 800058e:	a802      	add	r0, sp, #8
 8000590:	f001 fd1c 	bl	8001fcc <memset>
 8000594:	6822      	ldr	r2, [r4, #0]
 8000596:	4b11      	ldr	r3, [pc, #68]	; (80005dc <HAL_I2C_MspInit+0x58>)
 8000598:	429a      	cmp	r2, r3
 800059a:	d11c      	bne.n	80005d6 <HAL_I2C_MspInit+0x52>
 800059c:	4c10      	ldr	r4, [pc, #64]	; (80005e0 <HAL_I2C_MspInit+0x5c>)
 800059e:	22c0      	movs	r2, #192	; 0xc0
 80005a0:	69a3      	ldr	r3, [r4, #24]
 80005a2:	a902      	add	r1, sp, #8
 80005a4:	f043 0308 	orr.w	r3, r3, #8
 80005a8:	61a3      	str	r3, [r4, #24]
 80005aa:	69a3      	ldr	r3, [r4, #24]
 80005ac:	480d      	ldr	r0, [pc, #52]	; (80005e4 <HAL_I2C_MspInit+0x60>)
 80005ae:	f003 0308 	and.w	r3, r3, #8
 80005b2:	9300      	str	r3, [sp, #0]
 80005b4:	9b00      	ldr	r3, [sp, #0]
 80005b6:	2312      	movs	r3, #18
 80005b8:	e9cd 2302 	strd	r2, r3, [sp, #8]
 80005bc:	2303      	movs	r3, #3
 80005be:	9305      	str	r3, [sp, #20]
 80005c0:	f000 fc7c 	bl	8000ebc <HAL_GPIO_Init>
 80005c4:	69e3      	ldr	r3, [r4, #28]
 80005c6:	f443 1300 	orr.w	r3, r3, #2097152	; 0x200000
 80005ca:	61e3      	str	r3, [r4, #28]
 80005cc:	69e3      	ldr	r3, [r4, #28]
 80005ce:	f403 1300 	and.w	r3, r3, #2097152	; 0x200000
 80005d2:	9301      	str	r3, [sp, #4]
 80005d4:	9b01      	ldr	r3, [sp, #4]
 80005d6:	b006      	add	sp, #24
 80005d8:	bd10      	pop	{r4, pc}
 80005da:	bf00      	nop
 80005dc:	40005400 	.word	0x40005400
 80005e0:	40021000 	.word	0x40021000
 80005e4:	40010c00 	.word	0x40010c00

080005e8 <HAL_TIM_Base_MspInit>:
 80005e8:	b507      	push	{r0, r1, r2, lr}
 80005ea:	4b0e      	ldr	r3, [pc, #56]	; (8000624 <HAL_TIM_Base_MspInit+0x3c>)
 80005ec:	6802      	ldr	r2, [r0, #0]
 80005ee:	429a      	cmp	r2, r3
 80005f0:	d115      	bne.n	800061e <HAL_TIM_Base_MspInit+0x36>
 80005f2:	f503 3303 	add.w	r3, r3, #134144	; 0x20c00
 80005f6:	69da      	ldr	r2, [r3, #28]
 80005f8:	2101      	movs	r1, #1
 80005fa:	f042 0202 	orr.w	r2, r2, #2
 80005fe:	61da      	str	r2, [r3, #28]
 8000600:	69db      	ldr	r3, [r3, #28]
 8000602:	2200      	movs	r2, #0
 8000604:	f003 0302 	and.w	r3, r3, #2
 8000608:	9301      	str	r3, [sp, #4]
 800060a:	201d      	movs	r0, #29
 800060c:	9b01      	ldr	r3, [sp, #4]
 800060e:	f000 fbfd 	bl	8000e0c <HAL_NVIC_SetPriority>
 8000612:	201d      	movs	r0, #29
 8000614:	b003      	add	sp, #12
 8000616:	f85d eb04 	ldr.w	lr, [sp], #4
 800061a:	f000 bc2b 	b.w	8000e74 <HAL_NVIC_EnableIRQ>
 800061e:	b003      	add	sp, #12
 8000620:	f85d fb04 	ldr.w	pc, [sp], #4
 8000624:	40000400 	.word	0x40000400

08000628 <HAL_UART_MspInit>:
 8000628:	b510      	push	{r4, lr}
 800062a:	4604      	mov	r4, r0
 800062c:	b086      	sub	sp, #24
 800062e:	2210      	movs	r2, #16
 8000630:	2100      	movs	r1, #0
 8000632:	a802      	add	r0, sp, #8
 8000634:	f001 fcca 	bl	8001fcc <memset>
 8000638:	6822      	ldr	r2, [r4, #0]
 800063a:	4b17      	ldr	r3, [pc, #92]	; (8000698 <HAL_UART_MspInit+0x70>)
 800063c:	429a      	cmp	r2, r3
 800063e:	d128      	bne.n	8000692 <HAL_UART_MspInit+0x6a>
 8000640:	f503 4358 	add.w	r3, r3, #55296	; 0xd800
 8000644:	699a      	ldr	r2, [r3, #24]
 8000646:	a902      	add	r1, sp, #8
 8000648:	f442 4280 	orr.w	r2, r2, #16384	; 0x4000
 800064c:	619a      	str	r2, [r3, #24]
 800064e:	699a      	ldr	r2, [r3, #24]
 8000650:	4812      	ldr	r0, [pc, #72]	; (800069c <HAL_UART_MspInit+0x74>)
 8000652:	f402 4280 	and.w	r2, r2, #16384	; 0x4000
 8000656:	9200      	str	r2, [sp, #0]
 8000658:	9a00      	ldr	r2, [sp, #0]
 800065a:	699a      	ldr	r2, [r3, #24]
 800065c:	f042 0204 	orr.w	r2, r2, #4
 8000660:	619a      	str	r2, [r3, #24]
 8000662:	699b      	ldr	r3, [r3, #24]
 8000664:	f44f 7200 	mov.w	r2, #512	; 0x200
 8000668:	f003 0304 	and.w	r3, r3, #4
 800066c:	9301      	str	r3, [sp, #4]
 800066e:	9b01      	ldr	r3, [sp, #4]
 8000670:	2302      	movs	r3, #2
 8000672:	e9cd 2302 	strd	r2, r3, [sp, #8]
 8000676:	2303      	movs	r3, #3
 8000678:	9305      	str	r3, [sp, #20]
 800067a:	f000 fc1f 	bl	8000ebc <HAL_GPIO_Init>
 800067e:	f44f 6180 	mov.w	r1, #1024	; 0x400
 8000682:	2300      	movs	r3, #0
 8000684:	4805      	ldr	r0, [pc, #20]	; (800069c <HAL_UART_MspInit+0x74>)
 8000686:	e9cd 1302 	strd	r1, r3, [sp, #8]
 800068a:	a902      	add	r1, sp, #8
 800068c:	9304      	str	r3, [sp, #16]
 800068e:	f000 fc15 	bl	8000ebc <HAL_GPIO_Init>
 8000692:	b006      	add	sp, #24
 8000694:	bd10      	pop	{r4, pc}
 8000696:	bf00      	nop
 8000698:	40013800 	.word	0x40013800
 800069c:	40010800 	.word	0x40010800

080006a0 <NMI_Handler>:
 80006a0:	4770      	bx	lr

080006a2 <HardFault_Handler>:
 80006a2:	e7fe      	b.n	80006a2 <HardFault_Handler>

080006a4 <MemManage_Handler>:
 80006a4:	e7fe      	b.n	80006a4 <MemManage_Handler>

080006a6 <BusFault_Handler>:
 80006a6:	e7fe      	b.n	80006a6 <BusFault_Handler>

080006a8 <UsageFault_Handler>:
 80006a8:	e7fe      	b.n	80006a8 <UsageFault_Handler>

080006aa <SVC_Handler>:
 80006aa:	4770      	bx	lr

080006ac <DebugMon_Handler>:
 80006ac:	4770      	bx	lr

080006ae <PendSV_Handler>:
 80006ae:	4770      	bx	lr

080006b0 <SysTick_Handler>:
 80006b0:	f000 b8d2 	b.w	8000858 <HAL_IncTick>

080006b4 <ADC1_2_IRQHandler>:
 80006b4:	b508      	push	{r3, lr}
 80006b6:	4817      	ldr	r0, [pc, #92]	; (8000714 <ADC1_2_IRQHandler+0x60>)
 80006b8:	f000 f8f7 	bl	80008aa <HAL_ADC_IRQHandler>
 80006bc:	4816      	ldr	r0, [pc, #88]	; (8000718 <ADC1_2_IRQHandler+0x64>)
 80006be:	f000 f8f4 	bl	80008aa <HAL_ADC_IRQHandler>
 80006c2:	4814      	ldr	r0, [pc, #80]	; (8000714 <ADC1_2_IRQHandler+0x60>)
 80006c4:	f000 f8ec 	bl	80008a0 <HAL_ADC_GetValue>
 80006c8:	b280      	uxth	r0, r0
 80006ca:	4b14      	ldr	r3, [pc, #80]	; (800071c <ADC1_2_IRQHandler+0x68>)
 80006cc:	b908      	cbnz	r0, 80006d2 <ADC1_2_IRQHandler+0x1e>
 80006ce:	8018      	strh	r0, [r3, #0]
 80006d0:	bd08      	pop	{r3, pc}
 80006d2:	f64f 71ff 	movw	r1, #65535	; 0xffff
 80006d6:	4a12      	ldr	r2, [pc, #72]	; (8000720 <ADC1_2_IRQHandler+0x6c>)
 80006d8:	f3c0 0089 	ubfx	r0, r0, #2, #10
 80006dc:	3002      	adds	r0, #2
 80006de:	8018      	strh	r0, [r3, #0]
 80006e0:	f832 3010 	ldrh.w	r3, [r2, r0, lsl #1]
 80006e4:	428b      	cmp	r3, r1
 80006e6:	bf1c      	itt	ne
 80006e8:	3301      	addne	r3, #1
 80006ea:	f822 3010 	strhne.w	r3, [r2, r0, lsl #1]
 80006ee:	4a0d      	ldr	r2, [pc, #52]	; (8000724 <ADC1_2_IRQHandler+0x70>)
 80006f0:	480d      	ldr	r0, [pc, #52]	; (8000728 <ADC1_2_IRQHandler+0x74>)
 80006f2:	6813      	ldr	r3, [r2, #0]
 80006f4:	2104      	movs	r1, #4
 80006f6:	3301      	adds	r3, #1
 80006f8:	6013      	str	r3, [r2, #0]
 80006fa:	4a0c      	ldr	r2, [pc, #48]	; (800072c <ADC1_2_IRQHandler+0x78>)
 80006fc:	6813      	ldr	r3, [r2, #0]
 80006fe:	3301      	adds	r3, #1
 8000700:	6013      	str	r3, [r2, #0]
 8000702:	2201      	movs	r2, #1
 8000704:	f000 fcc0 	bl	8001088 <HAL_GPIO_WritePin>
 8000708:	e8bd 4008 	ldmia.w	sp!, {r3, lr}
 800070c:	4808      	ldr	r0, [pc, #32]	; (8000730 <ADC1_2_IRQHandler+0x7c>)
 800070e:	f001 b8ed 	b.w	80018ec <HAL_TIM_Base_Start_IT>
 8000712:	bf00      	nop
 8000714:	2000111c 	.word	0x2000111c
 8000718:	2000103c 	.word	0x2000103c
 800071c:	2000002c 	.word	0x2000002c
 8000720:	20000038 	.word	0x20000038
 8000724:	20000034 	.word	0x20000034
 8000728:	40010800 	.word	0x40010800
 800072c:	20000030 	.word	0x20000030
 8000730:	200010d4 	.word	0x200010d4

08000734 <TIM3_IRQHandler>:
 8000734:	b508      	push	{r3, lr}
 8000736:	4805      	ldr	r0, [pc, #20]	; (800074c <TIM3_IRQHandler+0x18>)
 8000738:	2200      	movs	r2, #0
 800073a:	2104      	movs	r1, #4
 800073c:	f000 fca4 	bl	8001088 <HAL_GPIO_WritePin>
 8000740:	e8bd 4008 	ldmia.w	sp!, {r3, lr}
 8000744:	4802      	ldr	r0, [pc, #8]	; (8000750 <TIM3_IRQHandler+0x1c>)
 8000746:	f001 b900 	b.w	800194a <HAL_TIM_IRQHandler>
 800074a:	bf00      	nop
 800074c:	40010800 	.word	0x40010800
 8000750:	200010d4 	.word	0x200010d4

08000754 <SystemInit>:
 8000754:	4b0f      	ldr	r3, [pc, #60]	; (8000794 <SystemInit+0x40>)
 8000756:	681a      	ldr	r2, [r3, #0]
 8000758:	f042 0201 	orr.w	r2, r2, #1
 800075c:	601a      	str	r2, [r3, #0]
 800075e:	6859      	ldr	r1, [r3, #4]
 8000760:	4a0d      	ldr	r2, [pc, #52]	; (8000798 <SystemInit+0x44>)
 8000762:	400a      	ands	r2, r1
 8000764:	605a      	str	r2, [r3, #4]
 8000766:	681a      	ldr	r2, [r3, #0]
 8000768:	f022 7284 	bic.w	r2, r2, #17301504	; 0x1080000
 800076c:	f422 3280 	bic.w	r2, r2, #65536	; 0x10000
 8000770:	601a      	str	r2, [r3, #0]
 8000772:	681a      	ldr	r2, [r3, #0]
 8000774:	f422 2280 	bic.w	r2, r2, #262144	; 0x40000
 8000778:	601a      	str	r2, [r3, #0]
 800077a:	685a      	ldr	r2, [r3, #4]
 800077c:	f422 02fe 	bic.w	r2, r2, #8323072	; 0x7f0000
 8000780:	605a      	str	r2, [r3, #4]
 8000782:	f44f 021f 	mov.w	r2, #10420224	; 0x9f0000
 8000786:	609a      	str	r2, [r3, #8]
 8000788:	f04f 6200 	mov.w	r2, #134217728	; 0x8000000
 800078c:	4b03      	ldr	r3, [pc, #12]	; (800079c <SystemInit+0x48>)
 800078e:	609a      	str	r2, [r3, #8]
 8000790:	4770      	bx	lr
 8000792:	bf00      	nop
 8000794:	40021000 	.word	0x40021000
 8000798:	f8ff0000 	.word	0xf8ff0000
 800079c:	e000ed00 	.word	0xe000ed00

080007a0 <Reset_Handler>:
 80007a0:	2100      	movs	r1, #0
 80007a2:	e003      	b.n	80007ac <LoopCopyDataInit>

080007a4 <CopyDataInit>:
 80007a4:	4b0b      	ldr	r3, [pc, #44]	; (80007d4 <LoopFillZerobss+0x14>)
 80007a6:	585b      	ldr	r3, [r3, r1]
 80007a8:	5043      	str	r3, [r0, r1]
 80007aa:	3104      	adds	r1, #4

080007ac <LoopCopyDataInit>:
 80007ac:	480a      	ldr	r0, [pc, #40]	; (80007d8 <LoopFillZerobss+0x18>)
 80007ae:	4b0b      	ldr	r3, [pc, #44]	; (80007dc <LoopFillZerobss+0x1c>)
 80007b0:	1842      	adds	r2, r0, r1
 80007b2:	429a      	cmp	r2, r3
 80007b4:	d3f6      	bcc.n	80007a4 <CopyDataInit>
 80007b6:	4a0a      	ldr	r2, [pc, #40]	; (80007e0 <LoopFillZerobss+0x20>)
 80007b8:	e002      	b.n	80007c0 <LoopFillZerobss>

080007ba <FillZerobss>:
 80007ba:	2300      	movs	r3, #0
 80007bc:	f842 3b04 	str.w	r3, [r2], #4

080007c0 <LoopFillZerobss>:
 80007c0:	4b08      	ldr	r3, [pc, #32]	; (80007e4 <LoopFillZerobss+0x24>)
 80007c2:	429a      	cmp	r2, r3
 80007c4:	d3f9      	bcc.n	80007ba <FillZerobss>
 80007c6:	f7ff ffc5 	bl	8000754 <SystemInit>
 80007ca:	f001 fbdb 	bl	8001f84 <__libc_init_array>
 80007ce:	f7ff fcef 	bl	80001b0 <main>
 80007d2:	4770      	bx	lr
 80007d4:	08002038 	.word	0x08002038
 80007d8:	20000000 	.word	0x20000000
 80007dc:	20000010 	.word	0x20000010
 80007e0:	20000010 	.word	0x20000010
 80007e4:	20001190 	.word	0x20001190

080007e8 <CAN1_RX1_IRQHandler>:
 80007e8:	e7fe      	b.n	80007e8 <CAN1_RX1_IRQHandler>
	...

080007ec <HAL_InitTick>:
 80007ec:	b538      	push	{r3, r4, r5, lr}
 80007ee:	4b0e      	ldr	r3, [pc, #56]	; (8000828 <HAL_InitTick+0x3c>)
 80007f0:	4605      	mov	r5, r0
 80007f2:	7818      	ldrb	r0, [r3, #0]
 80007f4:	f44f 737a 	mov.w	r3, #1000	; 0x3e8
 80007f8:	fbb3 f3f0 	udiv	r3, r3, r0
 80007fc:	4a0b      	ldr	r2, [pc, #44]	; (800082c <HAL_InitTick+0x40>)
 80007fe:	6810      	ldr	r0, [r2, #0]
 8000800:	fbb0 f0f3 	udiv	r0, r0, r3
 8000804:	f000 fb44 	bl	8000e90 <HAL_SYSTICK_Config>
 8000808:	4604      	mov	r4, r0
 800080a:	b958      	cbnz	r0, 8000824 <HAL_InitTick+0x38>
 800080c:	2d0f      	cmp	r5, #15
 800080e:	d809      	bhi.n	8000824 <HAL_InitTick+0x38>
 8000810:	4602      	mov	r2, r0
 8000812:	4629      	mov	r1, r5
 8000814:	f04f 30ff 	mov.w	r0, #4294967295	; 0xffffffff
 8000818:	f000 faf8 	bl	8000e0c <HAL_NVIC_SetPriority>
 800081c:	4620      	mov	r0, r4
 800081e:	4b04      	ldr	r3, [pc, #16]	; (8000830 <HAL_InitTick+0x44>)
 8000820:	601d      	str	r5, [r3, #0]
 8000822:	bd38      	pop	{r3, r4, r5, pc}
 8000824:	2001      	movs	r0, #1
 8000826:	e7fc      	b.n	8000822 <HAL_InitTick+0x36>
 8000828:	20000008 	.word	0x20000008
 800082c:	20000004 	.word	0x20000004
 8000830:	2000000c 	.word	0x2000000c

08000834 <HAL_Init>:
 8000834:	4a07      	ldr	r2, [pc, #28]	; (8000854 <HAL_Init+0x20>)
 8000836:	b508      	push	{r3, lr}
 8000838:	6813      	ldr	r3, [r2, #0]
 800083a:	2003      	movs	r0, #3
 800083c:	f043 0310 	orr.w	r3, r3, #16
 8000840:	6013      	str	r3, [r2, #0]
 8000842:	f000 fad1 	bl	8000de8 <HAL_NVIC_SetPriorityGrouping>
 8000846:	2001      	movs	r0, #1
 8000848:	f7ff ffd0 	bl	80007ec <HAL_InitTick>
 800084c:	f7ff fe1e 	bl	800048c <HAL_MspInit>
 8000850:	2000      	movs	r0, #0
 8000852:	bd08      	pop	{r3, pc}
 8000854:	40022000 	.word	0x40022000

08000858 <HAL_IncTick>:
 8000858:	4a03      	ldr	r2, [pc, #12]	; (8000868 <HAL_IncTick+0x10>)
 800085a:	4b04      	ldr	r3, [pc, #16]	; (800086c <HAL_IncTick+0x14>)
 800085c:	6811      	ldr	r1, [r2, #0]
 800085e:	781b      	ldrb	r3, [r3, #0]
 8000860:	440b      	add	r3, r1
 8000862:	6013      	str	r3, [r2, #0]
 8000864:	4770      	bx	lr
 8000866:	bf00      	nop
 8000868:	2000118c 	.word	0x2000118c
 800086c:	20000008 	.word	0x20000008

08000870 <HAL_GetTick>:
 8000870:	4b01      	ldr	r3, [pc, #4]	; (8000878 <HAL_GetTick+0x8>)
 8000872:	6818      	ldr	r0, [r3, #0]
 8000874:	4770      	bx	lr
 8000876:	bf00      	nop
 8000878:	2000118c 	.word	0x2000118c

0800087c <HAL_Delay>:
 800087c:	b538      	push	{r3, r4, r5, lr}
 800087e:	4604      	mov	r4, r0
 8000880:	f7ff fff6 	bl	8000870 <HAL_GetTick>
 8000884:	4605      	mov	r5, r0
 8000886:	1c63      	adds	r3, r4, #1
 8000888:	bf1e      	ittt	ne
 800088a:	4b04      	ldrne	r3, [pc, #16]	; (800089c <HAL_Delay+0x20>)
 800088c:	781b      	ldrbne	r3, [r3, #0]
 800088e:	18e4      	addne	r4, r4, r3
 8000890:	f7ff ffee 	bl	8000870 <HAL_GetTick>
 8000894:	1b40      	subs	r0, r0, r5
 8000896:	42a0      	cmp	r0, r4
 8000898:	d3fa      	bcc.n	8000890 <HAL_Delay+0x14>
 800089a:	bd38      	pop	{r3, r4, r5, pc}
 800089c:	20000008 	.word	0x20000008

080008a0 <HAL_ADC_GetValue>:
 80008a0:	6803      	ldr	r3, [r0, #0]
 80008a2:	6cd8      	ldr	r0, [r3, #76]	; 0x4c
 80008a4:	4770      	bx	lr

080008a6 <HAL_ADC_ConvCpltCallback>:
 80008a6:	4770      	bx	lr

080008a8 <HAL_ADC_LevelOutOfWindowCallback>:
 80008a8:	4770      	bx	lr

080008aa <HAL_ADC_IRQHandler>:
 80008aa:	6803      	ldr	r3, [r0, #0]
 80008ac:	b510      	push	{r4, lr}
 80008ae:	685a      	ldr	r2, [r3, #4]
 80008b0:	4604      	mov	r4, r0
 80008b2:	0690      	lsls	r0, r2, #26
 80008b4:	d527      	bpl.n	8000906 <HAL_ADC_IRQHandler+0x5c>
 80008b6:	681a      	ldr	r2, [r3, #0]
 80008b8:	0791      	lsls	r1, r2, #30
 80008ba:	d524      	bpl.n	8000906 <HAL_ADC_IRQHandler+0x5c>
 80008bc:	6aa2      	ldr	r2, [r4, #40]	; 0x28
 80008be:	06d2      	lsls	r2, r2, #27
 80008c0:	bf5e      	ittt	pl
 80008c2:	6aa2      	ldrpl	r2, [r4, #40]	; 0x28
 80008c4:	f442 7200 	orrpl.w	r2, r2, #512	; 0x200
 80008c8:	62a2      	strpl	r2, [r4, #40]	; 0x28
 80008ca:	689a      	ldr	r2, [r3, #8]
 80008cc:	f402 2260 	and.w	r2, r2, #917504	; 0xe0000
 80008d0:	f5b2 2f60 	cmp.w	r2, #917504	; 0xe0000
 80008d4:	d110      	bne.n	80008f8 <HAL_ADC_IRQHandler+0x4e>
 80008d6:	7b22      	ldrb	r2, [r4, #12]
 80008d8:	b972      	cbnz	r2, 80008f8 <HAL_ADC_IRQHandler+0x4e>
 80008da:	685a      	ldr	r2, [r3, #4]
 80008dc:	f022 0220 	bic.w	r2, r2, #32
 80008e0:	605a      	str	r2, [r3, #4]
 80008e2:	6aa3      	ldr	r3, [r4, #40]	; 0x28
 80008e4:	f423 7380 	bic.w	r3, r3, #256	; 0x100
 80008e8:	62a3      	str	r3, [r4, #40]	; 0x28
 80008ea:	6aa3      	ldr	r3, [r4, #40]	; 0x28
 80008ec:	04db      	lsls	r3, r3, #19
 80008ee:	bf5e      	ittt	pl
 80008f0:	6aa3      	ldrpl	r3, [r4, #40]	; 0x28
 80008f2:	f043 0301 	orrpl.w	r3, r3, #1
 80008f6:	62a3      	strpl	r3, [r4, #40]	; 0x28
 80008f8:	4620      	mov	r0, r4
 80008fa:	f7ff ffd4 	bl	80008a6 <HAL_ADC_ConvCpltCallback>
 80008fe:	f06f 0212 	mvn.w	r2, #18
 8000902:	6823      	ldr	r3, [r4, #0]
 8000904:	601a      	str	r2, [r3, #0]
 8000906:	6823      	ldr	r3, [r4, #0]
 8000908:	685a      	ldr	r2, [r3, #4]
 800090a:	0610      	lsls	r0, r2, #24
 800090c:	d530      	bpl.n	8000970 <HAL_ADC_IRQHandler+0xc6>
 800090e:	681a      	ldr	r2, [r3, #0]
 8000910:	0751      	lsls	r1, r2, #29
 8000912:	d52d      	bpl.n	8000970 <HAL_ADC_IRQHandler+0xc6>
 8000914:	6aa2      	ldr	r2, [r4, #40]	; 0x28
 8000916:	06d2      	lsls	r2, r2, #27
 8000918:	bf5e      	ittt	pl
 800091a:	6aa2      	ldrpl	r2, [r4, #40]	; 0x28
 800091c:	f442 5200 	orrpl.w	r2, r2, #8192	; 0x2000
 8000920:	62a2      	strpl	r2, [r4, #40]	; 0x28
 8000922:	689a      	ldr	r2, [r3, #8]
 8000924:	f402 42e0 	and.w	r2, r2, #28672	; 0x7000
 8000928:	f5b2 4fe0 	cmp.w	r2, #28672	; 0x7000
 800092c:	d00a      	beq.n	8000944 <HAL_ADC_IRQHandler+0x9a>
 800092e:	685a      	ldr	r2, [r3, #4]
 8000930:	0550      	lsls	r0, r2, #21
 8000932:	d416      	bmi.n	8000962 <HAL_ADC_IRQHandler+0xb8>
 8000934:	689a      	ldr	r2, [r3, #8]
 8000936:	f402 2260 	and.w	r2, r2, #917504	; 0xe0000
 800093a:	f5b2 2f60 	cmp.w	r2, #917504	; 0xe0000
 800093e:	d110      	bne.n	8000962 <HAL_ADC_IRQHandler+0xb8>
 8000940:	7b22      	ldrb	r2, [r4, #12]
 8000942:	b972      	cbnz	r2, 8000962 <HAL_ADC_IRQHandler+0xb8>
 8000944:	685a      	ldr	r2, [r3, #4]
 8000946:	f022 0280 	bic.w	r2, r2, #128	; 0x80
 800094a:	605a      	str	r2, [r3, #4]
 800094c:	6aa3      	ldr	r3, [r4, #40]	; 0x28
 800094e:	f423 5380 	bic.w	r3, r3, #4096	; 0x1000
 8000952:	62a3      	str	r3, [r4, #40]	; 0x28
 8000954:	6aa3      	ldr	r3, [r4, #40]	; 0x28
 8000956:	05d9      	lsls	r1, r3, #23
 8000958:	bf5e      	ittt	pl
 800095a:	6aa3      	ldrpl	r3, [r4, #40]	; 0x28
 800095c:	f043 0301 	orrpl.w	r3, r3, #1
 8000960:	62a3      	strpl	r3, [r4, #40]	; 0x28
 8000962:	4620      	mov	r0, r4
 8000964:	f000 fa3e 	bl	8000de4 <HAL_ADCEx_InjectedConvCpltCallback>
 8000968:	f06f 020c 	mvn.w	r2, #12
 800096c:	6823      	ldr	r3, [r4, #0]
 800096e:	601a      	str	r2, [r3, #0]
 8000970:	6823      	ldr	r3, [r4, #0]
 8000972:	685a      	ldr	r2, [r3, #4]
 8000974:	0652      	lsls	r2, r2, #25
 8000976:	d50d      	bpl.n	8000994 <HAL_ADC_IRQHandler+0xea>
 8000978:	681b      	ldr	r3, [r3, #0]
 800097a:	07db      	lsls	r3, r3, #31
 800097c:	d50a      	bpl.n	8000994 <HAL_ADC_IRQHandler+0xea>
 800097e:	6aa3      	ldr	r3, [r4, #40]	; 0x28
 8000980:	4620      	mov	r0, r4
 8000982:	f443 3380 	orr.w	r3, r3, #65536	; 0x10000
 8000986:	62a3      	str	r3, [r4, #40]	; 0x28
 8000988:	f7ff ff8e 	bl	80008a8 <HAL_ADC_LevelOutOfWindowCallback>
 800098c:	f06f 0201 	mvn.w	r2, #1
 8000990:	6823      	ldr	r3, [r4, #0]
 8000992:	601a      	str	r2, [r3, #0]
 8000994:	bd10      	pop	{r4, pc}
	...

08000998 <HAL_ADC_ConfigChannel>:
 8000998:	2300      	movs	r3, #0
 800099a:	b573      	push	{r0, r1, r4, r5, r6, lr}
 800099c:	9301      	str	r3, [sp, #4]
 800099e:	f890 3024 	ldrb.w	r3, [r0, #36]	; 0x24
 80009a2:	2b01      	cmp	r3, #1
 80009a4:	d06d      	beq.n	8000a82 <HAL_ADC_ConfigChannel+0xea>
 80009a6:	2301      	movs	r3, #1
 80009a8:	684d      	ldr	r5, [r1, #4]
 80009aa:	f880 3024 	strb.w	r3, [r0, #36]	; 0x24
 80009ae:	2d06      	cmp	r5, #6
 80009b0:	6802      	ldr	r2, [r0, #0]
 80009b2:	eb05 0385 	add.w	r3, r5, r5, lsl #2
 80009b6:	680c      	ldr	r4, [r1, #0]
 80009b8:	d823      	bhi.n	8000a02 <HAL_ADC_ConfigChannel+0x6a>
 80009ba:	261f      	movs	r6, #31
 80009bc:	6b55      	ldr	r5, [r2, #52]	; 0x34
 80009be:	3b05      	subs	r3, #5
 80009c0:	409e      	lsls	r6, r3
 80009c2:	ea25 0506 	bic.w	r5, r5, r6
 80009c6:	fa04 f303 	lsl.w	r3, r4, r3
 80009ca:	432b      	orrs	r3, r5
 80009cc:	6353      	str	r3, [r2, #52]	; 0x34
 80009ce:	2c09      	cmp	r4, #9
 80009d0:	688b      	ldr	r3, [r1, #8]
 80009d2:	eb04 0544 	add.w	r5, r4, r4, lsl #1
 80009d6:	f04f 0107 	mov.w	r1, #7
 80009da:	d92a      	bls.n	8000a32 <HAL_ADC_ConfigChannel+0x9a>
 80009dc:	68d6      	ldr	r6, [r2, #12]
 80009de:	3d1e      	subs	r5, #30
 80009e0:	40a9      	lsls	r1, r5
 80009e2:	ea26 0101 	bic.w	r1, r6, r1
 80009e6:	40ab      	lsls	r3, r5
 80009e8:	430b      	orrs	r3, r1
 80009ea:	60d3      	str	r3, [r2, #12]
 80009ec:	f1a4 0310 	sub.w	r3, r4, #16
 80009f0:	2b01      	cmp	r3, #1
 80009f2:	d926      	bls.n	8000a42 <HAL_ADC_ConfigChannel+0xaa>
 80009f4:	2300      	movs	r3, #0
 80009f6:	2200      	movs	r2, #0
 80009f8:	f880 2024 	strb.w	r2, [r0, #36]	; 0x24
 80009fc:	4618      	mov	r0, r3
 80009fe:	b002      	add	sp, #8
 8000a00:	bd70      	pop	{r4, r5, r6, pc}
 8000a02:	2d0c      	cmp	r5, #12
 8000a04:	f04f 051f 	mov.w	r5, #31
 8000a08:	d809      	bhi.n	8000a1e <HAL_ADC_ConfigChannel+0x86>
 8000a0a:	6b16      	ldr	r6, [r2, #48]	; 0x30
 8000a0c:	3b23      	subs	r3, #35	; 0x23
 8000a0e:	409d      	lsls	r5, r3
 8000a10:	ea26 0505 	bic.w	r5, r6, r5
 8000a14:	fa04 f303 	lsl.w	r3, r4, r3
 8000a18:	432b      	orrs	r3, r5
 8000a1a:	6313      	str	r3, [r2, #48]	; 0x30
 8000a1c:	e7d7      	b.n	80009ce <HAL_ADC_ConfigChannel+0x36>
 8000a1e:	6ad6      	ldr	r6, [r2, #44]	; 0x2c
 8000a20:	3b41      	subs	r3, #65	; 0x41
 8000a22:	409d      	lsls	r5, r3
 8000a24:	ea26 0505 	bic.w	r5, r6, r5
 8000a28:	fa04 f303 	lsl.w	r3, r4, r3
 8000a2c:	432b      	orrs	r3, r5
 8000a2e:	62d3      	str	r3, [r2, #44]	; 0x2c
 8000a30:	e7cd      	b.n	80009ce <HAL_ADC_ConfigChannel+0x36>
 8000a32:	6916      	ldr	r6, [r2, #16]
 8000a34:	40a9      	lsls	r1, r5
 8000a36:	ea26 0101 	bic.w	r1, r6, r1
 8000a3a:	40ab      	lsls	r3, r5
 8000a3c:	430b      	orrs	r3, r1
 8000a3e:	6113      	str	r3, [r2, #16]
 8000a40:	e7d4      	b.n	80009ec <HAL_ADC_ConfigChannel+0x54>
 8000a42:	4b11      	ldr	r3, [pc, #68]	; (8000a88 <HAL_ADC_ConfigChannel+0xf0>)
 8000a44:	429a      	cmp	r2, r3
 8000a46:	d116      	bne.n	8000a76 <HAL_ADC_ConfigChannel+0xde>
 8000a48:	6893      	ldr	r3, [r2, #8]
 8000a4a:	021b      	lsls	r3, r3, #8
 8000a4c:	d4d2      	bmi.n	80009f4 <HAL_ADC_ConfigChannel+0x5c>
 8000a4e:	6893      	ldr	r3, [r2, #8]
 8000a50:	2c10      	cmp	r4, #16
 8000a52:	f443 0300 	orr.w	r3, r3, #8388608	; 0x800000
 8000a56:	6093      	str	r3, [r2, #8]
 8000a58:	d1cc      	bne.n	80009f4 <HAL_ADC_ConfigChannel+0x5c>
 8000a5a:	4b0c      	ldr	r3, [pc, #48]	; (8000a8c <HAL_ADC_ConfigChannel+0xf4>)
 8000a5c:	4a0c      	ldr	r2, [pc, #48]	; (8000a90 <HAL_ADC_ConfigChannel+0xf8>)
 8000a5e:	681b      	ldr	r3, [r3, #0]
 8000a60:	fbb3 f2f2 	udiv	r2, r3, r2
 8000a64:	230a      	movs	r3, #10
 8000a66:	4353      	muls	r3, r2
 8000a68:	9301      	str	r3, [sp, #4]
 8000a6a:	9b01      	ldr	r3, [sp, #4]
 8000a6c:	2b00      	cmp	r3, #0
 8000a6e:	d0c1      	beq.n	80009f4 <HAL_ADC_ConfigChannel+0x5c>
 8000a70:	9b01      	ldr	r3, [sp, #4]
 8000a72:	3b01      	subs	r3, #1
 8000a74:	e7f8      	b.n	8000a68 <HAL_ADC_ConfigChannel+0xd0>
 8000a76:	6a83      	ldr	r3, [r0, #40]	; 0x28
 8000a78:	f043 0320 	orr.w	r3, r3, #32
 8000a7c:	6283      	str	r3, [r0, #40]	; 0x28
 8000a7e:	2301      	movs	r3, #1
 8000a80:	e7b9      	b.n	80009f6 <HAL_ADC_ConfigChannel+0x5e>
 8000a82:	2302      	movs	r3, #2
 8000a84:	e7ba      	b.n	80009fc <HAL_ADC_ConfigChannel+0x64>
 8000a86:	bf00      	nop
 8000a88:	40012400 	.word	0x40012400
 8000a8c:	20000004 	.word	0x20000004
 8000a90:	000f4240 	.word	0x000f4240

08000a94 <ADC_Enable>:
 8000a94:	2300      	movs	r3, #0
 8000a96:	b573      	push	{r0, r1, r4, r5, r6, lr}
 8000a98:	9301      	str	r3, [sp, #4]
 8000a9a:	6803      	ldr	r3, [r0, #0]
 8000a9c:	4604      	mov	r4, r0
 8000a9e:	689a      	ldr	r2, [r3, #8]
 8000aa0:	07d2      	lsls	r2, r2, #31
 8000aa2:	d502      	bpl.n	8000aaa <ADC_Enable+0x16>
 8000aa4:	2000      	movs	r0, #0
 8000aa6:	b002      	add	sp, #8
 8000aa8:	bd70      	pop	{r4, r5, r6, pc}
 8000aaa:	689a      	ldr	r2, [r3, #8]
 8000aac:	f042 0201 	orr.w	r2, r2, #1
 8000ab0:	609a      	str	r2, [r3, #8]
 8000ab2:	4b12      	ldr	r3, [pc, #72]	; (8000afc <ADC_Enable+0x68>)
 8000ab4:	4a12      	ldr	r2, [pc, #72]	; (8000b00 <ADC_Enable+0x6c>)
 8000ab6:	681b      	ldr	r3, [r3, #0]
 8000ab8:	fbb3 f3f2 	udiv	r3, r3, r2
 8000abc:	9301      	str	r3, [sp, #4]
 8000abe:	9b01      	ldr	r3, [sp, #4]
 8000ac0:	b9c3      	cbnz	r3, 8000af4 <ADC_Enable+0x60>
 8000ac2:	f7ff fed5 	bl	8000870 <HAL_GetTick>
 8000ac6:	4606      	mov	r6, r0
 8000ac8:	6823      	ldr	r3, [r4, #0]
 8000aca:	689d      	ldr	r5, [r3, #8]
 8000acc:	f015 0501 	ands.w	r5, r5, #1
 8000ad0:	d1e8      	bne.n	8000aa4 <ADC_Enable+0x10>
 8000ad2:	f7ff fecd 	bl	8000870 <HAL_GetTick>
 8000ad6:	1b80      	subs	r0, r0, r6
 8000ad8:	2802      	cmp	r0, #2
 8000ada:	d9f5      	bls.n	8000ac8 <ADC_Enable+0x34>
 8000adc:	6aa3      	ldr	r3, [r4, #40]	; 0x28
 8000ade:	f884 5024 	strb.w	r5, [r4, #36]	; 0x24
 8000ae2:	f043 0310 	orr.w	r3, r3, #16
 8000ae6:	62a3      	str	r3, [r4, #40]	; 0x28
 8000ae8:	6ae3      	ldr	r3, [r4, #44]	; 0x2c
 8000aea:	2001      	movs	r0, #1
 8000aec:	f043 0301 	orr.w	r3, r3, #1
 8000af0:	62e3      	str	r3, [r4, #44]	; 0x2c
 8000af2:	e7d8      	b.n	8000aa6 <ADC_Enable+0x12>
 8000af4:	9b01      	ldr	r3, [sp, #4]
 8000af6:	3b01      	subs	r3, #1
 8000af8:	e7e0      	b.n	8000abc <ADC_Enable+0x28>
 8000afa:	bf00      	nop
 8000afc:	20000004 	.word	0x20000004
 8000b00:	000f4240 	.word	0x000f4240

08000b04 <HAL_ADC_Start_IT>:
 8000b04:	f890 3024 	ldrb.w	r3, [r0, #36]	; 0x24
 8000b08:	b510      	push	{r4, lr}
 8000b0a:	2b01      	cmp	r3, #1
 8000b0c:	4604      	mov	r4, r0
 8000b0e:	d058      	beq.n	8000bc2 <HAL_ADC_Start_IT+0xbe>
 8000b10:	2301      	movs	r3, #1
 8000b12:	f880 3024 	strb.w	r3, [r0, #36]	; 0x24
 8000b16:	f7ff ffbd 	bl	8000a94 <ADC_Enable>
 8000b1a:	2800      	cmp	r0, #0
 8000b1c:	d14d      	bne.n	8000bba <HAL_ADC_Start_IT+0xb6>
 8000b1e:	6aa3      	ldr	r3, [r4, #40]	; 0x28
 8000b20:	4a29      	ldr	r2, [pc, #164]	; (8000bc8 <HAL_ADC_Start_IT+0xc4>)
 8000b22:	f423 6370 	bic.w	r3, r3, #3840	; 0xf00
 8000b26:	f023 0301 	bic.w	r3, r3, #1
 8000b2a:	f443 7380 	orr.w	r3, r3, #256	; 0x100
 8000b2e:	62a3      	str	r3, [r4, #40]	; 0x28
 8000b30:	6823      	ldr	r3, [r4, #0]
 8000b32:	4293      	cmp	r3, r2
 8000b34:	d104      	bne.n	8000b40 <HAL_ADC_Start_IT+0x3c>
 8000b36:	4925      	ldr	r1, [pc, #148]	; (8000bcc <HAL_ADC_Start_IT+0xc8>)
 8000b38:	684a      	ldr	r2, [r1, #4]
 8000b3a:	f412 2f70 	tst.w	r2, #983040	; 0xf0000
 8000b3e:	d132      	bne.n	8000ba6 <HAL_ADC_Start_IT+0xa2>
 8000b40:	6aa2      	ldr	r2, [r4, #40]	; 0x28
 8000b42:	f422 1280 	bic.w	r2, r2, #1048576	; 0x100000
 8000b46:	62a2      	str	r2, [r4, #40]	; 0x28
 8000b48:	685a      	ldr	r2, [r3, #4]
 8000b4a:	0552      	lsls	r2, r2, #21
 8000b4c:	bf41      	itttt	mi
 8000b4e:	6aa2      	ldrmi	r2, [r4, #40]	; 0x28
 8000b50:	f422 5240 	bicmi.w	r2, r2, #12288	; 0x3000
 8000b54:	f442 5280 	orrmi.w	r2, r2, #4096	; 0x1000
 8000b58:	62a2      	strmi	r2, [r4, #40]	; 0x28
 8000b5a:	6aa2      	ldr	r2, [r4, #40]	; 0x28
 8000b5c:	f412 5280 	ands.w	r2, r2, #4096	; 0x1000
 8000b60:	bf1c      	itt	ne
 8000b62:	6ae2      	ldrne	r2, [r4, #44]	; 0x2c
 8000b64:	f022 0206 	bicne.w	r2, r2, #6
 8000b68:	62e2      	str	r2, [r4, #44]	; 0x2c
 8000b6a:	2200      	movs	r2, #0
 8000b6c:	f884 2024 	strb.w	r2, [r4, #36]	; 0x24
 8000b70:	f06f 0202 	mvn.w	r2, #2
 8000b74:	601a      	str	r2, [r3, #0]
 8000b76:	685a      	ldr	r2, [r3, #4]
 8000b78:	f042 0220 	orr.w	r2, r2, #32
 8000b7c:	605a      	str	r2, [r3, #4]
 8000b7e:	689a      	ldr	r2, [r3, #8]
 8000b80:	f402 2260 	and.w	r2, r2, #917504	; 0xe0000
 8000b84:	f5b2 2f60 	cmp.w	r2, #917504	; 0xe0000
 8000b88:	d113      	bne.n	8000bb2 <HAL_ADC_Start_IT+0xae>
 8000b8a:	4a0f      	ldr	r2, [pc, #60]	; (8000bc8 <HAL_ADC_Start_IT+0xc4>)
 8000b8c:	4293      	cmp	r3, r2
 8000b8e:	d105      	bne.n	8000b9c <HAL_ADC_Start_IT+0x98>
 8000b90:	f5a2 6280 	sub.w	r2, r2, #1024	; 0x400
 8000b94:	6852      	ldr	r2, [r2, #4]
 8000b96:	f412 2f70 	tst.w	r2, #983040	; 0xf0000
 8000b9a:	d10a      	bne.n	8000bb2 <HAL_ADC_Start_IT+0xae>
 8000b9c:	689a      	ldr	r2, [r3, #8]
 8000b9e:	f442 02a0 	orr.w	r2, r2, #5242880	; 0x500000
 8000ba2:	609a      	str	r2, [r3, #8]
 8000ba4:	bd10      	pop	{r4, pc}
 8000ba6:	6aa2      	ldr	r2, [r4, #40]	; 0x28
 8000ba8:	f442 1280 	orr.w	r2, r2, #1048576	; 0x100000
 8000bac:	62a2      	str	r2, [r4, #40]	; 0x28
 8000bae:	684a      	ldr	r2, [r1, #4]
 8000bb0:	e7cb      	b.n	8000b4a <HAL_ADC_Start_IT+0x46>
 8000bb2:	689a      	ldr	r2, [r3, #8]
 8000bb4:	f442 1280 	orr.w	r2, r2, #1048576	; 0x100000
 8000bb8:	e7f3      	b.n	8000ba2 <HAL_ADC_Start_IT+0x9e>
 8000bba:	2300      	movs	r3, #0
 8000bbc:	f884 3024 	strb.w	r3, [r4, #36]	; 0x24
 8000bc0:	e7f0      	b.n	8000ba4 <HAL_ADC_Start_IT+0xa0>
 8000bc2:	2002      	movs	r0, #2
 8000bc4:	e7ee      	b.n	8000ba4 <HAL_ADC_Start_IT+0xa0>
 8000bc6:	bf00      	nop
 8000bc8:	40012800 	.word	0x40012800
 8000bcc:	40012400 	.word	0x40012400

08000bd0 <ADC_ConversionStop_Disable>:
 8000bd0:	b538      	push	{r3, r4, r5, lr}
 8000bd2:	6803      	ldr	r3, [r0, #0]
 8000bd4:	4604      	mov	r4, r0
 8000bd6:	689a      	ldr	r2, [r3, #8]
 8000bd8:	07d2      	lsls	r2, r2, #31
 8000bda:	d401      	bmi.n	8000be0 <ADC_ConversionStop_Disable+0x10>
 8000bdc:	2000      	movs	r0, #0
 8000bde:	bd38      	pop	{r3, r4, r5, pc}
 8000be0:	689a      	ldr	r2, [r3, #8]
 8000be2:	f022 0201 	bic.w	r2, r2, #1
 8000be6:	609a      	str	r2, [r3, #8]
 8000be8:	f7ff fe42 	bl	8000870 <HAL_GetTick>
 8000bec:	4605      	mov	r5, r0
 8000bee:	6823      	ldr	r3, [r4, #0]
 8000bf0:	689b      	ldr	r3, [r3, #8]
 8000bf2:	07db      	lsls	r3, r3, #31
 8000bf4:	d5f2      	bpl.n	8000bdc <ADC_ConversionStop_Disable+0xc>
 8000bf6:	f7ff fe3b 	bl	8000870 <HAL_GetTick>
 8000bfa:	1b40      	subs	r0, r0, r5
 8000bfc:	2802      	cmp	r0, #2
 8000bfe:	d9f6      	bls.n	8000bee <ADC_ConversionStop_Disable+0x1e>
 8000c00:	6aa3      	ldr	r3, [r4, #40]	; 0x28
 8000c02:	2001      	movs	r0, #1
 8000c04:	f043 0310 	orr.w	r3, r3, #16
 8000c08:	62a3      	str	r3, [r4, #40]	; 0x28
 8000c0a:	6ae3      	ldr	r3, [r4, #44]	; 0x2c
 8000c0c:	f043 0301 	orr.w	r3, r3, #1
 8000c10:	62e3      	str	r3, [r4, #44]	; 0x2c
 8000c12:	e7e4      	b.n	8000bde <ADC_ConversionStop_Disable+0xe>

08000c14 <HAL_ADC_Init>:
 8000c14:	b570      	push	{r4, r5, r6, lr}
 8000c16:	4604      	mov	r4, r0
 8000c18:	2800      	cmp	r0, #0
 8000c1a:	d070      	beq.n	8000cfe <HAL_ADC_Init+0xea>
 8000c1c:	6a83      	ldr	r3, [r0, #40]	; 0x28
 8000c1e:	b923      	cbnz	r3, 8000c2a <HAL_ADC_Init+0x16>
 8000c20:	62c3      	str	r3, [r0, #44]	; 0x2c
 8000c22:	f880 3024 	strb.w	r3, [r0, #36]	; 0x24
 8000c26:	f7ff fc53 	bl	80004d0 <HAL_ADC_MspInit>
 8000c2a:	4620      	mov	r0, r4
 8000c2c:	f7ff ffd0 	bl	8000bd0 <ADC_ConversionStop_Disable>
 8000c30:	6aa3      	ldr	r3, [r4, #40]	; 0x28
 8000c32:	f013 0f10 	tst.w	r3, #16
 8000c36:	6aa3      	ldr	r3, [r4, #40]	; 0x28
 8000c38:	d163      	bne.n	8000d02 <HAL_ADC_Init+0xee>
 8000c3a:	2800      	cmp	r0, #0
 8000c3c:	d161      	bne.n	8000d02 <HAL_ADC_Init+0xee>
 8000c3e:	69e1      	ldr	r1, [r4, #28]
 8000c40:	f423 5388 	bic.w	r3, r3, #4352	; 0x1100
 8000c44:	6862      	ldr	r2, [r4, #4]
 8000c46:	f023 0302 	bic.w	r3, r3, #2
 8000c4a:	f043 0302 	orr.w	r3, r3, #2
 8000c4e:	430a      	orrs	r2, r1
 8000c50:	68a1      	ldr	r1, [r4, #8]
 8000c52:	62a3      	str	r3, [r4, #40]	; 0x28
 8000c54:	7b23      	ldrb	r3, [r4, #12]
 8000c56:	f5b1 7f80 	cmp.w	r1, #256	; 0x100
 8000c5a:	ea42 0243 	orr.w	r2, r2, r3, lsl #1
 8000c5e:	d037      	beq.n	8000cd0 <HAL_ADC_Init+0xbc>
 8000c60:	2901      	cmp	r1, #1
 8000c62:	bf14      	ite	ne
 8000c64:	4606      	movne	r6, r0
 8000c66:	f44f 7680 	moveq.w	r6, #256	; 0x100
 8000c6a:	7d25      	ldrb	r5, [r4, #20]
 8000c6c:	2d01      	cmp	r5, #1
 8000c6e:	d106      	bne.n	8000c7e <HAL_ADC_Init+0x6a>
 8000c70:	bb83      	cbnz	r3, 8000cd4 <HAL_ADC_Init+0xc0>
 8000c72:	69a3      	ldr	r3, [r4, #24]
 8000c74:	3b01      	subs	r3, #1
 8000c76:	ea46 3543 	orr.w	r5, r6, r3, lsl #13
 8000c7a:	f445 6600 	orr.w	r6, r5, #2048	; 0x800
 8000c7e:	6823      	ldr	r3, [r4, #0]
 8000c80:	f5b1 7f80 	cmp.w	r1, #256	; 0x100
 8000c84:	685d      	ldr	r5, [r3, #4]
 8000c86:	f425 4569 	bic.w	r5, r5, #59648	; 0xe900
 8000c8a:	ea45 0506 	orr.w	r5, r5, r6
 8000c8e:	605d      	str	r5, [r3, #4]
 8000c90:	689e      	ldr	r6, [r3, #8]
 8000c92:	4d1e      	ldr	r5, [pc, #120]	; (8000d0c <HAL_ADC_Init+0xf8>)
 8000c94:	ea05 0506 	and.w	r5, r5, r6
 8000c98:	ea45 0502 	orr.w	r5, r5, r2
 8000c9c:	609d      	str	r5, [r3, #8]
 8000c9e:	d001      	beq.n	8000ca4 <HAL_ADC_Init+0x90>
 8000ca0:	2901      	cmp	r1, #1
 8000ca2:	d120      	bne.n	8000ce6 <HAL_ADC_Init+0xd2>
 8000ca4:	6921      	ldr	r1, [r4, #16]
 8000ca6:	3901      	subs	r1, #1
 8000ca8:	0509      	lsls	r1, r1, #20
 8000caa:	6add      	ldr	r5, [r3, #44]	; 0x2c
 8000cac:	f425 0570 	bic.w	r5, r5, #15728640	; 0xf00000
 8000cb0:	4329      	orrs	r1, r5
 8000cb2:	62d9      	str	r1, [r3, #44]	; 0x2c
 8000cb4:	6899      	ldr	r1, [r3, #8]
 8000cb6:	4b16      	ldr	r3, [pc, #88]	; (8000d10 <HAL_ADC_Init+0xfc>)
 8000cb8:	400b      	ands	r3, r1
 8000cba:	429a      	cmp	r2, r3
 8000cbc:	d115      	bne.n	8000cea <HAL_ADC_Init+0xd6>
 8000cbe:	2300      	movs	r3, #0
 8000cc0:	62e3      	str	r3, [r4, #44]	; 0x2c
 8000cc2:	6aa3      	ldr	r3, [r4, #40]	; 0x28
 8000cc4:	f023 0303 	bic.w	r3, r3, #3
 8000cc8:	f043 0301 	orr.w	r3, r3, #1
 8000ccc:	62a3      	str	r3, [r4, #40]	; 0x28
 8000cce:	bd70      	pop	{r4, r5, r6, pc}
 8000cd0:	460e      	mov	r6, r1
 8000cd2:	e7ca      	b.n	8000c6a <HAL_ADC_Init+0x56>
 8000cd4:	6aa3      	ldr	r3, [r4, #40]	; 0x28
 8000cd6:	f043 0320 	orr.w	r3, r3, #32
 8000cda:	62a3      	str	r3, [r4, #40]	; 0x28
 8000cdc:	6ae3      	ldr	r3, [r4, #44]	; 0x2c
 8000cde:	f043 0301 	orr.w	r3, r3, #1
 8000ce2:	62e3      	str	r3, [r4, #44]	; 0x2c
 8000ce4:	e7cb      	b.n	8000c7e <HAL_ADC_Init+0x6a>
 8000ce6:	2100      	movs	r1, #0
 8000ce8:	e7df      	b.n	8000caa <HAL_ADC_Init+0x96>
 8000cea:	6aa3      	ldr	r3, [r4, #40]	; 0x28
 8000cec:	f023 0312 	bic.w	r3, r3, #18
 8000cf0:	f043 0310 	orr.w	r3, r3, #16
 8000cf4:	62a3      	str	r3, [r4, #40]	; 0x28
 8000cf6:	6ae3      	ldr	r3, [r4, #44]	; 0x2c
 8000cf8:	f043 0301 	orr.w	r3, r3, #1
 8000cfc:	62e3      	str	r3, [r4, #44]	; 0x2c
 8000cfe:	2001      	movs	r0, #1
 8000d00:	e7e5      	b.n	8000cce <HAL_ADC_Init+0xba>
 8000d02:	f043 0310 	orr.w	r3, r3, #16
 8000d06:	62a3      	str	r3, [r4, #40]	; 0x28
 8000d08:	e7f9      	b.n	8000cfe <HAL_ADC_Init+0xea>
 8000d0a:	bf00      	nop
 8000d0c:	ffe1f7fd 	.word	0xffe1f7fd
 8000d10:	ff1f0efe 	.word	0xff1f0efe

08000d14 <HAL_ADCEx_Calibration_Start>:
 8000d14:	2300      	movs	r3, #0
 8000d16:	b573      	push	{r0, r1, r4, r5, r6, lr}
 8000d18:	9301      	str	r3, [sp, #4]
 8000d1a:	f890 3024 	ldrb.w	r3, [r0, #36]	; 0x24
 8000d1e:	4604      	mov	r4, r0
 8000d20:	2b01      	cmp	r3, #1
 8000d22:	d05a      	beq.n	8000dda <HAL_ADCEx_Calibration_Start+0xc6>
 8000d24:	2301      	movs	r3, #1
 8000d26:	f880 3024 	strb.w	r3, [r0, #36]	; 0x24
 8000d2a:	f7ff ff51 	bl	8000bd0 <ADC_ConversionStop_Disable>
 8000d2e:	4605      	mov	r5, r0
 8000d30:	2800      	cmp	r0, #0
 8000d32:	d132      	bne.n	8000d9a <HAL_ADCEx_Calibration_Start+0x86>
 8000d34:	6aa3      	ldr	r3, [r4, #40]	; 0x28
 8000d36:	2002      	movs	r0, #2
 8000d38:	f423 5388 	bic.w	r3, r3, #4352	; 0x1100
 8000d3c:	f023 0302 	bic.w	r3, r3, #2
 8000d40:	f043 0302 	orr.w	r3, r3, #2
 8000d44:	62a3      	str	r3, [r4, #40]	; 0x28
 8000d46:	4b26      	ldr	r3, [pc, #152]	; (8000de0 <HAL_ADCEx_Calibration_Start+0xcc>)
 8000d48:	681e      	ldr	r6, [r3, #0]
 8000d4a:	f000 fd5b 	bl	8001804 <HAL_RCCEx_GetPeriphCLKFreq>
 8000d4e:	fbb6 f0f0 	udiv	r0, r6, r0
 8000d52:	0040      	lsls	r0, r0, #1
 8000d54:	9001      	str	r0, [sp, #4]
 8000d56:	9b01      	ldr	r3, [sp, #4]
 8000d58:	bb1b      	cbnz	r3, 8000da2 <HAL_ADCEx_Calibration_Start+0x8e>
 8000d5a:	4620      	mov	r0, r4
 8000d5c:	f7ff fe9a 	bl	8000a94 <ADC_Enable>
 8000d60:	6822      	ldr	r2, [r4, #0]
 8000d62:	6893      	ldr	r3, [r2, #8]
 8000d64:	f043 0308 	orr.w	r3, r3, #8
 8000d68:	6093      	str	r3, [r2, #8]
 8000d6a:	f7ff fd81 	bl	8000870 <HAL_GetTick>
 8000d6e:	4606      	mov	r6, r0
 8000d70:	6823      	ldr	r3, [r4, #0]
 8000d72:	689a      	ldr	r2, [r3, #8]
 8000d74:	0712      	lsls	r2, r2, #28
 8000d76:	d418      	bmi.n	8000daa <HAL_ADCEx_Calibration_Start+0x96>
 8000d78:	689a      	ldr	r2, [r3, #8]
 8000d7a:	f042 0204 	orr.w	r2, r2, #4
 8000d7e:	609a      	str	r2, [r3, #8]
 8000d80:	f7ff fd76 	bl	8000870 <HAL_GetTick>
 8000d84:	4606      	mov	r6, r0
 8000d86:	6823      	ldr	r3, [r4, #0]
 8000d88:	689b      	ldr	r3, [r3, #8]
 8000d8a:	075b      	lsls	r3, r3, #29
 8000d8c:	d41f      	bmi.n	8000dce <HAL_ADCEx_Calibration_Start+0xba>
 8000d8e:	6aa3      	ldr	r3, [r4, #40]	; 0x28
 8000d90:	f023 0303 	bic.w	r3, r3, #3
 8000d94:	f043 0301 	orr.w	r3, r3, #1
 8000d98:	62a3      	str	r3, [r4, #40]	; 0x28
 8000d9a:	2300      	movs	r3, #0
 8000d9c:	f884 3024 	strb.w	r3, [r4, #36]	; 0x24
 8000da0:	e012      	b.n	8000dc8 <HAL_ADCEx_Calibration_Start+0xb4>
 8000da2:	9b01      	ldr	r3, [sp, #4]
 8000da4:	3b01      	subs	r3, #1
 8000da6:	9301      	str	r3, [sp, #4]
 8000da8:	e7d5      	b.n	8000d56 <HAL_ADCEx_Calibration_Start+0x42>
 8000daa:	f7ff fd61 	bl	8000870 <HAL_GetTick>
 8000dae:	1b80      	subs	r0, r0, r6
 8000db0:	280a      	cmp	r0, #10
 8000db2:	d9dd      	bls.n	8000d70 <HAL_ADCEx_Calibration_Start+0x5c>
 8000db4:	6aa3      	ldr	r3, [r4, #40]	; 0x28
 8000db6:	2501      	movs	r5, #1
 8000db8:	f023 0312 	bic.w	r3, r3, #18
 8000dbc:	f043 0310 	orr.w	r3, r3, #16
 8000dc0:	62a3      	str	r3, [r4, #40]	; 0x28
 8000dc2:	2300      	movs	r3, #0
 8000dc4:	f884 3024 	strb.w	r3, [r4, #36]	; 0x24
 8000dc8:	4628      	mov	r0, r5
 8000dca:	b002      	add	sp, #8
 8000dcc:	bd70      	pop	{r4, r5, r6, pc}
 8000dce:	f7ff fd4f 	bl	8000870 <HAL_GetTick>
 8000dd2:	1b80      	subs	r0, r0, r6
 8000dd4:	280a      	cmp	r0, #10
 8000dd6:	d9d6      	bls.n	8000d86 <HAL_ADCEx_Calibration_Start+0x72>
 8000dd8:	e7ec      	b.n	8000db4 <HAL_ADCEx_Calibration_Start+0xa0>
 8000dda:	2502      	movs	r5, #2
 8000ddc:	e7f4      	b.n	8000dc8 <HAL_ADCEx_Calibration_Start+0xb4>
 8000dde:	bf00      	nop
 8000de0:	20000004 	.word	0x20000004

08000de4 <HAL_ADCEx_InjectedConvCpltCallback>:
 8000de4:	4770      	bx	lr
	...

08000de8 <HAL_NVIC_SetPriorityGrouping>:
 8000de8:	4a07      	ldr	r2, [pc, #28]	; (8000e08 <HAL_NVIC_SetPriorityGrouping+0x20>)
 8000dea:	0200      	lsls	r0, r0, #8
 8000dec:	68d3      	ldr	r3, [r2, #12]
 8000dee:	f400 60e0 	and.w	r0, r0, #1792	; 0x700
 8000df2:	f423 63e0 	bic.w	r3, r3, #1792	; 0x700
 8000df6:	041b      	lsls	r3, r3, #16
 8000df8:	0c1b      	lsrs	r3, r3, #16
 8000dfa:	f043 63bf 	orr.w	r3, r3, #100139008	; 0x5f80000
 8000dfe:	f443 3300 	orr.w	r3, r3, #131072	; 0x20000
 8000e02:	4303      	orrs	r3, r0
 8000e04:	60d3      	str	r3, [r2, #12]
 8000e06:	4770      	bx	lr
 8000e08:	e000ed00 	.word	0xe000ed00

08000e0c <HAL_NVIC_SetPriority>:
 8000e0c:	4b17      	ldr	r3, [pc, #92]	; (8000e6c <HAL_NVIC_SetPriority+0x60>)
 8000e0e:	b570      	push	{r4, r5, r6, lr}
 8000e10:	68dc      	ldr	r4, [r3, #12]
 8000e12:	f04f 36ff 	mov.w	r6, #4294967295	; 0xffffffff
 8000e16:	f3c4 2402 	ubfx	r4, r4, #8, #3
 8000e1a:	f1c4 0507 	rsb	r5, r4, #7
 8000e1e:	2d04      	cmp	r5, #4
 8000e20:	f104 0304 	add.w	r3, r4, #4
 8000e24:	bf28      	it	cs
 8000e26:	2504      	movcs	r5, #4
 8000e28:	2b06      	cmp	r3, #6
 8000e2a:	bf98      	it	ls
 8000e2c:	2400      	movls	r4, #0
 8000e2e:	fa06 f305 	lsl.w	r3, r6, r5
 8000e32:	bf88      	it	hi
 8000e34:	3c03      	subhi	r4, #3
 8000e36:	ea21 0303 	bic.w	r3, r1, r3
 8000e3a:	40a3      	lsls	r3, r4
 8000e3c:	fa06 f404 	lsl.w	r4, r6, r4
 8000e40:	ea22 0404 	bic.w	r4, r2, r4
 8000e44:	2800      	cmp	r0, #0
 8000e46:	ea43 0304 	orr.w	r3, r3, r4
 8000e4a:	bfa8      	it	ge
 8000e4c:	f100 4060 	addge.w	r0, r0, #3758096384	; 0xe0000000
 8000e50:	ea4f 1303 	mov.w	r3, r3, lsl #4
 8000e54:	bfb8      	it	lt
 8000e56:	4a06      	ldrlt	r2, [pc, #24]	; (8000e70 <HAL_NVIC_SetPriority+0x64>)
 8000e58:	b2db      	uxtb	r3, r3
 8000e5a:	bfab      	itete	ge
 8000e5c:	f500 4061 	addge.w	r0, r0, #57600	; 0xe100
 8000e60:	f000 000f 	andlt.w	r0, r0, #15
 8000e64:	f880 3300 	strbge.w	r3, [r0, #768]	; 0x300
 8000e68:	5413      	strblt	r3, [r2, r0]
 8000e6a:	bd70      	pop	{r4, r5, r6, pc}
 8000e6c:	e000ed00 	.word	0xe000ed00
 8000e70:	e000ed14 	.word	0xe000ed14

08000e74 <HAL_NVIC_EnableIRQ>:
 8000e74:	2800      	cmp	r0, #0
 8000e76:	db08      	blt.n	8000e8a <HAL_NVIC_EnableIRQ+0x16>
 8000e78:	2301      	movs	r3, #1
 8000e7a:	0942      	lsrs	r2, r0, #5
 8000e7c:	f000 001f 	and.w	r0, r0, #31
 8000e80:	fa03 f000 	lsl.w	r0, r3, r0
 8000e84:	4b01      	ldr	r3, [pc, #4]	; (8000e8c <HAL_NVIC_EnableIRQ+0x18>)
 8000e86:	f843 0022 	str.w	r0, [r3, r2, lsl #2]
 8000e8a:	4770      	bx	lr
 8000e8c:	e000e100 	.word	0xe000e100

08000e90 <HAL_SYSTICK_Config>:
 8000e90:	3801      	subs	r0, #1
 8000e92:	f1b0 7f80 	cmp.w	r0, #16777216	; 0x1000000
 8000e96:	d20a      	bcs.n	8000eae <HAL_SYSTICK_Config+0x1e>
 8000e98:	21f0      	movs	r1, #240	; 0xf0
 8000e9a:	4b06      	ldr	r3, [pc, #24]	; (8000eb4 <HAL_SYSTICK_Config+0x24>)
 8000e9c:	4a06      	ldr	r2, [pc, #24]	; (8000eb8 <HAL_SYSTICK_Config+0x28>)
 8000e9e:	6058      	str	r0, [r3, #4]
 8000ea0:	f882 1023 	strb.w	r1, [r2, #35]	; 0x23
 8000ea4:	2000      	movs	r0, #0
 8000ea6:	2207      	movs	r2, #7
 8000ea8:	6098      	str	r0, [r3, #8]
 8000eaa:	601a      	str	r2, [r3, #0]
 8000eac:	4770      	bx	lr
 8000eae:	2001      	movs	r0, #1
 8000eb0:	4770      	bx	lr
 8000eb2:	bf00      	nop
 8000eb4:	e000e010 	.word	0xe000e010
 8000eb8:	e000ed00 	.word	0xe000ed00

08000ebc <HAL_GPIO_Init>:
 8000ebc:	e92d 4ff7 	stmdb	sp!, {r0, r1, r2, r4, r5, r6, r7, r8, r9, sl, fp, lr}
 8000ec0:	2400      	movs	r4, #0
 8000ec2:	4626      	mov	r6, r4
 8000ec4:	4b65      	ldr	r3, [pc, #404]	; (800105c <HAL_GPIO_Init+0x1a0>)
 8000ec6:	f8df c1a4 	ldr.w	ip, [pc, #420]	; 800106c <HAL_GPIO_Init+0x1b0>
 8000eca:	f8df e1a4 	ldr.w	lr, [pc, #420]	; 8001070 <HAL_GPIO_Init+0x1b4>
 8000ece:	680a      	ldr	r2, [r1, #0]
 8000ed0:	fa32 f506 	lsrs.w	r5, r2, r6
 8000ed4:	d102      	bne.n	8000edc <HAL_GPIO_Init+0x20>
 8000ed6:	b003      	add	sp, #12
 8000ed8:	e8bd 8ff0 	ldmia.w	sp!, {r4, r5, r6, r7, r8, r9, sl, fp, pc}
 8000edc:	f04f 0801 	mov.w	r8, #1
 8000ee0:	fa08 f806 	lsl.w	r8, r8, r6
 8000ee4:	ea02 0208 	and.w	r2, r2, r8
 8000ee8:	4590      	cmp	r8, r2
 8000eea:	d17e      	bne.n	8000fea <HAL_GPIO_Init+0x12e>
 8000eec:	684d      	ldr	r5, [r1, #4]
 8000eee:	2d12      	cmp	r5, #18
 8000ef0:	f000 80a9 	beq.w	8001046 <HAL_GPIO_Init+0x18a>
 8000ef4:	f200 8082 	bhi.w	8000ffc <HAL_GPIO_Init+0x140>
 8000ef8:	2d02      	cmp	r5, #2
 8000efa:	f000 80a1 	beq.w	8001040 <HAL_GPIO_Init+0x184>
 8000efe:	d876      	bhi.n	8000fee <HAL_GPIO_Init+0x132>
 8000f00:	2d00      	cmp	r5, #0
 8000f02:	f000 8088 	beq.w	8001016 <HAL_GPIO_Init+0x15a>
 8000f06:	2d01      	cmp	r5, #1
 8000f08:	f000 8098 	beq.w	800103c <HAL_GPIO_Init+0x180>
 8000f0c:	f04f 090f 	mov.w	r9, #15
 8000f10:	2aff      	cmp	r2, #255	; 0xff
 8000f12:	bf93      	iteet	ls
 8000f14:	4682      	movls	sl, r0
 8000f16:	f106 4580 	addhi.w	r5, r6, #1073741824	; 0x40000000
 8000f1a:	3d08      	subhi	r5, #8
 8000f1c:	f8d0 b000 	ldrls.w	fp, [r0]
 8000f20:	bf92      	itee	ls
 8000f22:	00b5      	lslls	r5, r6, #2
 8000f24:	f8d0 b004 	ldrhi.w	fp, [r0, #4]
 8000f28:	00ad      	lslhi	r5, r5, #2
 8000f2a:	fa09 f805 	lsl.w	r8, r9, r5
 8000f2e:	ea2b 0808 	bic.w	r8, fp, r8
 8000f32:	fa04 f505 	lsl.w	r5, r4, r5
 8000f36:	bf88      	it	hi
 8000f38:	f100 0a04 	addhi.w	sl, r0, #4
 8000f3c:	ea48 0505 	orr.w	r5, r8, r5
 8000f40:	f8ca 5000 	str.w	r5, [sl]
 8000f44:	f8d1 a004 	ldr.w	sl, [r1, #4]
 8000f48:	f01a 5f80 	tst.w	sl, #268435456	; 0x10000000
 8000f4c:	d04d      	beq.n	8000fea <HAL_GPIO_Init+0x12e>
 8000f4e:	4f44      	ldr	r7, [pc, #272]	; (8001060 <HAL_GPIO_Init+0x1a4>)
 8000f50:	f026 0803 	bic.w	r8, r6, #3
 8000f54:	69bd      	ldr	r5, [r7, #24]
 8000f56:	f108 4880 	add.w	r8, r8, #1073741824	; 0x40000000
 8000f5a:	f045 0501 	orr.w	r5, r5, #1
 8000f5e:	61bd      	str	r5, [r7, #24]
 8000f60:	69bd      	ldr	r5, [r7, #24]
 8000f62:	f508 3880 	add.w	r8, r8, #65536	; 0x10000
 8000f66:	f005 0501 	and.w	r5, r5, #1
 8000f6a:	9501      	str	r5, [sp, #4]
 8000f6c:	f006 0b03 	and.w	fp, r6, #3
 8000f70:	9d01      	ldr	r5, [sp, #4]
 8000f72:	ea4f 0b8b 	mov.w	fp, fp, lsl #2
 8000f76:	f8d8 5008 	ldr.w	r5, [r8, #8]
 8000f7a:	fa09 f90b 	lsl.w	r9, r9, fp
 8000f7e:	ea25 0909 	bic.w	r9, r5, r9
 8000f82:	4d38      	ldr	r5, [pc, #224]	; (8001064 <HAL_GPIO_Init+0x1a8>)
 8000f84:	42a8      	cmp	r0, r5
 8000f86:	d063      	beq.n	8001050 <HAL_GPIO_Init+0x194>
 8000f88:	f505 6580 	add.w	r5, r5, #1024	; 0x400
 8000f8c:	42a8      	cmp	r0, r5
 8000f8e:	d061      	beq.n	8001054 <HAL_GPIO_Init+0x198>
 8000f90:	f505 6580 	add.w	r5, r5, #1024	; 0x400
 8000f94:	42a8      	cmp	r0, r5
 8000f96:	d05f      	beq.n	8001058 <HAL_GPIO_Init+0x19c>
 8000f98:	f505 6580 	add.w	r5, r5, #1024	; 0x400
 8000f9c:	42a8      	cmp	r0, r5
 8000f9e:	bf0c      	ite	eq
 8000fa0:	2503      	moveq	r5, #3
 8000fa2:	2504      	movne	r5, #4
 8000fa4:	fa05 f50b 	lsl.w	r5, r5, fp
 8000fa8:	ea45 0509 	orr.w	r5, r5, r9
 8000fac:	f8c8 5008 	str.w	r5, [r8, #8]
 8000fb0:	681d      	ldr	r5, [r3, #0]
 8000fb2:	f41a 3f80 	tst.w	sl, #65536	; 0x10000
 8000fb6:	bf14      	ite	ne
 8000fb8:	4315      	orrne	r5, r2
 8000fba:	4395      	biceq	r5, r2
 8000fbc:	601d      	str	r5, [r3, #0]
 8000fbe:	685d      	ldr	r5, [r3, #4]
 8000fc0:	f41a 3f00 	tst.w	sl, #131072	; 0x20000
 8000fc4:	bf14      	ite	ne
 8000fc6:	4315      	orrne	r5, r2
 8000fc8:	4395      	biceq	r5, r2
 8000fca:	605d      	str	r5, [r3, #4]
 8000fcc:	689d      	ldr	r5, [r3, #8]
 8000fce:	f41a 1f80 	tst.w	sl, #1048576	; 0x100000
 8000fd2:	bf14      	ite	ne
 8000fd4:	4315      	orrne	r5, r2
 8000fd6:	4395      	biceq	r5, r2
 8000fd8:	609d      	str	r5, [r3, #8]
 8000fda:	68dd      	ldr	r5, [r3, #12]
 8000fdc:	f41a 1f00 	tst.w	sl, #2097152	; 0x200000
 8000fe0:	bf14      	ite	ne
 8000fe2:	432a      	orrne	r2, r5
 8000fe4:	ea25 0202 	biceq.w	r2, r5, r2
 8000fe8:	60da      	str	r2, [r3, #12]
 8000fea:	3601      	adds	r6, #1
 8000fec:	e76f      	b.n	8000ece <HAL_GPIO_Init+0x12>
 8000fee:	2d03      	cmp	r5, #3
 8000ff0:	d022      	beq.n	8001038 <HAL_GPIO_Init+0x17c>
 8000ff2:	2d11      	cmp	r5, #17
 8000ff4:	d18a      	bne.n	8000f0c <HAL_GPIO_Init+0x50>
 8000ff6:	68cc      	ldr	r4, [r1, #12]
 8000ff8:	3404      	adds	r4, #4
 8000ffa:	e787      	b.n	8000f0c <HAL_GPIO_Init+0x50>
 8000ffc:	4f1a      	ldr	r7, [pc, #104]	; (8001068 <HAL_GPIO_Init+0x1ac>)
 8000ffe:	42bd      	cmp	r5, r7
 8001000:	d009      	beq.n	8001016 <HAL_GPIO_Init+0x15a>
 8001002:	d812      	bhi.n	800102a <HAL_GPIO_Init+0x16e>
 8001004:	f8df 906c 	ldr.w	r9, [pc, #108]	; 8001074 <HAL_GPIO_Init+0x1b8>
 8001008:	454d      	cmp	r5, r9
 800100a:	d004      	beq.n	8001016 <HAL_GPIO_Init+0x15a>
 800100c:	f509 3980 	add.w	r9, r9, #65536	; 0x10000
 8001010:	454d      	cmp	r5, r9
 8001012:	f47f af7b 	bne.w	8000f0c <HAL_GPIO_Init+0x50>
 8001016:	688c      	ldr	r4, [r1, #8]
 8001018:	b1c4      	cbz	r4, 800104c <HAL_GPIO_Init+0x190>
 800101a:	2c01      	cmp	r4, #1
 800101c:	bf0c      	ite	eq
 800101e:	f8c0 8010 	streq.w	r8, [r0, #16]
 8001022:	f8c0 8014 	strne.w	r8, [r0, #20]
 8001026:	2408      	movs	r4, #8
 8001028:	e770      	b.n	8000f0c <HAL_GPIO_Init+0x50>
 800102a:	4565      	cmp	r5, ip
 800102c:	d0f3      	beq.n	8001016 <HAL_GPIO_Init+0x15a>
 800102e:	4575      	cmp	r5, lr
 8001030:	d0f1      	beq.n	8001016 <HAL_GPIO_Init+0x15a>
 8001032:	f8df 9044 	ldr.w	r9, [pc, #68]	; 8001078 <HAL_GPIO_Init+0x1bc>
 8001036:	e7eb      	b.n	8001010 <HAL_GPIO_Init+0x154>
 8001038:	2400      	movs	r4, #0
 800103a:	e767      	b.n	8000f0c <HAL_GPIO_Init+0x50>
 800103c:	68cc      	ldr	r4, [r1, #12]
 800103e:	e765      	b.n	8000f0c <HAL_GPIO_Init+0x50>
 8001040:	68cc      	ldr	r4, [r1, #12]
 8001042:	3408      	adds	r4, #8
 8001044:	e762      	b.n	8000f0c <HAL_GPIO_Init+0x50>
 8001046:	68cc      	ldr	r4, [r1, #12]
 8001048:	340c      	adds	r4, #12
 800104a:	e75f      	b.n	8000f0c <HAL_GPIO_Init+0x50>
 800104c:	2404      	movs	r4, #4
 800104e:	e75d      	b.n	8000f0c <HAL_GPIO_Init+0x50>
 8001050:	2500      	movs	r5, #0
 8001052:	e7a7      	b.n	8000fa4 <HAL_GPIO_Init+0xe8>
 8001054:	2501      	movs	r5, #1
 8001056:	e7a5      	b.n	8000fa4 <HAL_GPIO_Init+0xe8>
 8001058:	2502      	movs	r5, #2
 800105a:	e7a3      	b.n	8000fa4 <HAL_GPIO_Init+0xe8>
 800105c:	40010400 	.word	0x40010400
 8001060:	40021000 	.word	0x40021000
 8001064:	40010800 	.word	0x40010800
 8001068:	10210000 	.word	0x10210000
 800106c:	10310000 	.word	0x10310000
 8001070:	10320000 	.word	0x10320000
 8001074:	10110000 	.word	0x10110000
 8001078:	10220000 	.word	0x10220000

0800107c <HAL_GPIO_ReadPin>:
 800107c:	6883      	ldr	r3, [r0, #8]
 800107e:	4219      	tst	r1, r3
 8001080:	bf14      	ite	ne
 8001082:	2001      	movne	r0, #1
 8001084:	2000      	moveq	r0, #0
 8001086:	4770      	bx	lr

08001088 <HAL_GPIO_WritePin>:
 8001088:	b10a      	cbz	r2, 800108e <HAL_GPIO_WritePin+0x6>
 800108a:	6101      	str	r1, [r0, #16]
 800108c:	4770      	bx	lr
 800108e:	0409      	lsls	r1, r1, #16
 8001090:	e7fb      	b.n	800108a <HAL_GPIO_WritePin+0x2>
	...

08001094 <HAL_I2C_Init>:
 8001094:	b570      	push	{r4, r5, r6, lr}
 8001096:	4604      	mov	r4, r0
 8001098:	b908      	cbnz	r0, 800109e <HAL_I2C_Init+0xa>
 800109a:	2001      	movs	r0, #1
 800109c:	bd70      	pop	{r4, r5, r6, pc}
 800109e:	f890 303d 	ldrb.w	r3, [r0, #61]	; 0x3d
 80010a2:	f003 02ff 	and.w	r2, r3, #255	; 0xff
 80010a6:	b91b      	cbnz	r3, 80010b0 <HAL_I2C_Init+0x1c>
 80010a8:	f880 203c 	strb.w	r2, [r0, #60]	; 0x3c
 80010ac:	f7ff fa6a 	bl	8000584 <HAL_I2C_MspInit>
 80010b0:	2324      	movs	r3, #36	; 0x24
 80010b2:	f884 303d 	strb.w	r3, [r4, #61]	; 0x3d
 80010b6:	6823      	ldr	r3, [r4, #0]
 80010b8:	681a      	ldr	r2, [r3, #0]
 80010ba:	f022 0201 	bic.w	r2, r2, #1
 80010be:	601a      	str	r2, [r3, #0]
 80010c0:	681a      	ldr	r2, [r3, #0]
 80010c2:	f442 4200 	orr.w	r2, r2, #32768	; 0x8000
 80010c6:	601a      	str	r2, [r3, #0]
 80010c8:	681a      	ldr	r2, [r3, #0]
 80010ca:	f422 4200 	bic.w	r2, r2, #32768	; 0x8000
 80010ce:	601a      	str	r2, [r3, #0]
 80010d0:	f000 fb00 	bl	80016d4 <HAL_RCC_GetPCLK1Freq>
 80010d4:	6863      	ldr	r3, [r4, #4]
 80010d6:	4a41      	ldr	r2, [pc, #260]	; (80011dc <HAL_I2C_Init+0x148>)
 80010d8:	4293      	cmp	r3, r2
 80010da:	d84d      	bhi.n	8001178 <HAL_I2C_Init+0xe4>
 80010dc:	4a40      	ldr	r2, [pc, #256]	; (80011e0 <HAL_I2C_Init+0x14c>)
 80010de:	4290      	cmp	r0, r2
 80010e0:	d9db      	bls.n	800109a <HAL_I2C_Init+0x6>
 80010e2:	4940      	ldr	r1, [pc, #256]	; (80011e4 <HAL_I2C_Init+0x150>)
 80010e4:	6822      	ldr	r2, [r4, #0]
 80010e6:	fbb0 f1f1 	udiv	r1, r0, r1
 80010ea:	6855      	ldr	r5, [r2, #4]
 80010ec:	f025 053f 	bic.w	r5, r5, #63	; 0x3f
 80010f0:	430d      	orrs	r5, r1
 80010f2:	6055      	str	r5, [r2, #4]
 80010f4:	6a15      	ldr	r5, [r2, #32]
 80010f6:	f025 053f 	bic.w	r5, r5, #63	; 0x3f
 80010fa:	3101      	adds	r1, #1
 80010fc:	4329      	orrs	r1, r5
 80010fe:	6211      	str	r1, [r2, #32]
 8001100:	69d1      	ldr	r1, [r2, #28]
 8001102:	4d36      	ldr	r5, [pc, #216]	; (80011dc <HAL_I2C_Init+0x148>)
 8001104:	f421 414f 	bic.w	r1, r1, #52992	; 0xcf00
 8001108:	42ab      	cmp	r3, r5
 800110a:	f021 01ff 	bic.w	r1, r1, #255	; 0xff
 800110e:	f100 30ff 	add.w	r0, r0, #4294967295	; 0xffffffff
 8001112:	d848      	bhi.n	80011a6 <HAL_I2C_Init+0x112>
 8001114:	005b      	lsls	r3, r3, #1
 8001116:	fbb0 f0f3 	udiv	r0, r0, r3
 800111a:	1c43      	adds	r3, r0, #1
 800111c:	f3c3 030b 	ubfx	r3, r3, #0, #12
 8001120:	2b04      	cmp	r3, #4
 8001122:	bf38      	it	cc
 8001124:	2304      	movcc	r3, #4
 8001126:	430b      	orrs	r3, r1
 8001128:	61d3      	str	r3, [r2, #28]
 800112a:	6811      	ldr	r1, [r2, #0]
 800112c:	e9d4 3007 	ldrd	r3, r0, [r4, #28]
 8001130:	f021 01c0 	bic.w	r1, r1, #192	; 0xc0
 8001134:	4303      	orrs	r3, r0
 8001136:	430b      	orrs	r3, r1
 8001138:	6013      	str	r3, [r2, #0]
 800113a:	6891      	ldr	r1, [r2, #8]
 800113c:	e9d4 0303 	ldrd	r0, r3, [r4, #12]
 8001140:	f421 4103 	bic.w	r1, r1, #33536	; 0x8300
 8001144:	4303      	orrs	r3, r0
 8001146:	f021 01ff 	bic.w	r1, r1, #255	; 0xff
 800114a:	430b      	orrs	r3, r1
 800114c:	6093      	str	r3, [r2, #8]
 800114e:	68d1      	ldr	r1, [r2, #12]
 8001150:	e9d4 3005 	ldrd	r3, r0, [r4, #20]
 8001154:	f021 01ff 	bic.w	r1, r1, #255	; 0xff
 8001158:	4303      	orrs	r3, r0
 800115a:	430b      	orrs	r3, r1
 800115c:	60d3      	str	r3, [r2, #12]
 800115e:	6813      	ldr	r3, [r2, #0]
 8001160:	2000      	movs	r0, #0
 8001162:	f043 0301 	orr.w	r3, r3, #1
 8001166:	6013      	str	r3, [r2, #0]
 8001168:	2320      	movs	r3, #32
 800116a:	6420      	str	r0, [r4, #64]	; 0x40
 800116c:	f884 303d 	strb.w	r3, [r4, #61]	; 0x3d
 8001170:	6320      	str	r0, [r4, #48]	; 0x30
 8001172:	f884 003e 	strb.w	r0, [r4, #62]	; 0x3e
 8001176:	e791      	b.n	800109c <HAL_I2C_Init+0x8>
 8001178:	4a1b      	ldr	r2, [pc, #108]	; (80011e8 <HAL_I2C_Init+0x154>)
 800117a:	4290      	cmp	r0, r2
 800117c:	d98d      	bls.n	800109a <HAL_I2C_Init+0x6>
 800117e:	4e19      	ldr	r6, [pc, #100]	; (80011e4 <HAL_I2C_Init+0x150>)
 8001180:	f44f 7196 	mov.w	r1, #300	; 0x12c
 8001184:	fbb0 f6f6 	udiv	r6, r0, r6
 8001188:	6822      	ldr	r2, [r4, #0]
 800118a:	4371      	muls	r1, r6
 800118c:	6855      	ldr	r5, [r2, #4]
 800118e:	f025 053f 	bic.w	r5, r5, #63	; 0x3f
 8001192:	4335      	orrs	r5, r6
 8001194:	f44f 767a 	mov.w	r6, #1000	; 0x3e8
 8001198:	6055      	str	r5, [r2, #4]
 800119a:	6a15      	ldr	r5, [r2, #32]
 800119c:	fbb1 f1f6 	udiv	r1, r1, r6
 80011a0:	f025 053f 	bic.w	r5, r5, #63	; 0x3f
 80011a4:	e7a9      	b.n	80010fa <HAL_I2C_Init+0x66>
 80011a6:	68a5      	ldr	r5, [r4, #8]
 80011a8:	b955      	cbnz	r5, 80011c0 <HAL_I2C_Init+0x12c>
 80011aa:	eb03 0343 	add.w	r3, r3, r3, lsl #1
 80011ae:	fbb0 f0f3 	udiv	r0, r0, r3
 80011b2:	1c43      	adds	r3, r0, #1
 80011b4:	f3c3 030b 	ubfx	r3, r3, #0, #12
 80011b8:	b16b      	cbz	r3, 80011d6 <HAL_I2C_Init+0x142>
 80011ba:	f443 4300 	orr.w	r3, r3, #32768	; 0x8000
 80011be:	e7b2      	b.n	8001126 <HAL_I2C_Init+0x92>
 80011c0:	2519      	movs	r5, #25
 80011c2:	436b      	muls	r3, r5
 80011c4:	fbb0 f0f3 	udiv	r0, r0, r3
 80011c8:	1c43      	adds	r3, r0, #1
 80011ca:	f3c3 030b 	ubfx	r3, r3, #0, #12
 80011ce:	b113      	cbz	r3, 80011d6 <HAL_I2C_Init+0x142>
 80011d0:	f443 4340 	orr.w	r3, r3, #49152	; 0xc000
 80011d4:	e7a7      	b.n	8001126 <HAL_I2C_Init+0x92>
 80011d6:	2301      	movs	r3, #1
 80011d8:	e7a5      	b.n	8001126 <HAL_I2C_Init+0x92>
 80011da:	bf00      	nop
 80011dc:	000186a0 	.word	0x000186a0
 80011e0:	001e847f 	.word	0x001e847f
 80011e4:	000f4240 	.word	0x000f4240
 80011e8:	003d08ff 	.word	0x003d08ff

080011ec <HAL_RCC_OscConfig>:
 80011ec:	e92d 41f3 	stmdb	sp!, {r0, r1, r4, r5, r6, r7, r8, lr}
 80011f0:	4605      	mov	r5, r0
 80011f2:	b908      	cbnz	r0, 80011f8 <HAL_RCC_OscConfig+0xc>
 80011f4:	2001      	movs	r0, #1
 80011f6:	e03c      	b.n	8001272 <HAL_RCC_OscConfig+0x86>
 80011f8:	6803      	ldr	r3, [r0, #0]
 80011fa:	07db      	lsls	r3, r3, #31
 80011fc:	d410      	bmi.n	8001220 <HAL_RCC_OscConfig+0x34>
 80011fe:	682b      	ldr	r3, [r5, #0]
 8001200:	079f      	lsls	r7, r3, #30
 8001202:	d45d      	bmi.n	80012c0 <HAL_RCC_OscConfig+0xd4>
 8001204:	682b      	ldr	r3, [r5, #0]
 8001206:	0719      	lsls	r1, r3, #28
 8001208:	f100 8094 	bmi.w	8001334 <HAL_RCC_OscConfig+0x148>
 800120c:	682b      	ldr	r3, [r5, #0]
 800120e:	075a      	lsls	r2, r3, #29
 8001210:	f100 80be 	bmi.w	8001390 <HAL_RCC_OscConfig+0x1a4>
 8001214:	69e8      	ldr	r0, [r5, #28]
 8001216:	2800      	cmp	r0, #0
 8001218:	f040 812c 	bne.w	8001474 <HAL_RCC_OscConfig+0x288>
 800121c:	2000      	movs	r0, #0
 800121e:	e028      	b.n	8001272 <HAL_RCC_OscConfig+0x86>
 8001220:	4c8f      	ldr	r4, [pc, #572]	; (8001460 <HAL_RCC_OscConfig+0x274>)
 8001222:	6863      	ldr	r3, [r4, #4]
 8001224:	f003 030c 	and.w	r3, r3, #12
 8001228:	2b04      	cmp	r3, #4
 800122a:	d007      	beq.n	800123c <HAL_RCC_OscConfig+0x50>
 800122c:	6863      	ldr	r3, [r4, #4]
 800122e:	f003 030c 	and.w	r3, r3, #12
 8001232:	2b08      	cmp	r3, #8
 8001234:	d109      	bne.n	800124a <HAL_RCC_OscConfig+0x5e>
 8001236:	6863      	ldr	r3, [r4, #4]
 8001238:	03de      	lsls	r6, r3, #15
 800123a:	d506      	bpl.n	800124a <HAL_RCC_OscConfig+0x5e>
 800123c:	6823      	ldr	r3, [r4, #0]
 800123e:	039c      	lsls	r4, r3, #14
 8001240:	d5dd      	bpl.n	80011fe <HAL_RCC_OscConfig+0x12>
 8001242:	686b      	ldr	r3, [r5, #4]
 8001244:	2b00      	cmp	r3, #0
 8001246:	d1da      	bne.n	80011fe <HAL_RCC_OscConfig+0x12>
 8001248:	e7d4      	b.n	80011f4 <HAL_RCC_OscConfig+0x8>
 800124a:	686b      	ldr	r3, [r5, #4]
 800124c:	f5b3 3f80 	cmp.w	r3, #65536	; 0x10000
 8001250:	d112      	bne.n	8001278 <HAL_RCC_OscConfig+0x8c>
 8001252:	6823      	ldr	r3, [r4, #0]
 8001254:	f443 3380 	orr.w	r3, r3, #65536	; 0x10000
 8001258:	6023      	str	r3, [r4, #0]
 800125a:	f7ff fb09 	bl	8000870 <HAL_GetTick>
 800125e:	4606      	mov	r6, r0
 8001260:	6823      	ldr	r3, [r4, #0]
 8001262:	0398      	lsls	r0, r3, #14
 8001264:	d4cb      	bmi.n	80011fe <HAL_RCC_OscConfig+0x12>
 8001266:	f7ff fb03 	bl	8000870 <HAL_GetTick>
 800126a:	1b80      	subs	r0, r0, r6
 800126c:	2864      	cmp	r0, #100	; 0x64
 800126e:	d9f7      	bls.n	8001260 <HAL_RCC_OscConfig+0x74>
 8001270:	2003      	movs	r0, #3
 8001272:	b002      	add	sp, #8
 8001274:	e8bd 81f0 	ldmia.w	sp!, {r4, r5, r6, r7, r8, pc}
 8001278:	b99b      	cbnz	r3, 80012a2 <HAL_RCC_OscConfig+0xb6>
 800127a:	6823      	ldr	r3, [r4, #0]
 800127c:	f423 3380 	bic.w	r3, r3, #65536	; 0x10000
 8001280:	6023      	str	r3, [r4, #0]
 8001282:	6823      	ldr	r3, [r4, #0]
 8001284:	f423 2380 	bic.w	r3, r3, #262144	; 0x40000
 8001288:	6023      	str	r3, [r4, #0]
 800128a:	f7ff faf1 	bl	8000870 <HAL_GetTick>
 800128e:	4606      	mov	r6, r0
 8001290:	6823      	ldr	r3, [r4, #0]
 8001292:	0399      	lsls	r1, r3, #14
 8001294:	d5b3      	bpl.n	80011fe <HAL_RCC_OscConfig+0x12>
 8001296:	f7ff faeb 	bl	8000870 <HAL_GetTick>
 800129a:	1b80      	subs	r0, r0, r6
 800129c:	2864      	cmp	r0, #100	; 0x64
 800129e:	d9f7      	bls.n	8001290 <HAL_RCC_OscConfig+0xa4>
 80012a0:	e7e6      	b.n	8001270 <HAL_RCC_OscConfig+0x84>
 80012a2:	f5b3 2fa0 	cmp.w	r3, #327680	; 0x50000
 80012a6:	6823      	ldr	r3, [r4, #0]
 80012a8:	d103      	bne.n	80012b2 <HAL_RCC_OscConfig+0xc6>
 80012aa:	f443 2380 	orr.w	r3, r3, #262144	; 0x40000
 80012ae:	6023      	str	r3, [r4, #0]
 80012b0:	e7cf      	b.n	8001252 <HAL_RCC_OscConfig+0x66>
 80012b2:	f423 3380 	bic.w	r3, r3, #65536	; 0x10000
 80012b6:	6023      	str	r3, [r4, #0]
 80012b8:	6823      	ldr	r3, [r4, #0]
 80012ba:	f423 2380 	bic.w	r3, r3, #262144	; 0x40000
 80012be:	e7cb      	b.n	8001258 <HAL_RCC_OscConfig+0x6c>
 80012c0:	4c67      	ldr	r4, [pc, #412]	; (8001460 <HAL_RCC_OscConfig+0x274>)
 80012c2:	6863      	ldr	r3, [r4, #4]
 80012c4:	f013 0f0c 	tst.w	r3, #12
 80012c8:	d007      	beq.n	80012da <HAL_RCC_OscConfig+0xee>
 80012ca:	6863      	ldr	r3, [r4, #4]
 80012cc:	f003 030c 	and.w	r3, r3, #12
 80012d0:	2b08      	cmp	r3, #8
 80012d2:	d110      	bne.n	80012f6 <HAL_RCC_OscConfig+0x10a>
 80012d4:	6863      	ldr	r3, [r4, #4]
 80012d6:	03da      	lsls	r2, r3, #15
 80012d8:	d40d      	bmi.n	80012f6 <HAL_RCC_OscConfig+0x10a>
 80012da:	6823      	ldr	r3, [r4, #0]
 80012dc:	079b      	lsls	r3, r3, #30
 80012de:	d502      	bpl.n	80012e6 <HAL_RCC_OscConfig+0xfa>
 80012e0:	692b      	ldr	r3, [r5, #16]
 80012e2:	2b01      	cmp	r3, #1
 80012e4:	d186      	bne.n	80011f4 <HAL_RCC_OscConfig+0x8>
 80012e6:	6823      	ldr	r3, [r4, #0]
 80012e8:	696a      	ldr	r2, [r5, #20]
 80012ea:	f023 03f8 	bic.w	r3, r3, #248	; 0xf8
 80012ee:	ea43 03c2 	orr.w	r3, r3, r2, lsl #3
 80012f2:	6023      	str	r3, [r4, #0]
 80012f4:	e786      	b.n	8001204 <HAL_RCC_OscConfig+0x18>
 80012f6:	692a      	ldr	r2, [r5, #16]
 80012f8:	4b5a      	ldr	r3, [pc, #360]	; (8001464 <HAL_RCC_OscConfig+0x278>)
 80012fa:	b16a      	cbz	r2, 8001318 <HAL_RCC_OscConfig+0x12c>
 80012fc:	2201      	movs	r2, #1
 80012fe:	601a      	str	r2, [r3, #0]
 8001300:	f7ff fab6 	bl	8000870 <HAL_GetTick>
 8001304:	4606      	mov	r6, r0
 8001306:	6823      	ldr	r3, [r4, #0]
 8001308:	079f      	lsls	r7, r3, #30
 800130a:	d4ec      	bmi.n	80012e6 <HAL_RCC_OscConfig+0xfa>
 800130c:	f7ff fab0 	bl	8000870 <HAL_GetTick>
 8001310:	1b80      	subs	r0, r0, r6
 8001312:	2802      	cmp	r0, #2
 8001314:	d9f7      	bls.n	8001306 <HAL_RCC_OscConfig+0x11a>
 8001316:	e7ab      	b.n	8001270 <HAL_RCC_OscConfig+0x84>
 8001318:	601a      	str	r2, [r3, #0]
 800131a:	f7ff faa9 	bl	8000870 <HAL_GetTick>
 800131e:	4606      	mov	r6, r0
 8001320:	6823      	ldr	r3, [r4, #0]
 8001322:	0798      	lsls	r0, r3, #30
 8001324:	f57f af6e 	bpl.w	8001204 <HAL_RCC_OscConfig+0x18>
 8001328:	f7ff faa2 	bl	8000870 <HAL_GetTick>
 800132c:	1b80      	subs	r0, r0, r6
 800132e:	2802      	cmp	r0, #2
 8001330:	d9f6      	bls.n	8001320 <HAL_RCC_OscConfig+0x134>
 8001332:	e79d      	b.n	8001270 <HAL_RCC_OscConfig+0x84>
 8001334:	69aa      	ldr	r2, [r5, #24]
 8001336:	4c4a      	ldr	r4, [pc, #296]	; (8001460 <HAL_RCC_OscConfig+0x274>)
 8001338:	4b4b      	ldr	r3, [pc, #300]	; (8001468 <HAL_RCC_OscConfig+0x27c>)
 800133a:	b1da      	cbz	r2, 8001374 <HAL_RCC_OscConfig+0x188>
 800133c:	2201      	movs	r2, #1
 800133e:	601a      	str	r2, [r3, #0]
 8001340:	f7ff fa96 	bl	8000870 <HAL_GetTick>
 8001344:	4606      	mov	r6, r0
 8001346:	6a63      	ldr	r3, [r4, #36]	; 0x24
 8001348:	079b      	lsls	r3, r3, #30
 800134a:	d50d      	bpl.n	8001368 <HAL_RCC_OscConfig+0x17c>
 800134c:	f44f 52fa 	mov.w	r2, #8000	; 0x1f40
 8001350:	4b46      	ldr	r3, [pc, #280]	; (800146c <HAL_RCC_OscConfig+0x280>)
 8001352:	681b      	ldr	r3, [r3, #0]
 8001354:	fbb3 f3f2 	udiv	r3, r3, r2
 8001358:	9301      	str	r3, [sp, #4]
 800135a:	bf00      	nop
 800135c:	9b01      	ldr	r3, [sp, #4]
 800135e:	1e5a      	subs	r2, r3, #1
 8001360:	9201      	str	r2, [sp, #4]
 8001362:	2b00      	cmp	r3, #0
 8001364:	d1f9      	bne.n	800135a <HAL_RCC_OscConfig+0x16e>
 8001366:	e751      	b.n	800120c <HAL_RCC_OscConfig+0x20>
 8001368:	f7ff fa82 	bl	8000870 <HAL_GetTick>
 800136c:	1b80      	subs	r0, r0, r6
 800136e:	2802      	cmp	r0, #2
 8001370:	d9e9      	bls.n	8001346 <HAL_RCC_OscConfig+0x15a>
 8001372:	e77d      	b.n	8001270 <HAL_RCC_OscConfig+0x84>
 8001374:	601a      	str	r2, [r3, #0]
 8001376:	f7ff fa7b 	bl	8000870 <HAL_GetTick>
 800137a:	4606      	mov	r6, r0
 800137c:	6a63      	ldr	r3, [r4, #36]	; 0x24
 800137e:	079f      	lsls	r7, r3, #30
 8001380:	f57f af44 	bpl.w	800120c <HAL_RCC_OscConfig+0x20>
 8001384:	f7ff fa74 	bl	8000870 <HAL_GetTick>
 8001388:	1b80      	subs	r0, r0, r6
 800138a:	2802      	cmp	r0, #2
 800138c:	d9f6      	bls.n	800137c <HAL_RCC_OscConfig+0x190>
 800138e:	e76f      	b.n	8001270 <HAL_RCC_OscConfig+0x84>
 8001390:	4c33      	ldr	r4, [pc, #204]	; (8001460 <HAL_RCC_OscConfig+0x274>)
 8001392:	69e3      	ldr	r3, [r4, #28]
 8001394:	00d8      	lsls	r0, r3, #3
 8001396:	d424      	bmi.n	80013e2 <HAL_RCC_OscConfig+0x1f6>
 8001398:	2701      	movs	r7, #1
 800139a:	69e3      	ldr	r3, [r4, #28]
 800139c:	f043 5380 	orr.w	r3, r3, #268435456	; 0x10000000
 80013a0:	61e3      	str	r3, [r4, #28]
 80013a2:	69e3      	ldr	r3, [r4, #28]
 80013a4:	f003 5380 	and.w	r3, r3, #268435456	; 0x10000000
 80013a8:	9300      	str	r3, [sp, #0]
 80013aa:	9b00      	ldr	r3, [sp, #0]
 80013ac:	4e30      	ldr	r6, [pc, #192]	; (8001470 <HAL_RCC_OscConfig+0x284>)
 80013ae:	6833      	ldr	r3, [r6, #0]
 80013b0:	05d9      	lsls	r1, r3, #23
 80013b2:	d518      	bpl.n	80013e6 <HAL_RCC_OscConfig+0x1fa>
 80013b4:	68eb      	ldr	r3, [r5, #12]
 80013b6:	2b01      	cmp	r3, #1
 80013b8:	d126      	bne.n	8001408 <HAL_RCC_OscConfig+0x21c>
 80013ba:	6a23      	ldr	r3, [r4, #32]
 80013bc:	f043 0301 	orr.w	r3, r3, #1
 80013c0:	6223      	str	r3, [r4, #32]
 80013c2:	f7ff fa55 	bl	8000870 <HAL_GetTick>
 80013c6:	f241 3688 	movw	r6, #5000	; 0x1388
 80013ca:	4680      	mov	r8, r0
 80013cc:	6a23      	ldr	r3, [r4, #32]
 80013ce:	079b      	lsls	r3, r3, #30
 80013d0:	d53f      	bpl.n	8001452 <HAL_RCC_OscConfig+0x266>
 80013d2:	2f00      	cmp	r7, #0
 80013d4:	f43f af1e 	beq.w	8001214 <HAL_RCC_OscConfig+0x28>
 80013d8:	69e3      	ldr	r3, [r4, #28]
 80013da:	f023 5380 	bic.w	r3, r3, #268435456	; 0x10000000
 80013de:	61e3      	str	r3, [r4, #28]
 80013e0:	e718      	b.n	8001214 <HAL_RCC_OscConfig+0x28>
 80013e2:	2700      	movs	r7, #0
 80013e4:	e7e2      	b.n	80013ac <HAL_RCC_OscConfig+0x1c0>
 80013e6:	6833      	ldr	r3, [r6, #0]
 80013e8:	f443 7380 	orr.w	r3, r3, #256	; 0x100
 80013ec:	6033      	str	r3, [r6, #0]
 80013ee:	f7ff fa3f 	bl	8000870 <HAL_GetTick>
 80013f2:	4680      	mov	r8, r0
 80013f4:	6833      	ldr	r3, [r6, #0]
 80013f6:	05da      	lsls	r2, r3, #23
 80013f8:	d4dc      	bmi.n	80013b4 <HAL_RCC_OscConfig+0x1c8>
 80013fa:	f7ff fa39 	bl	8000870 <HAL_GetTick>
 80013fe:	eba0 0008 	sub.w	r0, r0, r8
 8001402:	2864      	cmp	r0, #100	; 0x64
 8001404:	d9f6      	bls.n	80013f4 <HAL_RCC_OscConfig+0x208>
 8001406:	e733      	b.n	8001270 <HAL_RCC_OscConfig+0x84>
 8001408:	b9ab      	cbnz	r3, 8001436 <HAL_RCC_OscConfig+0x24a>
 800140a:	6a23      	ldr	r3, [r4, #32]
 800140c:	f241 3888 	movw	r8, #5000	; 0x1388
 8001410:	f023 0301 	bic.w	r3, r3, #1
 8001414:	6223      	str	r3, [r4, #32]
 8001416:	6a23      	ldr	r3, [r4, #32]
 8001418:	f023 0304 	bic.w	r3, r3, #4
 800141c:	6223      	str	r3, [r4, #32]
 800141e:	f7ff fa27 	bl	8000870 <HAL_GetTick>
 8001422:	4606      	mov	r6, r0
 8001424:	6a23      	ldr	r3, [r4, #32]
 8001426:	0798      	lsls	r0, r3, #30
 8001428:	d5d3      	bpl.n	80013d2 <HAL_RCC_OscConfig+0x1e6>
 800142a:	f7ff fa21 	bl	8000870 <HAL_GetTick>
 800142e:	1b80      	subs	r0, r0, r6
 8001430:	4540      	cmp	r0, r8
 8001432:	d9f7      	bls.n	8001424 <HAL_RCC_OscConfig+0x238>
 8001434:	e71c      	b.n	8001270 <HAL_RCC_OscConfig+0x84>
 8001436:	2b05      	cmp	r3, #5
 8001438:	6a23      	ldr	r3, [r4, #32]
 800143a:	d103      	bne.n	8001444 <HAL_RCC_OscConfig+0x258>
 800143c:	f043 0304 	orr.w	r3, r3, #4
 8001440:	6223      	str	r3, [r4, #32]
 8001442:	e7ba      	b.n	80013ba <HAL_RCC_OscConfig+0x1ce>
 8001444:	f023 0301 	bic.w	r3, r3, #1
 8001448:	6223      	str	r3, [r4, #32]
 800144a:	6a23      	ldr	r3, [r4, #32]
 800144c:	f023 0304 	bic.w	r3, r3, #4
 8001450:	e7b6      	b.n	80013c0 <HAL_RCC_OscConfig+0x1d4>
 8001452:	f7ff fa0d 	bl	8000870 <HAL_GetTick>
 8001456:	eba0 0008 	sub.w	r0, r0, r8
 800145a:	42b0      	cmp	r0, r6
 800145c:	d9b6      	bls.n	80013cc <HAL_RCC_OscConfig+0x1e0>
 800145e:	e707      	b.n	8001270 <HAL_RCC_OscConfig+0x84>
 8001460:	40021000 	.word	0x40021000
 8001464:	42420000 	.word	0x42420000
 8001468:	42420480 	.word	0x42420480
 800146c:	20000004 	.word	0x20000004
 8001470:	40007000 	.word	0x40007000
 8001474:	4b2a      	ldr	r3, [pc, #168]	; (8001520 <HAL_RCC_OscConfig+0x334>)
 8001476:	685a      	ldr	r2, [r3, #4]
 8001478:	461c      	mov	r4, r3
 800147a:	f002 020c 	and.w	r2, r2, #12
 800147e:	2a08      	cmp	r2, #8
 8001480:	d03d      	beq.n	80014fe <HAL_RCC_OscConfig+0x312>
 8001482:	2300      	movs	r3, #0
 8001484:	4e27      	ldr	r6, [pc, #156]	; (8001524 <HAL_RCC_OscConfig+0x338>)
 8001486:	2802      	cmp	r0, #2
 8001488:	6033      	str	r3, [r6, #0]
 800148a:	d12b      	bne.n	80014e4 <HAL_RCC_OscConfig+0x2f8>
 800148c:	f7ff f9f0 	bl	8000870 <HAL_GetTick>
 8001490:	4607      	mov	r7, r0
 8001492:	6823      	ldr	r3, [r4, #0]
 8001494:	0199      	lsls	r1, r3, #6
 8001496:	d41f      	bmi.n	80014d8 <HAL_RCC_OscConfig+0x2ec>
 8001498:	6a2b      	ldr	r3, [r5, #32]
 800149a:	f5b3 3f80 	cmp.w	r3, #65536	; 0x10000
 800149e:	d105      	bne.n	80014ac <HAL_RCC_OscConfig+0x2c0>
 80014a0:	6862      	ldr	r2, [r4, #4]
 80014a2:	68a9      	ldr	r1, [r5, #8]
 80014a4:	f422 3200 	bic.w	r2, r2, #131072	; 0x20000
 80014a8:	430a      	orrs	r2, r1
 80014aa:	6062      	str	r2, [r4, #4]
 80014ac:	6a69      	ldr	r1, [r5, #36]	; 0x24
 80014ae:	6862      	ldr	r2, [r4, #4]
 80014b0:	430b      	orrs	r3, r1
 80014b2:	f422 1274 	bic.w	r2, r2, #3997696	; 0x3d0000
 80014b6:	4313      	orrs	r3, r2
 80014b8:	6063      	str	r3, [r4, #4]
 80014ba:	2301      	movs	r3, #1
 80014bc:	6033      	str	r3, [r6, #0]
 80014be:	f7ff f9d7 	bl	8000870 <HAL_GetTick>
 80014c2:	4605      	mov	r5, r0
 80014c4:	6823      	ldr	r3, [r4, #0]
 80014c6:	019a      	lsls	r2, r3, #6
 80014c8:	f53f aea8 	bmi.w	800121c <HAL_RCC_OscConfig+0x30>
 80014cc:	f7ff f9d0 	bl	8000870 <HAL_GetTick>
 80014d0:	1b40      	subs	r0, r0, r5
 80014d2:	2802      	cmp	r0, #2
 80014d4:	d9f6      	bls.n	80014c4 <HAL_RCC_OscConfig+0x2d8>
 80014d6:	e6cb      	b.n	8001270 <HAL_RCC_OscConfig+0x84>
 80014d8:	f7ff f9ca 	bl	8000870 <HAL_GetTick>
 80014dc:	1bc0      	subs	r0, r0, r7
 80014de:	2802      	cmp	r0, #2
 80014e0:	d9d7      	bls.n	8001492 <HAL_RCC_OscConfig+0x2a6>
 80014e2:	e6c5      	b.n	8001270 <HAL_RCC_OscConfig+0x84>
 80014e4:	f7ff f9c4 	bl	8000870 <HAL_GetTick>
 80014e8:	4605      	mov	r5, r0
 80014ea:	6823      	ldr	r3, [r4, #0]
 80014ec:	019b      	lsls	r3, r3, #6
 80014ee:	f57f ae95 	bpl.w	800121c <HAL_RCC_OscConfig+0x30>
 80014f2:	f7ff f9bd 	bl	8000870 <HAL_GetTick>
 80014f6:	1b40      	subs	r0, r0, r5
 80014f8:	2802      	cmp	r0, #2
 80014fa:	d9f6      	bls.n	80014ea <HAL_RCC_OscConfig+0x2fe>
 80014fc:	e6b8      	b.n	8001270 <HAL_RCC_OscConfig+0x84>
 80014fe:	2801      	cmp	r0, #1
 8001500:	f43f aeb7 	beq.w	8001272 <HAL_RCC_OscConfig+0x86>
 8001504:	6858      	ldr	r0, [r3, #4]
 8001506:	6a2b      	ldr	r3, [r5, #32]
 8001508:	f400 3280 	and.w	r2, r0, #65536	; 0x10000
 800150c:	429a      	cmp	r2, r3
 800150e:	f47f ae71 	bne.w	80011f4 <HAL_RCC_OscConfig+0x8>
 8001512:	6a6b      	ldr	r3, [r5, #36]	; 0x24
 8001514:	f400 1070 	and.w	r0, r0, #3932160	; 0x3c0000
 8001518:	1ac0      	subs	r0, r0, r3
 800151a:	bf18      	it	ne
 800151c:	2001      	movne	r0, #1
 800151e:	e6a8      	b.n	8001272 <HAL_RCC_OscConfig+0x86>
 8001520:	40021000 	.word	0x40021000
 8001524:	42420060 	.word	0x42420060

08001528 <HAL_RCC_GetSysClockFreq>:
 8001528:	b530      	push	{r4, r5, lr}
 800152a:	4b18      	ldr	r3, [pc, #96]	; (800158c <HAL_RCC_GetSysClockFreq+0x64>)
 800152c:	b087      	sub	sp, #28
 800152e:	ac02      	add	r4, sp, #8
 8001530:	f103 0510 	add.w	r5, r3, #16
 8001534:	4622      	mov	r2, r4
 8001536:	6818      	ldr	r0, [r3, #0]
 8001538:	6859      	ldr	r1, [r3, #4]
 800153a:	3308      	adds	r3, #8
 800153c:	c203      	stmia	r2!, {r0, r1}
 800153e:	42ab      	cmp	r3, r5
 8001540:	4614      	mov	r4, r2
 8001542:	d1f7      	bne.n	8001534 <HAL_RCC_GetSysClockFreq+0xc>
 8001544:	f240 2301 	movw	r3, #513	; 0x201
 8001548:	4911      	ldr	r1, [pc, #68]	; (8001590 <HAL_RCC_GetSysClockFreq+0x68>)
 800154a:	f8ad 3004 	strh.w	r3, [sp, #4]
 800154e:	684b      	ldr	r3, [r1, #4]
 8001550:	f003 020c 	and.w	r2, r3, #12
 8001554:	2a08      	cmp	r2, #8
 8001556:	d117      	bne.n	8001588 <HAL_RCC_GetSysClockFreq+0x60>
 8001558:	f3c3 4283 	ubfx	r2, r3, #18, #4
 800155c:	a806      	add	r0, sp, #24
 800155e:	4402      	add	r2, r0
 8001560:	03db      	lsls	r3, r3, #15
 8001562:	f812 2c10 	ldrb.w	r2, [r2, #-16]
 8001566:	d50c      	bpl.n	8001582 <HAL_RCC_GetSysClockFreq+0x5a>
 8001568:	684b      	ldr	r3, [r1, #4]
 800156a:	480a      	ldr	r0, [pc, #40]	; (8001594 <HAL_RCC_GetSysClockFreq+0x6c>)
 800156c:	f3c3 4340 	ubfx	r3, r3, #17, #1
 8001570:	4350      	muls	r0, r2
 8001572:	aa06      	add	r2, sp, #24
 8001574:	4413      	add	r3, r2
 8001576:	f813 3c14 	ldrb.w	r3, [r3, #-20]
 800157a:	fbb0 f0f3 	udiv	r0, r0, r3
 800157e:	b007      	add	sp, #28
 8001580:	bd30      	pop	{r4, r5, pc}
 8001582:	4805      	ldr	r0, [pc, #20]	; (8001598 <HAL_RCC_GetSysClockFreq+0x70>)
 8001584:	4350      	muls	r0, r2
 8001586:	e7fa      	b.n	800157e <HAL_RCC_GetSysClockFreq+0x56>
 8001588:	4802      	ldr	r0, [pc, #8]	; (8001594 <HAL_RCC_GetSysClockFreq+0x6c>)
 800158a:	e7f8      	b.n	800157e <HAL_RCC_GetSysClockFreq+0x56>
 800158c:	08001ff7 	.word	0x08001ff7
 8001590:	40021000 	.word	0x40021000
 8001594:	007a1200 	.word	0x007a1200
 8001598:	003d0900 	.word	0x003d0900

0800159c <HAL_RCC_ClockConfig>:
 800159c:	e92d 41f0 	stmdb	sp!, {r4, r5, r6, r7, r8, lr}
 80015a0:	460d      	mov	r5, r1
 80015a2:	4604      	mov	r4, r0
 80015a4:	b910      	cbnz	r0, 80015ac <HAL_RCC_ClockConfig+0x10>
 80015a6:	2001      	movs	r0, #1
 80015a8:	e8bd 81f0 	ldmia.w	sp!, {r4, r5, r6, r7, r8, pc}
 80015ac:	4a44      	ldr	r2, [pc, #272]	; (80016c0 <HAL_RCC_ClockConfig+0x124>)
 80015ae:	6813      	ldr	r3, [r2, #0]
 80015b0:	f003 0307 	and.w	r3, r3, #7
 80015b4:	428b      	cmp	r3, r1
 80015b6:	d328      	bcc.n	800160a <HAL_RCC_ClockConfig+0x6e>
 80015b8:	6821      	ldr	r1, [r4, #0]
 80015ba:	078e      	lsls	r6, r1, #30
 80015bc:	d430      	bmi.n	8001620 <HAL_RCC_ClockConfig+0x84>
 80015be:	07ca      	lsls	r2, r1, #31
 80015c0:	d443      	bmi.n	800164a <HAL_RCC_ClockConfig+0xae>
 80015c2:	4a3f      	ldr	r2, [pc, #252]	; (80016c0 <HAL_RCC_ClockConfig+0x124>)
 80015c4:	6813      	ldr	r3, [r2, #0]
 80015c6:	f003 0307 	and.w	r3, r3, #7
 80015ca:	42ab      	cmp	r3, r5
 80015cc:	d865      	bhi.n	800169a <HAL_RCC_ClockConfig+0xfe>
 80015ce:	6822      	ldr	r2, [r4, #0]
 80015d0:	4d3c      	ldr	r5, [pc, #240]	; (80016c4 <HAL_RCC_ClockConfig+0x128>)
 80015d2:	f012 0f04 	tst.w	r2, #4
 80015d6:	d16c      	bne.n	80016b2 <HAL_RCC_ClockConfig+0x116>
 80015d8:	0713      	lsls	r3, r2, #28
 80015da:	d506      	bpl.n	80015ea <HAL_RCC_ClockConfig+0x4e>
 80015dc:	686b      	ldr	r3, [r5, #4]
 80015de:	6922      	ldr	r2, [r4, #16]
 80015e0:	f423 5360 	bic.w	r3, r3, #14336	; 0x3800
 80015e4:	ea43 03c2 	orr.w	r3, r3, r2, lsl #3
 80015e8:	606b      	str	r3, [r5, #4]
 80015ea:	f7ff ff9d 	bl	8001528 <HAL_RCC_GetSysClockFreq>
 80015ee:	686b      	ldr	r3, [r5, #4]
 80015f0:	4a35      	ldr	r2, [pc, #212]	; (80016c8 <HAL_RCC_ClockConfig+0x12c>)
 80015f2:	f3c3 1303 	ubfx	r3, r3, #4, #4
 80015f6:	5cd3      	ldrb	r3, [r2, r3]
 80015f8:	40d8      	lsrs	r0, r3
 80015fa:	4b34      	ldr	r3, [pc, #208]	; (80016cc <HAL_RCC_ClockConfig+0x130>)
 80015fc:	6018      	str	r0, [r3, #0]
 80015fe:	4b34      	ldr	r3, [pc, #208]	; (80016d0 <HAL_RCC_ClockConfig+0x134>)
 8001600:	6818      	ldr	r0, [r3, #0]
 8001602:	f7ff f8f3 	bl	80007ec <HAL_InitTick>
 8001606:	2000      	movs	r0, #0
 8001608:	e7ce      	b.n	80015a8 <HAL_RCC_ClockConfig+0xc>
 800160a:	6813      	ldr	r3, [r2, #0]
 800160c:	f023 0307 	bic.w	r3, r3, #7
 8001610:	430b      	orrs	r3, r1
 8001612:	6013      	str	r3, [r2, #0]
 8001614:	6813      	ldr	r3, [r2, #0]
 8001616:	f003 0307 	and.w	r3, r3, #7
 800161a:	428b      	cmp	r3, r1
 800161c:	d1c3      	bne.n	80015a6 <HAL_RCC_ClockConfig+0xa>
 800161e:	e7cb      	b.n	80015b8 <HAL_RCC_ClockConfig+0x1c>
 8001620:	4b28      	ldr	r3, [pc, #160]	; (80016c4 <HAL_RCC_ClockConfig+0x128>)
 8001622:	f011 0f04 	tst.w	r1, #4
 8001626:	bf1e      	ittt	ne
 8001628:	685a      	ldrne	r2, [r3, #4]
 800162a:	f442 62e0 	orrne.w	r2, r2, #1792	; 0x700
 800162e:	605a      	strne	r2, [r3, #4]
 8001630:	0708      	lsls	r0, r1, #28
 8001632:	bf42      	ittt	mi
 8001634:	685a      	ldrmi	r2, [r3, #4]
 8001636:	f442 5260 	orrmi.w	r2, r2, #14336	; 0x3800
 800163a:	605a      	strmi	r2, [r3, #4]
 800163c:	685a      	ldr	r2, [r3, #4]
 800163e:	68a0      	ldr	r0, [r4, #8]
 8001640:	f022 02f0 	bic.w	r2, r2, #240	; 0xf0
 8001644:	4302      	orrs	r2, r0
 8001646:	605a      	str	r2, [r3, #4]
 8001648:	e7b9      	b.n	80015be <HAL_RCC_ClockConfig+0x22>
 800164a:	6862      	ldr	r2, [r4, #4]
 800164c:	4e1d      	ldr	r6, [pc, #116]	; (80016c4 <HAL_RCC_ClockConfig+0x128>)
 800164e:	2a01      	cmp	r2, #1
 8001650:	6833      	ldr	r3, [r6, #0]
 8001652:	d11a      	bne.n	800168a <HAL_RCC_ClockConfig+0xee>
 8001654:	f413 3f00 	tst.w	r3, #131072	; 0x20000
 8001658:	d0a5      	beq.n	80015a6 <HAL_RCC_ClockConfig+0xa>
 800165a:	6873      	ldr	r3, [r6, #4]
 800165c:	f241 3888 	movw	r8, #5000	; 0x1388
 8001660:	f023 0303 	bic.w	r3, r3, #3
 8001664:	4313      	orrs	r3, r2
 8001666:	6073      	str	r3, [r6, #4]
 8001668:	f7ff f902 	bl	8000870 <HAL_GetTick>
 800166c:	4607      	mov	r7, r0
 800166e:	6873      	ldr	r3, [r6, #4]
 8001670:	6862      	ldr	r2, [r4, #4]
 8001672:	f003 030c 	and.w	r3, r3, #12
 8001676:	ebb3 0f82 	cmp.w	r3, r2, lsl #2
 800167a:	d0a2      	beq.n	80015c2 <HAL_RCC_ClockConfig+0x26>
 800167c:	f7ff f8f8 	bl	8000870 <HAL_GetTick>
 8001680:	1bc0      	subs	r0, r0, r7
 8001682:	4540      	cmp	r0, r8
 8001684:	d9f3      	bls.n	800166e <HAL_RCC_ClockConfig+0xd2>
 8001686:	2003      	movs	r0, #3
 8001688:	e78e      	b.n	80015a8 <HAL_RCC_ClockConfig+0xc>
 800168a:	2a02      	cmp	r2, #2
 800168c:	d102      	bne.n	8001694 <HAL_RCC_ClockConfig+0xf8>
 800168e:	f013 7f00 	tst.w	r3, #33554432	; 0x2000000
 8001692:	e7e1      	b.n	8001658 <HAL_RCC_ClockConfig+0xbc>
 8001694:	f013 0f02 	tst.w	r3, #2
 8001698:	e7de      	b.n	8001658 <HAL_RCC_ClockConfig+0xbc>
 800169a:	6813      	ldr	r3, [r2, #0]
 800169c:	f023 0307 	bic.w	r3, r3, #7
 80016a0:	432b      	orrs	r3, r5
 80016a2:	6013      	str	r3, [r2, #0]
 80016a4:	6813      	ldr	r3, [r2, #0]
 80016a6:	f003 0307 	and.w	r3, r3, #7
 80016aa:	42ab      	cmp	r3, r5
 80016ac:	f47f af7b 	bne.w	80015a6 <HAL_RCC_ClockConfig+0xa>
 80016b0:	e78d      	b.n	80015ce <HAL_RCC_ClockConfig+0x32>
 80016b2:	686b      	ldr	r3, [r5, #4]
 80016b4:	68e1      	ldr	r1, [r4, #12]
 80016b6:	f423 63e0 	bic.w	r3, r3, #1792	; 0x700
 80016ba:	430b      	orrs	r3, r1
 80016bc:	606b      	str	r3, [r5, #4]
 80016be:	e78b      	b.n	80015d8 <HAL_RCC_ClockConfig+0x3c>
 80016c0:	40022000 	.word	0x40022000
 80016c4:	40021000 	.word	0x40021000
 80016c8:	08002017 	.word	0x08002017
 80016cc:	20000004 	.word	0x20000004
 80016d0:	2000000c 	.word	0x2000000c

080016d4 <HAL_RCC_GetPCLK1Freq>:
 80016d4:	4b04      	ldr	r3, [pc, #16]	; (80016e8 <HAL_RCC_GetPCLK1Freq+0x14>)
 80016d6:	4a05      	ldr	r2, [pc, #20]	; (80016ec <HAL_RCC_GetPCLK1Freq+0x18>)
 80016d8:	685b      	ldr	r3, [r3, #4]
 80016da:	f3c3 2302 	ubfx	r3, r3, #8, #3
 80016de:	5cd3      	ldrb	r3, [r2, r3]
 80016e0:	4a03      	ldr	r2, [pc, #12]	; (80016f0 <HAL_RCC_GetPCLK1Freq+0x1c>)
 80016e2:	6810      	ldr	r0, [r2, #0]
 80016e4:	40d8      	lsrs	r0, r3
 80016e6:	4770      	bx	lr
 80016e8:	40021000 	.word	0x40021000
 80016ec:	08002027 	.word	0x08002027
 80016f0:	20000004 	.word	0x20000004

080016f4 <HAL_RCC_GetPCLK2Freq>:
 80016f4:	4b04      	ldr	r3, [pc, #16]	; (8001708 <HAL_RCC_GetPCLK2Freq+0x14>)
 80016f6:	4a05      	ldr	r2, [pc, #20]	; (800170c <HAL_RCC_GetPCLK2Freq+0x18>)
 80016f8:	685b      	ldr	r3, [r3, #4]
 80016fa:	f3c3 23c2 	ubfx	r3, r3, #11, #3
 80016fe:	5cd3      	ldrb	r3, [r2, r3]
 8001700:	4a03      	ldr	r2, [pc, #12]	; (8001710 <HAL_RCC_GetPCLK2Freq+0x1c>)
 8001702:	6810      	ldr	r0, [r2, #0]
 8001704:	40d8      	lsrs	r0, r3
 8001706:	4770      	bx	lr
 8001708:	40021000 	.word	0x40021000
 800170c:	08002027 	.word	0x08002027
 8001710:	20000004 	.word	0x20000004

08001714 <HAL_RCCEx_PeriphCLKConfig>:
 8001714:	6803      	ldr	r3, [r0, #0]
 8001716:	e92d 41f3 	stmdb	sp!, {r0, r1, r4, r5, r6, r7, r8, lr}
 800171a:	07d9      	lsls	r1, r3, #31
 800171c:	4605      	mov	r5, r0
 800171e:	d520      	bpl.n	8001762 <HAL_RCCEx_PeriphCLKConfig+0x4e>
 8001720:	4c35      	ldr	r4, [pc, #212]	; (80017f8 <HAL_RCCEx_PeriphCLKConfig+0xe4>)
 8001722:	69e3      	ldr	r3, [r4, #28]
 8001724:	00da      	lsls	r2, r3, #3
 8001726:	d432      	bmi.n	800178e <HAL_RCCEx_PeriphCLKConfig+0x7a>
 8001728:	2701      	movs	r7, #1
 800172a:	69e3      	ldr	r3, [r4, #28]
 800172c:	f043 5380 	orr.w	r3, r3, #268435456	; 0x10000000
 8001730:	61e3      	str	r3, [r4, #28]
 8001732:	69e3      	ldr	r3, [r4, #28]
 8001734:	f003 5380 	and.w	r3, r3, #268435456	; 0x10000000
 8001738:	9301      	str	r3, [sp, #4]
 800173a:	9b01      	ldr	r3, [sp, #4]
 800173c:	4e2f      	ldr	r6, [pc, #188]	; (80017fc <HAL_RCCEx_PeriphCLKConfig+0xe8>)
 800173e:	6833      	ldr	r3, [r6, #0]
 8001740:	05db      	lsls	r3, r3, #23
 8001742:	d526      	bpl.n	8001792 <HAL_RCCEx_PeriphCLKConfig+0x7e>
 8001744:	6a23      	ldr	r3, [r4, #32]
 8001746:	f413 7340 	ands.w	r3, r3, #768	; 0x300
 800174a:	d136      	bne.n	80017ba <HAL_RCCEx_PeriphCLKConfig+0xa6>
 800174c:	6a23      	ldr	r3, [r4, #32]
 800174e:	686a      	ldr	r2, [r5, #4]
 8001750:	f423 7340 	bic.w	r3, r3, #768	; 0x300
 8001754:	4313      	orrs	r3, r2
 8001756:	6223      	str	r3, [r4, #32]
 8001758:	b11f      	cbz	r7, 8001762 <HAL_RCCEx_PeriphCLKConfig+0x4e>
 800175a:	69e3      	ldr	r3, [r4, #28]
 800175c:	f023 5380 	bic.w	r3, r3, #268435456	; 0x10000000
 8001760:	61e3      	str	r3, [r4, #28]
 8001762:	6828      	ldr	r0, [r5, #0]
 8001764:	0783      	lsls	r3, r0, #30
 8001766:	d506      	bpl.n	8001776 <HAL_RCCEx_PeriphCLKConfig+0x62>
 8001768:	4a23      	ldr	r2, [pc, #140]	; (80017f8 <HAL_RCCEx_PeriphCLKConfig+0xe4>)
 800176a:	68a9      	ldr	r1, [r5, #8]
 800176c:	6853      	ldr	r3, [r2, #4]
 800176e:	f423 4340 	bic.w	r3, r3, #49152	; 0xc000
 8001772:	430b      	orrs	r3, r1
 8001774:	6053      	str	r3, [r2, #4]
 8001776:	f010 0010 	ands.w	r0, r0, #16
 800177a:	d01b      	beq.n	80017b4 <HAL_RCCEx_PeriphCLKConfig+0xa0>
 800177c:	4a1e      	ldr	r2, [pc, #120]	; (80017f8 <HAL_RCCEx_PeriphCLKConfig+0xe4>)
 800177e:	68e9      	ldr	r1, [r5, #12]
 8001780:	6853      	ldr	r3, [r2, #4]
 8001782:	2000      	movs	r0, #0
 8001784:	f423 0380 	bic.w	r3, r3, #4194304	; 0x400000
 8001788:	430b      	orrs	r3, r1
 800178a:	6053      	str	r3, [r2, #4]
 800178c:	e012      	b.n	80017b4 <HAL_RCCEx_PeriphCLKConfig+0xa0>
 800178e:	2700      	movs	r7, #0
 8001790:	e7d4      	b.n	800173c <HAL_RCCEx_PeriphCLKConfig+0x28>
 8001792:	6833      	ldr	r3, [r6, #0]
 8001794:	f443 7380 	orr.w	r3, r3, #256	; 0x100
 8001798:	6033      	str	r3, [r6, #0]
 800179a:	f7ff f869 	bl	8000870 <HAL_GetTick>
 800179e:	4680      	mov	r8, r0
 80017a0:	6833      	ldr	r3, [r6, #0]
 80017a2:	05d8      	lsls	r0, r3, #23
 80017a4:	d4ce      	bmi.n	8001744 <HAL_RCCEx_PeriphCLKConfig+0x30>
 80017a6:	f7ff f863 	bl	8000870 <HAL_GetTick>
 80017aa:	eba0 0008 	sub.w	r0, r0, r8
 80017ae:	2864      	cmp	r0, #100	; 0x64
 80017b0:	d9f6      	bls.n	80017a0 <HAL_RCCEx_PeriphCLKConfig+0x8c>
 80017b2:	2003      	movs	r0, #3
 80017b4:	b002      	add	sp, #8
 80017b6:	e8bd 81f0 	ldmia.w	sp!, {r4, r5, r6, r7, r8, pc}
 80017ba:	686a      	ldr	r2, [r5, #4]
 80017bc:	f402 7240 	and.w	r2, r2, #768	; 0x300
 80017c0:	429a      	cmp	r2, r3
 80017c2:	d0c3      	beq.n	800174c <HAL_RCCEx_PeriphCLKConfig+0x38>
 80017c4:	2001      	movs	r0, #1
 80017c6:	4a0e      	ldr	r2, [pc, #56]	; (8001800 <HAL_RCCEx_PeriphCLKConfig+0xec>)
 80017c8:	6a23      	ldr	r3, [r4, #32]
 80017ca:	6010      	str	r0, [r2, #0]
 80017cc:	2000      	movs	r0, #0
 80017ce:	f423 7140 	bic.w	r1, r3, #768	; 0x300
 80017d2:	6010      	str	r0, [r2, #0]
 80017d4:	6221      	str	r1, [r4, #32]
 80017d6:	07d9      	lsls	r1, r3, #31
 80017d8:	d5b8      	bpl.n	800174c <HAL_RCCEx_PeriphCLKConfig+0x38>
 80017da:	f7ff f849 	bl	8000870 <HAL_GetTick>
 80017de:	f241 3888 	movw	r8, #5000	; 0x1388
 80017e2:	4606      	mov	r6, r0
 80017e4:	6a23      	ldr	r3, [r4, #32]
 80017e6:	079a      	lsls	r2, r3, #30
 80017e8:	d4b0      	bmi.n	800174c <HAL_RCCEx_PeriphCLKConfig+0x38>
 80017ea:	f7ff f841 	bl	8000870 <HAL_GetTick>
 80017ee:	1b80      	subs	r0, r0, r6
 80017f0:	4540      	cmp	r0, r8
 80017f2:	d9f7      	bls.n	80017e4 <HAL_RCCEx_PeriphCLKConfig+0xd0>
 80017f4:	e7dd      	b.n	80017b2 <HAL_RCCEx_PeriphCLKConfig+0x9e>
 80017f6:	bf00      	nop
 80017f8:	40021000 	.word	0x40021000
 80017fc:	40007000 	.word	0x40007000
 8001800:	42420440 	.word	0x42420440

08001804 <HAL_RCCEx_GetPeriphCLKFreq>:
 8001804:	b570      	push	{r4, r5, r6, lr}
 8001806:	4604      	mov	r4, r0
 8001808:	4b34      	ldr	r3, [pc, #208]	; (80018dc <HAL_RCCEx_GetPeriphCLKFreq+0xd8>)
 800180a:	b086      	sub	sp, #24
 800180c:	ad02      	add	r5, sp, #8
 800180e:	f103 0610 	add.w	r6, r3, #16
 8001812:	462a      	mov	r2, r5
 8001814:	6818      	ldr	r0, [r3, #0]
 8001816:	6859      	ldr	r1, [r3, #4]
 8001818:	3308      	adds	r3, #8
 800181a:	c203      	stmia	r2!, {r0, r1}
 800181c:	42b3      	cmp	r3, r6
 800181e:	4615      	mov	r5, r2
 8001820:	d1f7      	bne.n	8001812 <HAL_RCCEx_GetPeriphCLKFreq+0xe>
 8001822:	f240 2301 	movw	r3, #513	; 0x201
 8001826:	2c02      	cmp	r4, #2
 8001828:	f8ad 3004 	strh.w	r3, [sp, #4]
 800182c:	d047      	beq.n	80018be <HAL_RCCEx_GetPeriphCLKFreq+0xba>
 800182e:	2c10      	cmp	r4, #16
 8001830:	d017      	beq.n	8001862 <HAL_RCCEx_GetPeriphCLKFreq+0x5e>
 8001832:	2c01      	cmp	r4, #1
 8001834:	d14f      	bne.n	80018d6 <HAL_RCCEx_GetPeriphCLKFreq+0xd2>
 8001836:	f240 3102 	movw	r1, #770	; 0x302
 800183a:	4a29      	ldr	r2, [pc, #164]	; (80018e0 <HAL_RCCEx_GetPeriphCLKFreq+0xdc>)
 800183c:	6a13      	ldr	r3, [r2, #32]
 800183e:	4019      	ands	r1, r3
 8001840:	f5b1 7f81 	cmp.w	r1, #258	; 0x102
 8001844:	d044      	beq.n	80018d0 <HAL_RCCEx_GetPeriphCLKFreq+0xcc>
 8001846:	f403 7340 	and.w	r3, r3, #768	; 0x300
 800184a:	f5b3 7f00 	cmp.w	r3, #512	; 0x200
 800184e:	d12d      	bne.n	80018ac <HAL_RCCEx_GetPeriphCLKFreq+0xa8>
 8001850:	f649 4040 	movw	r0, #40000	; 0x9c40
 8001854:	6a53      	ldr	r3, [r2, #36]	; 0x24
 8001856:	f013 0f02 	tst.w	r3, #2
 800185a:	bf08      	it	eq
 800185c:	2000      	moveq	r0, #0
 800185e:	b006      	add	sp, #24
 8001860:	bd70      	pop	{r4, r5, r6, pc}
 8001862:	4b1f      	ldr	r3, [pc, #124]	; (80018e0 <HAL_RCCEx_GetPeriphCLKFreq+0xdc>)
 8001864:	6859      	ldr	r1, [r3, #4]
 8001866:	6818      	ldr	r0, [r3, #0]
 8001868:	f010 7080 	ands.w	r0, r0, #16777216	; 0x1000000
 800186c:	d0f7      	beq.n	800185e <HAL_RCCEx_GetPeriphCLKFreq+0x5a>
 800186e:	f3c1 4283 	ubfx	r2, r1, #18, #4
 8001872:	a806      	add	r0, sp, #24
 8001874:	4402      	add	r2, r0
 8001876:	f812 0c10 	ldrb.w	r0, [r2, #-16]
 800187a:	03ca      	lsls	r2, r1, #15
 800187c:	bf41      	itttt	mi
 800187e:	685a      	ldrmi	r2, [r3, #4]
 8001880:	a906      	addmi	r1, sp, #24
 8001882:	f3c2 4240 	ubfxmi	r2, r2, #17, #1
 8001886:	1852      	addmi	r2, r2, r1
 8001888:	bf44      	itt	mi
 800188a:	f812 1c14 	ldrbmi.w	r1, [r2, #-20]
 800188e:	4a15      	ldrmi	r2, [pc, #84]	; (80018e4 <HAL_RCCEx_GetPeriphCLKFreq+0xe0>)
 8001890:	685b      	ldr	r3, [r3, #4]
 8001892:	bf4c      	ite	mi
 8001894:	fbb2 f2f1 	udivmi	r2, r2, r1
 8001898:	4a13      	ldrpl	r2, [pc, #76]	; (80018e8 <HAL_RCCEx_GetPeriphCLKFreq+0xe4>)
 800189a:	025b      	lsls	r3, r3, #9
 800189c:	fb02 f000 	mul.w	r0, r2, r0
 80018a0:	d4dd      	bmi.n	800185e <HAL_RCCEx_GetPeriphCLKFreq+0x5a>
 80018a2:	2303      	movs	r3, #3
 80018a4:	0040      	lsls	r0, r0, #1
 80018a6:	fbb0 f0f3 	udiv	r0, r0, r3
 80018aa:	e7d8      	b.n	800185e <HAL_RCCEx_GetPeriphCLKFreq+0x5a>
 80018ac:	f5b3 7f40 	cmp.w	r3, #768	; 0x300
 80018b0:	d111      	bne.n	80018d6 <HAL_RCCEx_GetPeriphCLKFreq+0xd2>
 80018b2:	6813      	ldr	r3, [r2, #0]
 80018b4:	f24f 4024 	movw	r0, #62500	; 0xf424
 80018b8:	f413 3f00 	tst.w	r3, #131072	; 0x20000
 80018bc:	e7cd      	b.n	800185a <HAL_RCCEx_GetPeriphCLKFreq+0x56>
 80018be:	f7ff ff19 	bl	80016f4 <HAL_RCC_GetPCLK2Freq>
 80018c2:	4b07      	ldr	r3, [pc, #28]	; (80018e0 <HAL_RCCEx_GetPeriphCLKFreq+0xdc>)
 80018c4:	685b      	ldr	r3, [r3, #4]
 80018c6:	f3c3 3381 	ubfx	r3, r3, #14, #2
 80018ca:	3301      	adds	r3, #1
 80018cc:	005b      	lsls	r3, r3, #1
 80018ce:	e7ea      	b.n	80018a6 <HAL_RCCEx_GetPeriphCLKFreq+0xa2>
 80018d0:	f44f 4000 	mov.w	r0, #32768	; 0x8000
 80018d4:	e7c3      	b.n	800185e <HAL_RCCEx_GetPeriphCLKFreq+0x5a>
 80018d6:	2000      	movs	r0, #0
 80018d8:	e7c1      	b.n	800185e <HAL_RCCEx_GetPeriphCLKFreq+0x5a>
 80018da:	bf00      	nop
 80018dc:	08002007 	.word	0x08002007
 80018e0:	40021000 	.word	0x40021000
 80018e4:	007a1200 	.word	0x007a1200
 80018e8:	003d0900 	.word	0x003d0900

080018ec <HAL_TIM_Base_Start_IT>:
 80018ec:	f890 303d 	ldrb.w	r3, [r0, #61]	; 0x3d
 80018f0:	2b01      	cmp	r3, #1
 80018f2:	d120      	bne.n	8001936 <HAL_TIM_Base_Start_IT+0x4a>
 80018f4:	2302      	movs	r3, #2
 80018f6:	f880 303d 	strb.w	r3, [r0, #61]	; 0x3d
 80018fa:	6803      	ldr	r3, [r0, #0]
 80018fc:	68da      	ldr	r2, [r3, #12]
 80018fe:	f042 0201 	orr.w	r2, r2, #1
 8001902:	60da      	str	r2, [r3, #12]
 8001904:	4a0d      	ldr	r2, [pc, #52]	; (800193c <HAL_TIM_Base_Start_IT+0x50>)
 8001906:	4293      	cmp	r3, r2
 8001908:	d00a      	beq.n	8001920 <HAL_TIM_Base_Start_IT+0x34>
 800190a:	f1b3 4f80 	cmp.w	r3, #1073741824	; 0x40000000
 800190e:	d007      	beq.n	8001920 <HAL_TIM_Base_Start_IT+0x34>
 8001910:	f5a2 3294 	sub.w	r2, r2, #75776	; 0x12800
 8001914:	4293      	cmp	r3, r2
 8001916:	d003      	beq.n	8001920 <HAL_TIM_Base_Start_IT+0x34>
 8001918:	f502 6280 	add.w	r2, r2, #1024	; 0x400
 800191c:	4293      	cmp	r3, r2
 800191e:	d104      	bne.n	800192a <HAL_TIM_Base_Start_IT+0x3e>
 8001920:	689a      	ldr	r2, [r3, #8]
 8001922:	f002 0207 	and.w	r2, r2, #7
 8001926:	2a06      	cmp	r2, #6
 8001928:	d003      	beq.n	8001932 <HAL_TIM_Base_Start_IT+0x46>
 800192a:	681a      	ldr	r2, [r3, #0]
 800192c:	f042 0201 	orr.w	r2, r2, #1
 8001930:	601a      	str	r2, [r3, #0]
 8001932:	2000      	movs	r0, #0
 8001934:	4770      	bx	lr
 8001936:	2001      	movs	r0, #1
 8001938:	4770      	bx	lr
 800193a:	bf00      	nop
 800193c:	40012c00 	.word	0x40012c00

08001940 <HAL_TIM_PeriodElapsedCallback>:
 8001940:	4770      	bx	lr

08001942 <HAL_TIM_OC_DelayElapsedCallback>:
 8001942:	4770      	bx	lr

08001944 <HAL_TIM_IC_CaptureCallback>:
 8001944:	4770      	bx	lr

08001946 <HAL_TIM_PWM_PulseFinishedCallback>:
 8001946:	4770      	bx	lr

08001948 <HAL_TIM_TriggerCallback>:
 8001948:	4770      	bx	lr

0800194a <HAL_TIM_IRQHandler>:
 800194a:	6803      	ldr	r3, [r0, #0]
 800194c:	b510      	push	{r4, lr}
 800194e:	691a      	ldr	r2, [r3, #16]
 8001950:	4604      	mov	r4, r0
 8001952:	0791      	lsls	r1, r2, #30
 8001954:	d50e      	bpl.n	8001974 <HAL_TIM_IRQHandler+0x2a>
 8001956:	68da      	ldr	r2, [r3, #12]
 8001958:	0792      	lsls	r2, r2, #30
 800195a:	d50b      	bpl.n	8001974 <HAL_TIM_IRQHandler+0x2a>
 800195c:	f06f 0202 	mvn.w	r2, #2
 8001960:	611a      	str	r2, [r3, #16]
 8001962:	2201      	movs	r2, #1
 8001964:	699b      	ldr	r3, [r3, #24]
 8001966:	7702      	strb	r2, [r0, #28]
 8001968:	079b      	lsls	r3, r3, #30
 800196a:	d077      	beq.n	8001a5c <HAL_TIM_IRQHandler+0x112>
 800196c:	f7ff ffea 	bl	8001944 <HAL_TIM_IC_CaptureCallback>
 8001970:	2300      	movs	r3, #0
 8001972:	7723      	strb	r3, [r4, #28]
 8001974:	6823      	ldr	r3, [r4, #0]
 8001976:	691a      	ldr	r2, [r3, #16]
 8001978:	0750      	lsls	r0, r2, #29
 800197a:	d510      	bpl.n	800199e <HAL_TIM_IRQHandler+0x54>
 800197c:	68da      	ldr	r2, [r3, #12]
 800197e:	0751      	lsls	r1, r2, #29
 8001980:	d50d      	bpl.n	800199e <HAL_TIM_IRQHandler+0x54>
 8001982:	f06f 0204 	mvn.w	r2, #4
 8001986:	611a      	str	r2, [r3, #16]
 8001988:	2202      	movs	r2, #2
 800198a:	699b      	ldr	r3, [r3, #24]
 800198c:	7722      	strb	r2, [r4, #28]
 800198e:	f413 7f40 	tst.w	r3, #768	; 0x300
 8001992:	4620      	mov	r0, r4
 8001994:	d068      	beq.n	8001a68 <HAL_TIM_IRQHandler+0x11e>
 8001996:	f7ff ffd5 	bl	8001944 <HAL_TIM_IC_CaptureCallback>
 800199a:	2300      	movs	r3, #0
 800199c:	7723      	strb	r3, [r4, #28]
 800199e:	6823      	ldr	r3, [r4, #0]
 80019a0:	691a      	ldr	r2, [r3, #16]
 80019a2:	0712      	lsls	r2, r2, #28
 80019a4:	d50f      	bpl.n	80019c6 <HAL_TIM_IRQHandler+0x7c>
 80019a6:	68da      	ldr	r2, [r3, #12]
 80019a8:	0710      	lsls	r0, r2, #28
 80019aa:	d50c      	bpl.n	80019c6 <HAL_TIM_IRQHandler+0x7c>
 80019ac:	f06f 0208 	mvn.w	r2, #8
 80019b0:	611a      	str	r2, [r3, #16]
 80019b2:	2204      	movs	r2, #4
 80019b4:	69db      	ldr	r3, [r3, #28]
 80019b6:	7722      	strb	r2, [r4, #28]
 80019b8:	0799      	lsls	r1, r3, #30
 80019ba:	4620      	mov	r0, r4
 80019bc:	d05a      	beq.n	8001a74 <HAL_TIM_IRQHandler+0x12a>
 80019be:	f7ff ffc1 	bl	8001944 <HAL_TIM_IC_CaptureCallback>
 80019c2:	2300      	movs	r3, #0
 80019c4:	7723      	strb	r3, [r4, #28]
 80019c6:	6823      	ldr	r3, [r4, #0]
 80019c8:	691a      	ldr	r2, [r3, #16]
 80019ca:	06d2      	lsls	r2, r2, #27
 80019cc:	d510      	bpl.n	80019f0 <HAL_TIM_IRQHandler+0xa6>
 80019ce:	68da      	ldr	r2, [r3, #12]
 80019d0:	06d0      	lsls	r0, r2, #27
 80019d2:	d50d      	bpl.n	80019f0 <HAL_TIM_IRQHandler+0xa6>
 80019d4:	f06f 0210 	mvn.w	r2, #16
 80019d8:	611a      	str	r2, [r3, #16]
 80019da:	2208      	movs	r2, #8
 80019dc:	69db      	ldr	r3, [r3, #28]
 80019de:	7722      	strb	r2, [r4, #28]
 80019e0:	f413 7f40 	tst.w	r3, #768	; 0x300
 80019e4:	4620      	mov	r0, r4
 80019e6:	d04b      	beq.n	8001a80 <HAL_TIM_IRQHandler+0x136>
 80019e8:	f7ff ffac 	bl	8001944 <HAL_TIM_IC_CaptureCallback>
 80019ec:	2300      	movs	r3, #0
 80019ee:	7723      	strb	r3, [r4, #28]
 80019f0:	6823      	ldr	r3, [r4, #0]
 80019f2:	691a      	ldr	r2, [r3, #16]
 80019f4:	07d1      	lsls	r1, r2, #31
 80019f6:	d508      	bpl.n	8001a0a <HAL_TIM_IRQHandler+0xc0>
 80019f8:	68da      	ldr	r2, [r3, #12]
 80019fa:	07d2      	lsls	r2, r2, #31
 80019fc:	d505      	bpl.n	8001a0a <HAL_TIM_IRQHandler+0xc0>
 80019fe:	f06f 0201 	mvn.w	r2, #1
 8001a02:	4620      	mov	r0, r4
 8001a04:	611a      	str	r2, [r3, #16]
 8001a06:	f7ff ff9b 	bl	8001940 <HAL_TIM_PeriodElapsedCallback>
 8001a0a:	6823      	ldr	r3, [r4, #0]
 8001a0c:	691a      	ldr	r2, [r3, #16]
 8001a0e:	0610      	lsls	r0, r2, #24
 8001a10:	d508      	bpl.n	8001a24 <HAL_TIM_IRQHandler+0xda>
 8001a12:	68da      	ldr	r2, [r3, #12]
 8001a14:	0611      	lsls	r1, r2, #24
 8001a16:	d505      	bpl.n	8001a24 <HAL_TIM_IRQHandler+0xda>
 8001a18:	f06f 0280 	mvn.w	r2, #128	; 0x80
 8001a1c:	4620      	mov	r0, r4
 8001a1e:	611a      	str	r2, [r3, #16]
 8001a20:	f000 f96b 	bl	8001cfa <HAL_TIMEx_BreakCallback>
 8001a24:	6823      	ldr	r3, [r4, #0]
 8001a26:	691a      	ldr	r2, [r3, #16]
 8001a28:	0652      	lsls	r2, r2, #25
 8001a2a:	d508      	bpl.n	8001a3e <HAL_TIM_IRQHandler+0xf4>
 8001a2c:	68da      	ldr	r2, [r3, #12]
 8001a2e:	0650      	lsls	r0, r2, #25
 8001a30:	d505      	bpl.n	8001a3e <HAL_TIM_IRQHandler+0xf4>
 8001a32:	f06f 0240 	mvn.w	r2, #64	; 0x40
 8001a36:	4620      	mov	r0, r4
 8001a38:	611a      	str	r2, [r3, #16]
 8001a3a:	f7ff ff85 	bl	8001948 <HAL_TIM_TriggerCallback>
 8001a3e:	6823      	ldr	r3, [r4, #0]
 8001a40:	691a      	ldr	r2, [r3, #16]
 8001a42:	0691      	lsls	r1, r2, #26
 8001a44:	d522      	bpl.n	8001a8c <HAL_TIM_IRQHandler+0x142>
 8001a46:	68da      	ldr	r2, [r3, #12]
 8001a48:	0692      	lsls	r2, r2, #26
 8001a4a:	d51f      	bpl.n	8001a8c <HAL_TIM_IRQHandler+0x142>
 8001a4c:	f06f 0220 	mvn.w	r2, #32
 8001a50:	4620      	mov	r0, r4
 8001a52:	e8bd 4010 	ldmia.w	sp!, {r4, lr}
 8001a56:	611a      	str	r2, [r3, #16]
 8001a58:	f000 b94e 	b.w	8001cf8 <HAL_TIMEx_CommutCallback>
 8001a5c:	f7ff ff71 	bl	8001942 <HAL_TIM_OC_DelayElapsedCallback>
 8001a60:	4620      	mov	r0, r4
 8001a62:	f7ff ff70 	bl	8001946 <HAL_TIM_PWM_PulseFinishedCallback>
 8001a66:	e783      	b.n	8001970 <HAL_TIM_IRQHandler+0x26>
 8001a68:	f7ff ff6b 	bl	8001942 <HAL_TIM_OC_DelayElapsedCallback>
 8001a6c:	4620      	mov	r0, r4
 8001a6e:	f7ff ff6a 	bl	8001946 <HAL_TIM_PWM_PulseFinishedCallback>
 8001a72:	e792      	b.n	800199a <HAL_TIM_IRQHandler+0x50>
 8001a74:	f7ff ff65 	bl	8001942 <HAL_TIM_OC_DelayElapsedCallback>
 8001a78:	4620      	mov	r0, r4
 8001a7a:	f7ff ff64 	bl	8001946 <HAL_TIM_PWM_PulseFinishedCallback>
 8001a7e:	e7a0      	b.n	80019c2 <HAL_TIM_IRQHandler+0x78>
 8001a80:	f7ff ff5f 	bl	8001942 <HAL_TIM_OC_DelayElapsedCallback>
 8001a84:	4620      	mov	r0, r4
 8001a86:	f7ff ff5e 	bl	8001946 <HAL_TIM_PWM_PulseFinishedCallback>
 8001a8a:	e7af      	b.n	80019ec <HAL_TIM_IRQHandler+0xa2>
 8001a8c:	bd10      	pop	{r4, pc}
	...

08001a90 <TIM_Base_SetConfig>:
 8001a90:	4a1a      	ldr	r2, [pc, #104]	; (8001afc <TIM_Base_SetConfig+0x6c>)
 8001a92:	6803      	ldr	r3, [r0, #0]
 8001a94:	4290      	cmp	r0, r2
 8001a96:	d00a      	beq.n	8001aae <TIM_Base_SetConfig+0x1e>
 8001a98:	f1b0 4f80 	cmp.w	r0, #1073741824	; 0x40000000
 8001a9c:	d007      	beq.n	8001aae <TIM_Base_SetConfig+0x1e>
 8001a9e:	f5a2 3294 	sub.w	r2, r2, #75776	; 0x12800
 8001aa2:	4290      	cmp	r0, r2
 8001aa4:	d003      	beq.n	8001aae <TIM_Base_SetConfig+0x1e>
 8001aa6:	f502 6280 	add.w	r2, r2, #1024	; 0x400
 8001aaa:	4290      	cmp	r0, r2
 8001aac:	d115      	bne.n	8001ada <TIM_Base_SetConfig+0x4a>
 8001aae:	684a      	ldr	r2, [r1, #4]
 8001ab0:	f023 0370 	bic.w	r3, r3, #112	; 0x70
 8001ab4:	4313      	orrs	r3, r2
 8001ab6:	4a11      	ldr	r2, [pc, #68]	; (8001afc <TIM_Base_SetConfig+0x6c>)
 8001ab8:	4290      	cmp	r0, r2
 8001aba:	d00a      	beq.n	8001ad2 <TIM_Base_SetConfig+0x42>
 8001abc:	f1b0 4f80 	cmp.w	r0, #1073741824	; 0x40000000
 8001ac0:	d007      	beq.n	8001ad2 <TIM_Base_SetConfig+0x42>
 8001ac2:	f5a2 3294 	sub.w	r2, r2, #75776	; 0x12800
 8001ac6:	4290      	cmp	r0, r2
 8001ac8:	d003      	beq.n	8001ad2 <TIM_Base_SetConfig+0x42>
 8001aca:	f502 6280 	add.w	r2, r2, #1024	; 0x400
 8001ace:	4290      	cmp	r0, r2
 8001ad0:	d103      	bne.n	8001ada <TIM_Base_SetConfig+0x4a>
 8001ad2:	68ca      	ldr	r2, [r1, #12]
 8001ad4:	f423 7340 	bic.w	r3, r3, #768	; 0x300
 8001ad8:	4313      	orrs	r3, r2
 8001ada:	694a      	ldr	r2, [r1, #20]
 8001adc:	f023 0380 	bic.w	r3, r3, #128	; 0x80
 8001ae0:	4313      	orrs	r3, r2
 8001ae2:	6003      	str	r3, [r0, #0]
 8001ae4:	688b      	ldr	r3, [r1, #8]
 8001ae6:	62c3      	str	r3, [r0, #44]	; 0x2c
 8001ae8:	680b      	ldr	r3, [r1, #0]
 8001aea:	6283      	str	r3, [r0, #40]	; 0x28
 8001aec:	4b03      	ldr	r3, [pc, #12]	; (8001afc <TIM_Base_SetConfig+0x6c>)
 8001aee:	4298      	cmp	r0, r3
 8001af0:	bf04      	itt	eq
 8001af2:	690b      	ldreq	r3, [r1, #16]
 8001af4:	6303      	streq	r3, [r0, #48]	; 0x30
 8001af6:	2301      	movs	r3, #1
 8001af8:	6143      	str	r3, [r0, #20]
 8001afa:	4770      	bx	lr
 8001afc:	40012c00 	.word	0x40012c00

08001b00 <HAL_TIM_Base_Init>:
 8001b00:	b510      	push	{r4, lr}
 8001b02:	4604      	mov	r4, r0
 8001b04:	b330      	cbz	r0, 8001b54 <HAL_TIM_Base_Init+0x54>
 8001b06:	f890 303d 	ldrb.w	r3, [r0, #61]	; 0x3d
 8001b0a:	f003 02ff 	and.w	r2, r3, #255	; 0xff
 8001b0e:	b91b      	cbnz	r3, 8001b18 <HAL_TIM_Base_Init+0x18>
 8001b10:	f880 203c 	strb.w	r2, [r0, #60]	; 0x3c
 8001b14:	f7fe fd68 	bl	80005e8 <HAL_TIM_Base_MspInit>
 8001b18:	2302      	movs	r3, #2
 8001b1a:	6820      	ldr	r0, [r4, #0]
 8001b1c:	f884 303d 	strb.w	r3, [r4, #61]	; 0x3d
 8001b20:	1d21      	adds	r1, r4, #4
 8001b22:	f7ff ffb5 	bl	8001a90 <TIM_Base_SetConfig>
 8001b26:	2301      	movs	r3, #1
 8001b28:	2000      	movs	r0, #0
 8001b2a:	f884 3046 	strb.w	r3, [r4, #70]	; 0x46
 8001b2e:	f884 303e 	strb.w	r3, [r4, #62]	; 0x3e
 8001b32:	f884 303f 	strb.w	r3, [r4, #63]	; 0x3f
 8001b36:	f884 3040 	strb.w	r3, [r4, #64]	; 0x40
 8001b3a:	f884 3041 	strb.w	r3, [r4, #65]	; 0x41
 8001b3e:	f884 3042 	strb.w	r3, [r4, #66]	; 0x42
 8001b42:	f884 3043 	strb.w	r3, [r4, #67]	; 0x43
 8001b46:	f884 3044 	strb.w	r3, [r4, #68]	; 0x44
 8001b4a:	f884 3045 	strb.w	r3, [r4, #69]	; 0x45
 8001b4e:	f884 303d 	strb.w	r3, [r4, #61]	; 0x3d
 8001b52:	bd10      	pop	{r4, pc}
 8001b54:	2001      	movs	r0, #1
 8001b56:	e7fc      	b.n	8001b52 <HAL_TIM_Base_Init+0x52>

08001b58 <TIM_ETR_SetConfig>:
 8001b58:	b510      	push	{r4, lr}
 8001b5a:	6884      	ldr	r4, [r0, #8]
 8001b5c:	430a      	orrs	r2, r1
 8001b5e:	f424 447f 	bic.w	r4, r4, #65280	; 0xff00
 8001b62:	ea42 2303 	orr.w	r3, r2, r3, lsl #8
 8001b66:	4323      	orrs	r3, r4
 8001b68:	6083      	str	r3, [r0, #8]
 8001b6a:	bd10      	pop	{r4, pc}

08001b6c <HAL_TIM_ConfigClockSource>:
 8001b6c:	f890 303c 	ldrb.w	r3, [r0, #60]	; 0x3c
 8001b70:	b570      	push	{r4, r5, r6, lr}
 8001b72:	2b01      	cmp	r3, #1
 8001b74:	4604      	mov	r4, r0
 8001b76:	f04f 0002 	mov.w	r0, #2
 8001b7a:	d019      	beq.n	8001bb0 <HAL_TIM_ConfigClockSource+0x44>
 8001b7c:	2301      	movs	r3, #1
 8001b7e:	f884 003d 	strb.w	r0, [r4, #61]	; 0x3d
 8001b82:	6820      	ldr	r0, [r4, #0]
 8001b84:	f884 303c 	strb.w	r3, [r4, #60]	; 0x3c
 8001b88:	6883      	ldr	r3, [r0, #8]
 8001b8a:	f423 437f 	bic.w	r3, r3, #65280	; 0xff00
 8001b8e:	f023 0377 	bic.w	r3, r3, #119	; 0x77
 8001b92:	6083      	str	r3, [r0, #8]
 8001b94:	680b      	ldr	r3, [r1, #0]
 8001b96:	2b40      	cmp	r3, #64	; 0x40
 8001b98:	d065      	beq.n	8001c66 <HAL_TIM_ConfigClockSource+0xfa>
 8001b9a:	d815      	bhi.n	8001bc8 <HAL_TIM_ConfigClockSource+0x5c>
 8001b9c:	2b10      	cmp	r3, #16
 8001b9e:	d00c      	beq.n	8001bba <HAL_TIM_ConfigClockSource+0x4e>
 8001ba0:	d807      	bhi.n	8001bb2 <HAL_TIM_ConfigClockSource+0x46>
 8001ba2:	b153      	cbz	r3, 8001bba <HAL_TIM_ConfigClockSource+0x4e>
 8001ba4:	2301      	movs	r3, #1
 8001ba6:	2000      	movs	r0, #0
 8001ba8:	f884 303d 	strb.w	r3, [r4, #61]	; 0x3d
 8001bac:	f884 003c 	strb.w	r0, [r4, #60]	; 0x3c
 8001bb0:	bd70      	pop	{r4, r5, r6, pc}
 8001bb2:	2b20      	cmp	r3, #32
 8001bb4:	d001      	beq.n	8001bba <HAL_TIM_ConfigClockSource+0x4e>
 8001bb6:	2b30      	cmp	r3, #48	; 0x30
 8001bb8:	d1f4      	bne.n	8001ba4 <HAL_TIM_ConfigClockSource+0x38>
 8001bba:	6882      	ldr	r2, [r0, #8]
 8001bbc:	f043 0307 	orr.w	r3, r3, #7
 8001bc0:	f022 0270 	bic.w	r2, r2, #112	; 0x70
 8001bc4:	4313      	orrs	r3, r2
 8001bc6:	e01a      	b.n	8001bfe <HAL_TIM_ConfigClockSource+0x92>
 8001bc8:	2b60      	cmp	r3, #96	; 0x60
 8001bca:	d034      	beq.n	8001c36 <HAL_TIM_ConfigClockSource+0xca>
 8001bcc:	d819      	bhi.n	8001c02 <HAL_TIM_ConfigClockSource+0x96>
 8001bce:	2b50      	cmp	r3, #80	; 0x50
 8001bd0:	d1e8      	bne.n	8001ba4 <HAL_TIM_ConfigClockSource+0x38>
 8001bd2:	684a      	ldr	r2, [r1, #4]
 8001bd4:	68ce      	ldr	r6, [r1, #12]
 8001bd6:	6a01      	ldr	r1, [r0, #32]
 8001bd8:	6a05      	ldr	r5, [r0, #32]
 8001bda:	f021 010a 	bic.w	r1, r1, #10
 8001bde:	f025 0501 	bic.w	r5, r5, #1
 8001be2:	6205      	str	r5, [r0, #32]
 8001be4:	6983      	ldr	r3, [r0, #24]
 8001be6:	430a      	orrs	r2, r1
 8001be8:	f023 03f0 	bic.w	r3, r3, #240	; 0xf0
 8001bec:	ea43 1306 	orr.w	r3, r3, r6, lsl #4
 8001bf0:	6183      	str	r3, [r0, #24]
 8001bf2:	6202      	str	r2, [r0, #32]
 8001bf4:	6883      	ldr	r3, [r0, #8]
 8001bf6:	f023 0370 	bic.w	r3, r3, #112	; 0x70
 8001bfa:	f043 0357 	orr.w	r3, r3, #87	; 0x57
 8001bfe:	6083      	str	r3, [r0, #8]
 8001c00:	e7d0      	b.n	8001ba4 <HAL_TIM_ConfigClockSource+0x38>
 8001c02:	2b70      	cmp	r3, #112	; 0x70
 8001c04:	d00c      	beq.n	8001c20 <HAL_TIM_ConfigClockSource+0xb4>
 8001c06:	f5b3 5f00 	cmp.w	r3, #8192	; 0x2000
 8001c0a:	d1cb      	bne.n	8001ba4 <HAL_TIM_ConfigClockSource+0x38>
 8001c0c:	68cb      	ldr	r3, [r1, #12]
 8001c0e:	e9d1 2101 	ldrd	r2, r1, [r1, #4]
 8001c12:	f7ff ffa1 	bl	8001b58 <TIM_ETR_SetConfig>
 8001c16:	6822      	ldr	r2, [r4, #0]
 8001c18:	6893      	ldr	r3, [r2, #8]
 8001c1a:	f443 4380 	orr.w	r3, r3, #16384	; 0x4000
 8001c1e:	e008      	b.n	8001c32 <HAL_TIM_ConfigClockSource+0xc6>
 8001c20:	68cb      	ldr	r3, [r1, #12]
 8001c22:	e9d1 2101 	ldrd	r2, r1, [r1, #4]
 8001c26:	f7ff ff97 	bl	8001b58 <TIM_ETR_SetConfig>
 8001c2a:	6822      	ldr	r2, [r4, #0]
 8001c2c:	6893      	ldr	r3, [r2, #8]
 8001c2e:	f043 0377 	orr.w	r3, r3, #119	; 0x77
 8001c32:	6093      	str	r3, [r2, #8]
 8001c34:	e7b6      	b.n	8001ba4 <HAL_TIM_ConfigClockSource+0x38>
 8001c36:	684d      	ldr	r5, [r1, #4]
 8001c38:	68ce      	ldr	r6, [r1, #12]
 8001c3a:	6a01      	ldr	r1, [r0, #32]
 8001c3c:	f021 0110 	bic.w	r1, r1, #16
 8001c40:	6201      	str	r1, [r0, #32]
 8001c42:	6982      	ldr	r2, [r0, #24]
 8001c44:	6a03      	ldr	r3, [r0, #32]
 8001c46:	f422 4270 	bic.w	r2, r2, #61440	; 0xf000
 8001c4a:	f023 03a0 	bic.w	r3, r3, #160	; 0xa0
 8001c4e:	ea43 1305 	orr.w	r3, r3, r5, lsl #4
 8001c52:	ea42 3206 	orr.w	r2, r2, r6, lsl #12
 8001c56:	6182      	str	r2, [r0, #24]
 8001c58:	6203      	str	r3, [r0, #32]
 8001c5a:	6883      	ldr	r3, [r0, #8]
 8001c5c:	f023 0370 	bic.w	r3, r3, #112	; 0x70
 8001c60:	f043 0367 	orr.w	r3, r3, #103	; 0x67
 8001c64:	e7cb      	b.n	8001bfe <HAL_TIM_ConfigClockSource+0x92>
 8001c66:	684a      	ldr	r2, [r1, #4]
 8001c68:	68ce      	ldr	r6, [r1, #12]
 8001c6a:	6a01      	ldr	r1, [r0, #32]
 8001c6c:	6a05      	ldr	r5, [r0, #32]
 8001c6e:	f021 010a 	bic.w	r1, r1, #10
 8001c72:	f025 0501 	bic.w	r5, r5, #1
 8001c76:	6205      	str	r5, [r0, #32]
 8001c78:	6983      	ldr	r3, [r0, #24]
 8001c7a:	430a      	orrs	r2, r1
 8001c7c:	f023 03f0 	bic.w	r3, r3, #240	; 0xf0
 8001c80:	ea43 1306 	orr.w	r3, r3, r6, lsl #4
 8001c84:	6183      	str	r3, [r0, #24]
 8001c86:	6202      	str	r2, [r0, #32]
 8001c88:	6883      	ldr	r3, [r0, #8]
 8001c8a:	f023 0370 	bic.w	r3, r3, #112	; 0x70
 8001c8e:	f043 0347 	orr.w	r3, r3, #71	; 0x47
 8001c92:	e7b4      	b.n	8001bfe <HAL_TIM_ConfigClockSource+0x92>

08001c94 <HAL_TIMEx_MasterConfigSynchronization>:
 8001c94:	f890 303c 	ldrb.w	r3, [r0, #60]	; 0x3c
 8001c98:	b530      	push	{r4, r5, lr}
 8001c9a:	2b01      	cmp	r3, #1
 8001c9c:	f04f 0302 	mov.w	r3, #2
 8001ca0:	d025      	beq.n	8001cee <HAL_TIMEx_MasterConfigSynchronization+0x5a>
 8001ca2:	2201      	movs	r2, #1
 8001ca4:	f880 303d 	strb.w	r3, [r0, #61]	; 0x3d
 8001ca8:	6803      	ldr	r3, [r0, #0]
 8001caa:	680d      	ldr	r5, [r1, #0]
 8001cac:	685c      	ldr	r4, [r3, #4]
 8001cae:	f880 203c 	strb.w	r2, [r0, #60]	; 0x3c
 8001cb2:	f024 0470 	bic.w	r4, r4, #112	; 0x70
 8001cb6:	432c      	orrs	r4, r5
 8001cb8:	689a      	ldr	r2, [r3, #8]
 8001cba:	605c      	str	r4, [r3, #4]
 8001cbc:	4c0d      	ldr	r4, [pc, #52]	; (8001cf4 <HAL_TIMEx_MasterConfigSynchronization+0x60>)
 8001cbe:	42a3      	cmp	r3, r4
 8001cc0:	d00a      	beq.n	8001cd8 <HAL_TIMEx_MasterConfigSynchronization+0x44>
 8001cc2:	f1b3 4f80 	cmp.w	r3, #1073741824	; 0x40000000
 8001cc6:	d007      	beq.n	8001cd8 <HAL_TIMEx_MasterConfigSynchronization+0x44>
 8001cc8:	f5a4 3494 	sub.w	r4, r4, #75776	; 0x12800
 8001ccc:	42a3      	cmp	r3, r4
 8001cce:	d003      	beq.n	8001cd8 <HAL_TIMEx_MasterConfigSynchronization+0x44>
 8001cd0:	f504 6480 	add.w	r4, r4, #1024	; 0x400
 8001cd4:	42a3      	cmp	r3, r4
 8001cd6:	d104      	bne.n	8001ce2 <HAL_TIMEx_MasterConfigSynchronization+0x4e>
 8001cd8:	6849      	ldr	r1, [r1, #4]
 8001cda:	f022 0280 	bic.w	r2, r2, #128	; 0x80
 8001cde:	430a      	orrs	r2, r1
 8001ce0:	609a      	str	r2, [r3, #8]
 8001ce2:	2301      	movs	r3, #1
 8001ce4:	f880 303d 	strb.w	r3, [r0, #61]	; 0x3d
 8001ce8:	2300      	movs	r3, #0
 8001cea:	f880 303c 	strb.w	r3, [r0, #60]	; 0x3c
 8001cee:	4618      	mov	r0, r3
 8001cf0:	bd30      	pop	{r4, r5, pc}
 8001cf2:	bf00      	nop
 8001cf4:	40012c00 	.word	0x40012c00

08001cf8 <HAL_TIMEx_CommutCallback>:
 8001cf8:	4770      	bx	lr

08001cfa <HAL_TIMEx_BreakCallback>:
 8001cfa:	4770      	bx	lr

08001cfc <UART_SetConfig>:
 8001cfc:	b510      	push	{r4, lr}
 8001cfe:	4604      	mov	r4, r0
 8001d00:	6803      	ldr	r3, [r0, #0]
 8001d02:	68c1      	ldr	r1, [r0, #12]
 8001d04:	691a      	ldr	r2, [r3, #16]
 8001d06:	f422 5240 	bic.w	r2, r2, #12288	; 0x3000
 8001d0a:	430a      	orrs	r2, r1
 8001d0c:	611a      	str	r2, [r3, #16]
 8001d0e:	6882      	ldr	r2, [r0, #8]
 8001d10:	6900      	ldr	r0, [r0, #16]
 8001d12:	68d9      	ldr	r1, [r3, #12]
 8001d14:	4302      	orrs	r2, r0
 8001d16:	6960      	ldr	r0, [r4, #20]
 8001d18:	f421 51b0 	bic.w	r1, r1, #5632	; 0x1600
 8001d1c:	f021 010c 	bic.w	r1, r1, #12
 8001d20:	4302      	orrs	r2, r0
 8001d22:	430a      	orrs	r2, r1
 8001d24:	60da      	str	r2, [r3, #12]
 8001d26:	695a      	ldr	r2, [r3, #20]
 8001d28:	69a1      	ldr	r1, [r4, #24]
 8001d2a:	f422 7240 	bic.w	r2, r2, #768	; 0x300
 8001d2e:	430a      	orrs	r2, r1
 8001d30:	615a      	str	r2, [r3, #20]
 8001d32:	4a0e      	ldr	r2, [pc, #56]	; (8001d6c <UART_SetConfig+0x70>)
 8001d34:	4293      	cmp	r3, r2
 8001d36:	d115      	bne.n	8001d64 <UART_SetConfig+0x68>
 8001d38:	f7ff fcdc 	bl	80016f4 <HAL_RCC_GetPCLK2Freq>
 8001d3c:	2319      	movs	r3, #25
 8001d3e:	4358      	muls	r0, r3
 8001d40:	6863      	ldr	r3, [r4, #4]
 8001d42:	2264      	movs	r2, #100	; 0x64
 8001d44:	009b      	lsls	r3, r3, #2
 8001d46:	fbb0 f0f3 	udiv	r0, r0, r3
 8001d4a:	fbb0 f1f2 	udiv	r1, r0, r2
 8001d4e:	fb02 0311 	mls	r3, r2, r1, r0
 8001d52:	011b      	lsls	r3, r3, #4
 8001d54:	3332      	adds	r3, #50	; 0x32
 8001d56:	fbb3 f3f2 	udiv	r3, r3, r2
 8001d5a:	6824      	ldr	r4, [r4, #0]
 8001d5c:	eb03 1301 	add.w	r3, r3, r1, lsl #4
 8001d60:	60a3      	str	r3, [r4, #8]
 8001d62:	bd10      	pop	{r4, pc}
 8001d64:	f7ff fcb6 	bl	80016d4 <HAL_RCC_GetPCLK1Freq>
 8001d68:	e7e8      	b.n	8001d3c <UART_SetConfig+0x40>
 8001d6a:	bf00      	nop
 8001d6c:	40013800 	.word	0x40013800

08001d70 <UART_WaitOnFlagUntilTimeout.constprop.3>:
 8001d70:	b5f8      	push	{r3, r4, r5, r6, r7, lr}
 8001d72:	4604      	mov	r4, r0
 8001d74:	460e      	mov	r6, r1
 8001d76:	4617      	mov	r7, r2
 8001d78:	461d      	mov	r5, r3
 8001d7a:	6821      	ldr	r1, [r4, #0]
 8001d7c:	680b      	ldr	r3, [r1, #0]
 8001d7e:	ea36 0303 	bics.w	r3, r6, r3
 8001d82:	d101      	bne.n	8001d88 <UART_WaitOnFlagUntilTimeout.constprop.3+0x18>
 8001d84:	2000      	movs	r0, #0
 8001d86:	e014      	b.n	8001db2 <UART_WaitOnFlagUntilTimeout.constprop.3+0x42>
 8001d88:	1c6b      	adds	r3, r5, #1
 8001d8a:	d0f7      	beq.n	8001d7c <UART_WaitOnFlagUntilTimeout.constprop.3+0xc>
 8001d8c:	b995      	cbnz	r5, 8001db4 <UART_WaitOnFlagUntilTimeout.constprop.3+0x44>
 8001d8e:	6823      	ldr	r3, [r4, #0]
 8001d90:	2003      	movs	r0, #3
 8001d92:	68da      	ldr	r2, [r3, #12]
 8001d94:	f422 72d0 	bic.w	r2, r2, #416	; 0x1a0
 8001d98:	60da      	str	r2, [r3, #12]
 8001d9a:	695a      	ldr	r2, [r3, #20]
 8001d9c:	f022 0201 	bic.w	r2, r2, #1
 8001da0:	615a      	str	r2, [r3, #20]
 8001da2:	2320      	movs	r3, #32
 8001da4:	f884 3039 	strb.w	r3, [r4, #57]	; 0x39
 8001da8:	f884 303a 	strb.w	r3, [r4, #58]	; 0x3a
 8001dac:	2300      	movs	r3, #0
 8001dae:	f884 3038 	strb.w	r3, [r4, #56]	; 0x38
 8001db2:	bdf8      	pop	{r3, r4, r5, r6, r7, pc}
 8001db4:	f7fe fd5c 	bl	8000870 <HAL_GetTick>
 8001db8:	1bc0      	subs	r0, r0, r7
 8001dba:	4285      	cmp	r5, r0
 8001dbc:	d2dd      	bcs.n	8001d7a <UART_WaitOnFlagUntilTimeout.constprop.3+0xa>
 8001dbe:	e7e6      	b.n	8001d8e <UART_WaitOnFlagUntilTimeout.constprop.3+0x1e>

08001dc0 <HAL_UART_Init>:
 8001dc0:	b510      	push	{r4, lr}
 8001dc2:	4604      	mov	r4, r0
 8001dc4:	b340      	cbz	r0, 8001e18 <HAL_UART_Init+0x58>
 8001dc6:	f890 3039 	ldrb.w	r3, [r0, #57]	; 0x39
 8001dca:	f003 02ff 	and.w	r2, r3, #255	; 0xff
 8001dce:	b91b      	cbnz	r3, 8001dd8 <HAL_UART_Init+0x18>
 8001dd0:	f880 2038 	strb.w	r2, [r0, #56]	; 0x38
 8001dd4:	f7fe fc28 	bl	8000628 <HAL_UART_MspInit>
 8001dd8:	2324      	movs	r3, #36	; 0x24
 8001dda:	6822      	ldr	r2, [r4, #0]
 8001ddc:	f884 3039 	strb.w	r3, [r4, #57]	; 0x39
 8001de0:	68d3      	ldr	r3, [r2, #12]
 8001de2:	4620      	mov	r0, r4
 8001de4:	f423 5300 	bic.w	r3, r3, #8192	; 0x2000
 8001de8:	60d3      	str	r3, [r2, #12]
 8001dea:	f7ff ff87 	bl	8001cfc <UART_SetConfig>
 8001dee:	6823      	ldr	r3, [r4, #0]
 8001df0:	2000      	movs	r0, #0
 8001df2:	691a      	ldr	r2, [r3, #16]
 8001df4:	f422 4290 	bic.w	r2, r2, #18432	; 0x4800
 8001df8:	611a      	str	r2, [r3, #16]
 8001dfa:	695a      	ldr	r2, [r3, #20]
 8001dfc:	f022 022a 	bic.w	r2, r2, #42	; 0x2a
 8001e00:	615a      	str	r2, [r3, #20]
 8001e02:	68da      	ldr	r2, [r3, #12]
 8001e04:	f442 5200 	orr.w	r2, r2, #8192	; 0x2000
 8001e08:	60da      	str	r2, [r3, #12]
 8001e0a:	2320      	movs	r3, #32
 8001e0c:	63e0      	str	r0, [r4, #60]	; 0x3c
 8001e0e:	f884 3039 	strb.w	r3, [r4, #57]	; 0x39
 8001e12:	f884 303a 	strb.w	r3, [r4, #58]	; 0x3a
 8001e16:	bd10      	pop	{r4, pc}
 8001e18:	2001      	movs	r0, #1
 8001e1a:	e7fc      	b.n	8001e16 <HAL_UART_Init+0x56>

08001e1c <HAL_UART_Transmit>:
 8001e1c:	e92d 43f8 	stmdb	sp!, {r3, r4, r5, r6, r7, r8, r9, lr}
 8001e20:	4698      	mov	r8, r3
 8001e22:	f890 3039 	ldrb.w	r3, [r0, #57]	; 0x39
 8001e26:	4604      	mov	r4, r0
 8001e28:	2b20      	cmp	r3, #32
 8001e2a:	460e      	mov	r6, r1
 8001e2c:	4691      	mov	r9, r2
 8001e2e:	d14a      	bne.n	8001ec6 <HAL_UART_Transmit+0xaa>
 8001e30:	2900      	cmp	r1, #0
 8001e32:	d046      	beq.n	8001ec2 <HAL_UART_Transmit+0xa6>
 8001e34:	2a00      	cmp	r2, #0
 8001e36:	d044      	beq.n	8001ec2 <HAL_UART_Transmit+0xa6>
 8001e38:	f890 3038 	ldrb.w	r3, [r0, #56]	; 0x38
 8001e3c:	2b01      	cmp	r3, #1
 8001e3e:	d042      	beq.n	8001ec6 <HAL_UART_Transmit+0xaa>
 8001e40:	2301      	movs	r3, #1
 8001e42:	2500      	movs	r5, #0
 8001e44:	f880 3038 	strb.w	r3, [r0, #56]	; 0x38
 8001e48:	2321      	movs	r3, #33	; 0x21
 8001e4a:	63c5      	str	r5, [r0, #60]	; 0x3c
 8001e4c:	f880 3039 	strb.w	r3, [r0, #57]	; 0x39
 8001e50:	f7fe fd0e 	bl	8000870 <HAL_GetTick>
 8001e54:	68a3      	ldr	r3, [r4, #8]
 8001e56:	4607      	mov	r7, r0
 8001e58:	f5b3 5f80 	cmp.w	r3, #4096	; 0x1000
 8001e5c:	f8a4 9024 	strh.w	r9, [r4, #36]	; 0x24
 8001e60:	f8a4 9026 	strh.w	r9, [r4, #38]	; 0x26
 8001e64:	d103      	bne.n	8001e6e <HAL_UART_Transmit+0x52>
 8001e66:	6923      	ldr	r3, [r4, #16]
 8001e68:	b90b      	cbnz	r3, 8001e6e <HAL_UART_Transmit+0x52>
 8001e6a:	4635      	mov	r5, r6
 8001e6c:	461e      	mov	r6, r3
 8001e6e:	2300      	movs	r3, #0
 8001e70:	f884 3038 	strb.w	r3, [r4, #56]	; 0x38
 8001e74:	8ce3      	ldrh	r3, [r4, #38]	; 0x26
 8001e76:	b29b      	uxth	r3, r3
 8001e78:	b953      	cbnz	r3, 8001e90 <HAL_UART_Transmit+0x74>
 8001e7a:	4643      	mov	r3, r8
 8001e7c:	463a      	mov	r2, r7
 8001e7e:	2140      	movs	r1, #64	; 0x40
 8001e80:	4620      	mov	r0, r4
 8001e82:	f7ff ff75 	bl	8001d70 <UART_WaitOnFlagUntilTimeout.constprop.3>
 8001e86:	b950      	cbnz	r0, 8001e9e <HAL_UART_Transmit+0x82>
 8001e88:	2320      	movs	r3, #32
 8001e8a:	f884 3039 	strb.w	r3, [r4, #57]	; 0x39
 8001e8e:	e007      	b.n	8001ea0 <HAL_UART_Transmit+0x84>
 8001e90:	4643      	mov	r3, r8
 8001e92:	463a      	mov	r2, r7
 8001e94:	2180      	movs	r1, #128	; 0x80
 8001e96:	4620      	mov	r0, r4
 8001e98:	f7ff ff6a 	bl	8001d70 <UART_WaitOnFlagUntilTimeout.constprop.3>
 8001e9c:	b110      	cbz	r0, 8001ea4 <HAL_UART_Transmit+0x88>
 8001e9e:	2003      	movs	r0, #3
 8001ea0:	e8bd 83f8 	ldmia.w	sp!, {r3, r4, r5, r6, r7, r8, r9, pc}
 8001ea4:	6822      	ldr	r2, [r4, #0]
 8001ea6:	b94e      	cbnz	r6, 8001ebc <HAL_UART_Transmit+0xa0>
 8001ea8:	f835 3b02 	ldrh.w	r3, [r5], #2
 8001eac:	f3c3 0308 	ubfx	r3, r3, #0, #9
 8001eb0:	6053      	str	r3, [r2, #4]
 8001eb2:	8ce3      	ldrh	r3, [r4, #38]	; 0x26
 8001eb4:	3b01      	subs	r3, #1
 8001eb6:	b29b      	uxth	r3, r3
 8001eb8:	84e3      	strh	r3, [r4, #38]	; 0x26
 8001eba:	e7db      	b.n	8001e74 <HAL_UART_Transmit+0x58>
 8001ebc:	f816 3b01 	ldrb.w	r3, [r6], #1
 8001ec0:	e7f6      	b.n	8001eb0 <HAL_UART_Transmit+0x94>
 8001ec2:	2001      	movs	r0, #1
 8001ec4:	e7ec      	b.n	8001ea0 <HAL_UART_Transmit+0x84>
 8001ec6:	2002      	movs	r0, #2
 8001ec8:	e7ea      	b.n	8001ea0 <HAL_UART_Transmit+0x84>

08001eca <HAL_UART_Receive>:
 8001eca:	e92d 43f8 	stmdb	sp!, {r3, r4, r5, r6, r7, r8, r9, lr}
 8001ece:	4698      	mov	r8, r3
 8001ed0:	f890 303a 	ldrb.w	r3, [r0, #58]	; 0x3a
 8001ed4:	4604      	mov	r4, r0
 8001ed6:	2b20      	cmp	r3, #32
 8001ed8:	460e      	mov	r6, r1
 8001eda:	4691      	mov	r9, r2
 8001edc:	d14d      	bne.n	8001f7a <HAL_UART_Receive+0xb0>
 8001ede:	2900      	cmp	r1, #0
 8001ee0:	d049      	beq.n	8001f76 <HAL_UART_Receive+0xac>
 8001ee2:	2a00      	cmp	r2, #0
 8001ee4:	d047      	beq.n	8001f76 <HAL_UART_Receive+0xac>
 8001ee6:	f890 3038 	ldrb.w	r3, [r0, #56]	; 0x38
 8001eea:	2b01      	cmp	r3, #1
 8001eec:	d045      	beq.n	8001f7a <HAL_UART_Receive+0xb0>
 8001eee:	2301      	movs	r3, #1
 8001ef0:	2500      	movs	r5, #0
 8001ef2:	f880 3038 	strb.w	r3, [r0, #56]	; 0x38
 8001ef6:	2322      	movs	r3, #34	; 0x22
 8001ef8:	63c5      	str	r5, [r0, #60]	; 0x3c
 8001efa:	f880 303a 	strb.w	r3, [r0, #58]	; 0x3a
 8001efe:	f7fe fcb7 	bl	8000870 <HAL_GetTick>
 8001f02:	68a3      	ldr	r3, [r4, #8]
 8001f04:	4607      	mov	r7, r0
 8001f06:	f5b3 5f80 	cmp.w	r3, #4096	; 0x1000
 8001f0a:	f8a4 902c 	strh.w	r9, [r4, #44]	; 0x2c
 8001f0e:	f8a4 902e 	strh.w	r9, [r4, #46]	; 0x2e
 8001f12:	d103      	bne.n	8001f1c <HAL_UART_Receive+0x52>
 8001f14:	6923      	ldr	r3, [r4, #16]
 8001f16:	b90b      	cbnz	r3, 8001f1c <HAL_UART_Receive+0x52>
 8001f18:	4635      	mov	r5, r6
 8001f1a:	461e      	mov	r6, r3
 8001f1c:	2300      	movs	r3, #0
 8001f1e:	f884 3038 	strb.w	r3, [r4, #56]	; 0x38
 8001f22:	8de0      	ldrh	r0, [r4, #46]	; 0x2e
 8001f24:	b280      	uxth	r0, r0
 8001f26:	b920      	cbnz	r0, 8001f32 <HAL_UART_Receive+0x68>
 8001f28:	2320      	movs	r3, #32
 8001f2a:	f884 303a 	strb.w	r3, [r4, #58]	; 0x3a
 8001f2e:	e8bd 83f8 	ldmia.w	sp!, {r3, r4, r5, r6, r7, r8, r9, pc}
 8001f32:	4643      	mov	r3, r8
 8001f34:	463a      	mov	r2, r7
 8001f36:	2120      	movs	r1, #32
 8001f38:	4620      	mov	r0, r4
 8001f3a:	f7ff ff19 	bl	8001d70 <UART_WaitOnFlagUntilTimeout.constprop.3>
 8001f3e:	b9f0      	cbnz	r0, 8001f7e <HAL_UART_Receive+0xb4>
 8001f40:	6823      	ldr	r3, [r4, #0]
 8001f42:	b94e      	cbnz	r6, 8001f58 <HAL_UART_Receive+0x8e>
 8001f44:	685b      	ldr	r3, [r3, #4]
 8001f46:	f3c3 0308 	ubfx	r3, r3, #0, #9
 8001f4a:	f825 3b02 	strh.w	r3, [r5], #2
 8001f4e:	8de3      	ldrh	r3, [r4, #46]	; 0x2e
 8001f50:	3b01      	subs	r3, #1
 8001f52:	b29b      	uxth	r3, r3
 8001f54:	85e3      	strh	r3, [r4, #46]	; 0x2e
 8001f56:	e7e4      	b.n	8001f22 <HAL_UART_Receive+0x58>
 8001f58:	68a2      	ldr	r2, [r4, #8]
 8001f5a:	f5b2 5f80 	cmp.w	r2, #4096	; 0x1000
 8001f5e:	d002      	beq.n	8001f66 <HAL_UART_Receive+0x9c>
 8001f60:	b92a      	cbnz	r2, 8001f6e <HAL_UART_Receive+0xa4>
 8001f62:	6922      	ldr	r2, [r4, #16]
 8001f64:	b91a      	cbnz	r2, 8001f6e <HAL_UART_Receive+0xa4>
 8001f66:	685b      	ldr	r3, [r3, #4]
 8001f68:	7033      	strb	r3, [r6, #0]
 8001f6a:	3601      	adds	r6, #1
 8001f6c:	e7ef      	b.n	8001f4e <HAL_UART_Receive+0x84>
 8001f6e:	685b      	ldr	r3, [r3, #4]
 8001f70:	f003 037f 	and.w	r3, r3, #127	; 0x7f
 8001f74:	e7f8      	b.n	8001f68 <HAL_UART_Receive+0x9e>
 8001f76:	2001      	movs	r0, #1
 8001f78:	e7d9      	b.n	8001f2e <HAL_UART_Receive+0x64>
 8001f7a:	2002      	movs	r0, #2
 8001f7c:	e7d7      	b.n	8001f2e <HAL_UART_Receive+0x64>
 8001f7e:	2003      	movs	r0, #3
 8001f80:	e7d5      	b.n	8001f2e <HAL_UART_Receive+0x64>
	...

08001f84 <__libc_init_array>:
 8001f84:	b570      	push	{r4, r5, r6, lr}
 8001f86:	2500      	movs	r5, #0
 8001f88:	4e0c      	ldr	r6, [pc, #48]	; (8001fbc <__libc_init_array+0x38>)
 8001f8a:	4c0d      	ldr	r4, [pc, #52]	; (8001fc0 <__libc_init_array+0x3c>)
 8001f8c:	1ba4      	subs	r4, r4, r6
 8001f8e:	10a4      	asrs	r4, r4, #2
 8001f90:	42a5      	cmp	r5, r4
 8001f92:	d109      	bne.n	8001fa8 <__libc_init_array+0x24>
 8001f94:	f000 f822 	bl	8001fdc <_init>
 8001f98:	2500      	movs	r5, #0
 8001f9a:	4e0a      	ldr	r6, [pc, #40]	; (8001fc4 <__libc_init_array+0x40>)
 8001f9c:	4c0a      	ldr	r4, [pc, #40]	; (8001fc8 <__libc_init_array+0x44>)
 8001f9e:	1ba4      	subs	r4, r4, r6
 8001fa0:	10a4      	asrs	r4, r4, #2
 8001fa2:	42a5      	cmp	r5, r4
 8001fa4:	d105      	bne.n	8001fb2 <__libc_init_array+0x2e>
 8001fa6:	bd70      	pop	{r4, r5, r6, pc}
 8001fa8:	f856 3025 	ldr.w	r3, [r6, r5, lsl #2]
 8001fac:	4798      	blx	r3
 8001fae:	3501      	adds	r5, #1
 8001fb0:	e7ee      	b.n	8001f90 <__libc_init_array+0xc>
 8001fb2:	f856 3025 	ldr.w	r3, [r6, r5, lsl #2]
 8001fb6:	4798      	blx	r3
 8001fb8:	3501      	adds	r5, #1
 8001fba:	e7f2      	b.n	8001fa2 <__libc_init_array+0x1e>
 8001fbc:	08002030 	.word	0x08002030
 8001fc0:	08002030 	.word	0x08002030
 8001fc4:	08002030 	.word	0x08002030
 8001fc8:	08002034 	.word	0x08002034

08001fcc <memset>:
 8001fcc:	4603      	mov	r3, r0
 8001fce:	4402      	add	r2, r0
 8001fd0:	4293      	cmp	r3, r2
 8001fd2:	d100      	bne.n	8001fd6 <memset+0xa>
 8001fd4:	4770      	bx	lr
 8001fd6:	f803 1b01 	strb.w	r1, [r3], #1
 8001fda:	e7f9      	b.n	8001fd0 <memset+0x4>

08001fdc <_init>:
 8001fdc:	b5f8      	push	{r3, r4, r5, r6, r7, lr}
 8001fde:	bf00      	nop
 8001fe0:	bcf8      	pop	{r3, r4, r5, r6, r7}
 8001fe2:	bc08      	pop	{r3}
 8001fe4:	469e      	mov	lr, r3
 8001fe6:	4770      	bx	lr

08001fe8 <_fini>:
 8001fe8:	b5f8      	push	{r3, r4, r5, r6, r7, lr}
 8001fea:	bf00      	nop
 8001fec:	bcf8      	pop	{r3, r4, r5, r6, r7}
 8001fee:	bc08      	pop	{r3}
 8001ff0:	469e      	mov	lr, r3
 8001ff2:	4770      	bx	lr
